
test_ethernet.elf:     file format elf32-littlearm

Sections:
Idx Name          Size      VMA       LMA       File off  Algn
  0 .isr_vector   000001f8  08000000  08000000  00010000  2**0
                  CONTENTS, ALLOC, LOAD, READONLY, DATA
  1 .text         0000ad24  08000200  08000200  00010200  2**4
                  CONTENTS, ALLOC, LOAD, READONLY, CODE
  2 .rodata       000020bc  0800af24  0800af24  0001af24  2**2
                  CONTENTS, ALLOC, LOAD, READONLY, DATA
  3 .ARM.extab    00000000  0800cfe0  0800cfe0  00020078  2**0
                  CONTENTS
  4 .ARM          00000008  0800cfe0  0800cfe0  0001cfe0  2**2
                  CONTENTS, ALLOC, LOAD, READONLY, DATA
  5 .preinit_array 00000000  0800cfe8  0800cfe8  00020078  2**0
                  CONTENTS, ALLOC, LOAD, DATA
  6 .init_array   00000004  0800cfe8  0800cfe8  0001cfe8  2**2
                  CONTENTS, ALLOC, LOAD, DATA
  7 .fini_array   00000004  0800cfec  0800cfec  0001cfec  2**2
                  CONTENTS, ALLOC, LOAD, DATA
  8 .data         00000078  20000000  0800cff0  00020000  2**2
                  CONTENTS, ALLOC, LOAD, DATA
  9 .bss          00005e2c  20000078  0800d068  00020078  2**2
                  ALLOC
 10 ._user_heap_stack 00000604  20005ea4  0800d068  00025ea4  2**0
                  ALLOC
 11 .lwip_sec     0001cbf8  200064a8  200064a8  000264a8  2**2
                  ALLOC
 12 .ARM.attributes 0000002e  00000000  00000000  00020078  2**0
                  CONTENTS, READONLY
 13 .comment      00000050  00000000  00000000  000200a6  2**0
                  CONTENTS, READONLY
 14 .debug_frame  00000b00  00000000  00000000  000200f8  2**2
                  CONTENTS, READONLY, DEBUGGING, OCTETS

Disassembly of section .text:

08000200 <__do_global_dtors_aux>:
 8000200:	b510      	push	{r4, lr}
 8000202:	4c05      	ldr	r4, [pc, #20]	; (8000218 <__do_global_dtors_aux+0x18>)
 8000204:	7823      	ldrb	r3, [r4, #0]
 8000206:	b933      	cbnz	r3, 8000216 <__do_global_dtors_aux+0x16>
 8000208:	4b04      	ldr	r3, [pc, #16]	; (800021c <__do_global_dtors_aux+0x1c>)
 800020a:	b113      	cbz	r3, 8000212 <__do_global_dtors_aux+0x12>
 800020c:	4804      	ldr	r0, [pc, #16]	; (8000220 <__do_global_dtors_aux+0x20>)
 800020e:	f3af 8000 	nop.w
 8000212:	2301      	movs	r3, #1
 8000214:	7023      	strb	r3, [r4, #0]
 8000216:	bd10      	pop	{r4, pc}
 8000218:	20000078 	.word	0x20000078
 800021c:	00000000 	.word	0x00000000
 8000220:	0800af0c 	.word	0x0800af0c

08000224 <frame_dummy>:
 8000224:	b508      	push	{r3, lr}
 8000226:	4b03      	ldr	r3, [pc, #12]	; (8000234 <frame_dummy+0x10>)
 8000228:	b11b      	cbz	r3, 8000232 <frame_dummy+0xe>
 800022a:	4903      	ldr	r1, [pc, #12]	; (8000238 <frame_dummy+0x14>)
 800022c:	4803      	ldr	r0, [pc, #12]	; (800023c <frame_dummy+0x18>)
 800022e:	f3af 8000 	nop.w
 8000232:	bd08      	pop	{r3, pc}
 8000234:	00000000 	.word	0x00000000
 8000238:	2000007c 	.word	0x2000007c
 800023c:	0800af0c 	.word	0x0800af0c

08000240 <memchr>:
 8000240:	f001 01ff 	and.w	r1, r1, #255	; 0xff
 8000244:	2a10      	cmp	r2, #16
 8000246:	db2b      	blt.n	80002a0 <memchr+0x60>
 8000248:	f010 0f07 	tst.w	r0, #7
 800024c:	d008      	beq.n	8000260 <memchr+0x20>
 800024e:	f810 3b01 	ldrb.w	r3, [r0], #1
 8000252:	3a01      	subs	r2, #1
 8000254:	428b      	cmp	r3, r1
 8000256:	d02d      	beq.n	80002b4 <memchr+0x74>
 8000258:	f010 0f07 	tst.w	r0, #7
 800025c:	b342      	cbz	r2, 80002b0 <memchr+0x70>
 800025e:	d1f6      	bne.n	800024e <memchr+0xe>
 8000260:	b4f0      	push	{r4, r5, r6, r7}
 8000262:	ea41 2101 	orr.w	r1, r1, r1, lsl #8
 8000266:	ea41 4101 	orr.w	r1, r1, r1, lsl #16
 800026a:	f022 0407 	bic.w	r4, r2, #7
 800026e:	f07f 0700 	mvns.w	r7, #0
 8000272:	2300      	movs	r3, #0
 8000274:	e8f0 5602 	ldrd	r5, r6, [r0], #8
 8000278:	3c08      	subs	r4, #8
 800027a:	ea85 0501 	eor.w	r5, r5, r1
 800027e:	ea86 0601 	eor.w	r6, r6, r1
 8000282:	fa85 f547 	uadd8	r5, r5, r7
 8000286:	faa3 f587 	sel	r5, r3, r7
 800028a:	fa86 f647 	uadd8	r6, r6, r7
 800028e:	faa5 f687 	sel	r6, r5, r7
 8000292:	b98e      	cbnz	r6, 80002b8 <memchr+0x78>
 8000294:	d1ee      	bne.n	8000274 <memchr+0x34>
 8000296:	bcf0      	pop	{r4, r5, r6, r7}
 8000298:	f001 01ff 	and.w	r1, r1, #255	; 0xff
 800029c:	f002 0207 	and.w	r2, r2, #7
 80002a0:	b132      	cbz	r2, 80002b0 <memchr+0x70>
 80002a2:	f810 3b01 	ldrb.w	r3, [r0], #1
 80002a6:	3a01      	subs	r2, #1
 80002a8:	ea83 0301 	eor.w	r3, r3, r1
 80002ac:	b113      	cbz	r3, 80002b4 <memchr+0x74>
 80002ae:	d1f8      	bne.n	80002a2 <memchr+0x62>
 80002b0:	2000      	movs	r0, #0
 80002b2:	4770      	bx	lr
 80002b4:	3801      	subs	r0, #1
 80002b6:	4770      	bx	lr
 80002b8:	2d00      	cmp	r5, #0
 80002ba:	bf06      	itte	eq
 80002bc:	4635      	moveq	r5, r6
 80002be:	3803      	subeq	r0, #3
 80002c0:	3807      	subne	r0, #7
 80002c2:	f015 0f01 	tst.w	r5, #1
 80002c6:	d107      	bne.n	80002d8 <memchr+0x98>
 80002c8:	3001      	adds	r0, #1
 80002ca:	f415 7f80 	tst.w	r5, #256	; 0x100
 80002ce:	bf02      	ittt	eq
 80002d0:	3001      	addeq	r0, #1
 80002d2:	f415 3fc0 	tsteq.w	r5, #98304	; 0x18000
 80002d6:	3001      	addeq	r0, #1
 80002d8:	bcf0      	pop	{r4, r5, r6, r7}
 80002da:	3801      	subs	r0, #1
 80002dc:	4770      	bx	lr
 80002de:	bf00      	nop

080002e0 <__aeabi_uldivmod>:
 80002e0:	b953      	cbnz	r3, 80002f8 <__aeabi_uldivmod+0x18>
 80002e2:	b94a      	cbnz	r2, 80002f8 <__aeabi_uldivmod+0x18>
 80002e4:	2900      	cmp	r1, #0
 80002e6:	bf08      	it	eq
 80002e8:	2800      	cmpeq	r0, #0
 80002ea:	bf1c      	itt	ne
 80002ec:	f04f 31ff 	movne.w	r1, #4294967295
 80002f0:	f04f 30ff 	movne.w	r0, #4294967295
 80002f4:	f000 b974 	b.w	80005e0 <__aeabi_idiv0>
 80002f8:	f1ad 0c08 	sub.w	ip, sp, #8
 80002fc:	e96d ce04 	strd	ip, lr, [sp, #-16]!
 8000300:	f000 f806 	bl	8000310 <__udivmoddi4>
 8000304:	f8dd e004 	ldr.w	lr, [sp, #4]
 8000308:	e9dd 2302 	ldrd	r2, r3, [sp, #8]
 800030c:	b004      	add	sp, #16
 800030e:	4770      	bx	lr

08000310 <__udivmoddi4>:
 8000310:	e92d 47f0 	stmdb	sp!, {r4, r5, r6, r7, r8, r9, sl, lr}
 8000314:	9d08      	ldr	r5, [sp, #32]
 8000316:	4604      	mov	r4, r0
 8000318:	468e      	mov	lr, r1
 800031a:	2b00      	cmp	r3, #0
 800031c:	d14d      	bne.n	80003ba <__udivmoddi4+0xaa>
 800031e:	428a      	cmp	r2, r1
 8000320:	4694      	mov	ip, r2
 8000322:	d969      	bls.n	80003f8 <__udivmoddi4+0xe8>
 8000324:	fab2 f282 	clz	r2, r2
 8000328:	b152      	cbz	r2, 8000340 <__udivmoddi4+0x30>
 800032a:	fa01 f302 	lsl.w	r3, r1, r2
 800032e:	f1c2 0120 	rsb	r1, r2, #32
 8000332:	fa20 f101 	lsr.w	r1, r0, r1
 8000336:	fa0c fc02 	lsl.w	ip, ip, r2
 800033a:	ea41 0e03 	orr.w	lr, r1, r3
 800033e:	4094      	lsls	r4, r2
 8000340:	ea4f 481c 	mov.w	r8, ip, lsr #16
 8000344:	0c21      	lsrs	r1, r4, #16
 8000346:	fbbe f6f8 	udiv	r6, lr, r8
 800034a:	fa1f f78c 	uxth.w	r7, ip
 800034e:	fb08 e316 	mls	r3, r8, r6, lr
 8000352:	ea41 4303 	orr.w	r3, r1, r3, lsl #16
 8000356:	fb06 f107 	mul.w	r1, r6, r7
 800035a:	4299      	cmp	r1, r3
 800035c:	d90a      	bls.n	8000374 <__udivmoddi4+0x64>
 800035e:	eb1c 0303 	adds.w	r3, ip, r3
 8000362:	f106 30ff 	add.w	r0, r6, #4294967295
 8000366:	f080 811f 	bcs.w	80005a8 <__udivmoddi4+0x298>
 800036a:	4299      	cmp	r1, r3
 800036c:	f240 811c 	bls.w	80005a8 <__udivmoddi4+0x298>
 8000370:	3e02      	subs	r6, #2
 8000372:	4463      	add	r3, ip
 8000374:	1a5b      	subs	r3, r3, r1
 8000376:	b2a4      	uxth	r4, r4
 8000378:	fbb3 f0f8 	udiv	r0, r3, r8
 800037c:	fb08 3310 	mls	r3, r8, r0, r3
 8000380:	ea44 4403 	orr.w	r4, r4, r3, lsl #16
 8000384:	fb00 f707 	mul.w	r7, r0, r7
 8000388:	42a7      	cmp	r7, r4
 800038a:	d90a      	bls.n	80003a2 <__udivmoddi4+0x92>
 800038c:	eb1c 0404 	adds.w	r4, ip, r4
 8000390:	f100 33ff 	add.w	r3, r0, #4294967295
 8000394:	f080 810a 	bcs.w	80005ac <__udivmoddi4+0x29c>
 8000398:	42a7      	cmp	r7, r4
 800039a:	f240 8107 	bls.w	80005ac <__udivmoddi4+0x29c>
 800039e:	4464      	add	r4, ip
 80003a0:	3802      	subs	r0, #2
 80003a2:	ea40 4006 	orr.w	r0, r0, r6, lsl #16
 80003a6:	1be4      	subs	r4, r4, r7
 80003a8:	2600      	movs	r6, #0
 80003aa:	b11d      	cbz	r5, 80003b4 <__udivmoddi4+0xa4>
 80003ac:	40d4      	lsrs	r4, r2
 80003ae:	2300      	movs	r3, #0
 80003b0:	e9c5 4300 	strd	r4, r3, [r5]
 80003b4:	4631      	mov	r1, r6
 80003b6:	e8bd 87f0 	ldmia.w	sp!, {r4, r5, r6, r7, r8, r9, sl, pc}
 80003ba:	428b      	cmp	r3, r1
 80003bc:	d909      	bls.n	80003d2 <__udivmoddi4+0xc2>
 80003be:	2d00      	cmp	r5, #0
 80003c0:	f000 80ef 	beq.w	80005a2 <__udivmoddi4+0x292>
 80003c4:	2600      	movs	r6, #0
 80003c6:	e9c5 0100 	strd	r0, r1, [r5]
 80003ca:	4630      	mov	r0, r6
 80003cc:	4631      	mov	r1, r6
 80003ce:	e8bd 87f0 	ldmia.w	sp!, {r4, r5, r6, r7, r8, r9, sl, pc}
 80003d2:	fab3 f683 	clz	r6, r3
 80003d6:	2e00      	cmp	r6, #0
 80003d8:	d14a      	bne.n	8000470 <__udivmoddi4+0x160>
 80003da:	428b      	cmp	r3, r1
 80003dc:	d302      	bcc.n	80003e4 <__udivmoddi4+0xd4>
 80003de:	4282      	cmp	r2, r0
 80003e0:	f200 80f9 	bhi.w	80005d6 <__udivmoddi4+0x2c6>
 80003e4:	1a84      	subs	r4, r0, r2
 80003e6:	eb61 0303 	sbc.w	r3, r1, r3
 80003ea:	2001      	movs	r0, #1
 80003ec:	469e      	mov	lr, r3
 80003ee:	2d00      	cmp	r5, #0
 80003f0:	d0e0      	beq.n	80003b4 <__udivmoddi4+0xa4>
 80003f2:	e9c5 4e00 	strd	r4, lr, [r5]
 80003f6:	e7dd      	b.n	80003b4 <__udivmoddi4+0xa4>
 80003f8:	b902      	cbnz	r2, 80003fc <__udivmoddi4+0xec>
 80003fa:	deff      	udf	#255	; 0xff
 80003fc:	fab2 f282 	clz	r2, r2
 8000400:	2a00      	cmp	r2, #0
 8000402:	f040 8092 	bne.w	800052a <__udivmoddi4+0x21a>
 8000406:	eba1 010c 	sub.w	r1, r1, ip
 800040a:	ea4f 471c 	mov.w	r7, ip, lsr #16
 800040e:	fa1f fe8c 	uxth.w	lr, ip
 8000412:	2601      	movs	r6, #1
 8000414:	0c20      	lsrs	r0, r4, #16
 8000416:	fbb1 f3f7 	udiv	r3, r1, r7
 800041a:	fb07 1113 	mls	r1, r7, r3, r1
 800041e:	ea40 4101 	orr.w	r1, r0, r1, lsl #16
 8000422:	fb0e f003 	mul.w	r0, lr, r3
 8000426:	4288      	cmp	r0, r1
 8000428:	d908      	bls.n	800043c <__udivmoddi4+0x12c>
 800042a:	eb1c 0101 	adds.w	r1, ip, r1
 800042e:	f103 38ff 	add.w	r8, r3, #4294967295
 8000432:	d202      	bcs.n	800043a <__udivmoddi4+0x12a>
 8000434:	4288      	cmp	r0, r1
 8000436:	f200 80cb 	bhi.w	80005d0 <__udivmoddi4+0x2c0>
 800043a:	4643      	mov	r3, r8
 800043c:	1a09      	subs	r1, r1, r0
 800043e:	b2a4      	uxth	r4, r4
 8000440:	fbb1 f0f7 	udiv	r0, r1, r7
 8000444:	fb07 1110 	mls	r1, r7, r0, r1
 8000448:	ea44 4401 	orr.w	r4, r4, r1, lsl #16
 800044c:	fb0e fe00 	mul.w	lr, lr, r0
 8000450:	45a6      	cmp	lr, r4
 8000452:	d908      	bls.n	8000466 <__udivmoddi4+0x156>
 8000454:	eb1c 0404 	adds.w	r4, ip, r4
 8000458:	f100 31ff 	add.w	r1, r0, #4294967295
 800045c:	d202      	bcs.n	8000464 <__udivmoddi4+0x154>
 800045e:	45a6      	cmp	lr, r4
 8000460:	f200 80bb 	bhi.w	80005da <__udivmoddi4+0x2ca>
 8000464:	4608      	mov	r0, r1
 8000466:	eba4 040e 	sub.w	r4, r4, lr
 800046a:	ea40 4003 	orr.w	r0, r0, r3, lsl #16
 800046e:	e79c      	b.n	80003aa <__udivmoddi4+0x9a>
 8000470:	f1c6 0720 	rsb	r7, r6, #32
 8000474:	40b3      	lsls	r3, r6
 8000476:	fa22 fc07 	lsr.w	ip, r2, r7
 800047a:	ea4c 0c03 	orr.w	ip, ip, r3
 800047e:	fa20 f407 	lsr.w	r4, r0, r7
 8000482:	fa01 f306 	lsl.w	r3, r1, r6
 8000486:	431c      	orrs	r4, r3
 8000488:	40f9      	lsrs	r1, r7
 800048a:	ea4f 491c 	mov.w	r9, ip, lsr #16
 800048e:	fa00 f306 	lsl.w	r3, r0, r6
 8000492:	fbb1 f8f9 	udiv	r8, r1, r9
 8000496:	0c20      	lsrs	r0, r4, #16
 8000498:	fa1f fe8c 	uxth.w	lr, ip
 800049c:	fb09 1118 	mls	r1, r9, r8, r1
 80004a0:	ea40 4101 	orr.w	r1, r0, r1, lsl #16
 80004a4:	fb08 f00e 	mul.w	r0, r8, lr
 80004a8:	4288      	cmp	r0, r1
 80004aa:	fa02 f206 	lsl.w	r2, r2, r6
 80004ae:	d90b      	bls.n	80004c8 <__udivmoddi4+0x1b8>
 80004b0:	eb1c 0101 	adds.w	r1, ip, r1
 80004b4:	f108 3aff 	add.w	sl, r8, #4294967295
 80004b8:	f080 8088 	bcs.w	80005cc <__udivmoddi4+0x2bc>
 80004bc:	4288      	cmp	r0, r1
 80004be:	f240 8085 	bls.w	80005cc <__udivmoddi4+0x2bc>
 80004c2:	f1a8 0802 	sub.w	r8, r8, #2
 80004c6:	4461      	add	r1, ip
 80004c8:	1a09      	subs	r1, r1, r0
 80004ca:	b2a4      	uxth	r4, r4
 80004cc:	fbb1 f0f9 	udiv	r0, r1, r9
 80004d0:	fb09 1110 	mls	r1, r9, r0, r1
 80004d4:	ea44 4101 	orr.w	r1, r4, r1, lsl #16
 80004d8:	fb00 fe0e 	mul.w	lr, r0, lr
 80004dc:	458e      	cmp	lr, r1
 80004de:	d908      	bls.n	80004f2 <__udivmoddi4+0x1e2>
 80004e0:	eb1c 0101 	adds.w	r1, ip, r1
 80004e4:	f100 34ff 	add.w	r4, r0, #4294967295
 80004e8:	d26c      	bcs.n	80005c4 <__udivmoddi4+0x2b4>
 80004ea:	458e      	cmp	lr, r1
 80004ec:	d96a      	bls.n	80005c4 <__udivmoddi4+0x2b4>
 80004ee:	3802      	subs	r0, #2
 80004f0:	4461      	add	r1, ip
 80004f2:	ea40 4008 	orr.w	r0, r0, r8, lsl #16
 80004f6:	fba0 9402 	umull	r9, r4, r0, r2
 80004fa:	eba1 010e 	sub.w	r1, r1, lr
 80004fe:	42a1      	cmp	r1, r4
 8000500:	46c8      	mov	r8, r9
 8000502:	46a6      	mov	lr, r4
 8000504:	d356      	bcc.n	80005b4 <__udivmoddi4+0x2a4>
 8000506:	d053      	beq.n	80005b0 <__udivmoddi4+0x2a0>
 8000508:	b15d      	cbz	r5, 8000522 <__udivmoddi4+0x212>
 800050a:	ebb3 0208 	subs.w	r2, r3, r8
 800050e:	eb61 010e 	sbc.w	r1, r1, lr
 8000512:	fa01 f707 	lsl.w	r7, r1, r7
 8000516:	fa22 f306 	lsr.w	r3, r2, r6
 800051a:	40f1      	lsrs	r1, r6
 800051c:	431f      	orrs	r7, r3
 800051e:	e9c5 7100 	strd	r7, r1, [r5]
 8000522:	2600      	movs	r6, #0
 8000524:	4631      	mov	r1, r6
 8000526:	e8bd 87f0 	ldmia.w	sp!, {r4, r5, r6, r7, r8, r9, sl, pc}
 800052a:	f1c2 0320 	rsb	r3, r2, #32
 800052e:	40d8      	lsrs	r0, r3
 8000530:	fa0c fc02 	lsl.w	ip, ip, r2
 8000534:	fa21 f303 	lsr.w	r3, r1, r3
 8000538:	4091      	lsls	r1, r2
 800053a:	4301      	orrs	r1, r0
 800053c:	ea4f 471c 	mov.w	r7, ip, lsr #16
 8000540:	fa1f fe8c 	uxth.w	lr, ip
 8000544:	fbb3 f0f7 	udiv	r0, r3, r7
 8000548:	fb07 3610 	mls	r6, r7, r0, r3
 800054c:	0c0b      	lsrs	r3, r1, #16
 800054e:	ea43 4306 	orr.w	r3, r3, r6, lsl #16
 8000552:	fb00 f60e 	mul.w	r6, r0, lr
 8000556:	429e      	cmp	r6, r3
 8000558:	fa04 f402 	lsl.w	r4, r4, r2
 800055c:	d908      	bls.n	8000570 <__udivmoddi4+0x260>
 800055e:	eb1c 0303 	adds.w	r3, ip, r3
 8000562:	f100 38ff 	add.w	r8, r0, #4294967295
 8000566:	d22f      	bcs.n	80005c8 <__udivmoddi4+0x2b8>
 8000568:	429e      	cmp	r6, r3
 800056a:	d92d      	bls.n	80005c8 <__udivmoddi4+0x2b8>
 800056c:	3802      	subs	r0, #2
 800056e:	4463      	add	r3, ip
 8000570:	1b9b      	subs	r3, r3, r6
 8000572:	b289      	uxth	r1, r1
 8000574:	fbb3 f6f7 	udiv	r6, r3, r7
 8000578:	fb07 3316 	mls	r3, r7, r6, r3
 800057c:	ea41 4103 	orr.w	r1, r1, r3, lsl #16
 8000580:	fb06 f30e 	mul.w	r3, r6, lr
 8000584:	428b      	cmp	r3, r1
 8000586:	d908      	bls.n	800059a <__udivmoddi4+0x28a>
 8000588:	eb1c 0101 	adds.w	r1, ip, r1
 800058c:	f106 38ff 	add.w	r8, r6, #4294967295
 8000590:	d216      	bcs.n	80005c0 <__udivmoddi4+0x2b0>
 8000592:	428b      	cmp	r3, r1
 8000594:	d914      	bls.n	80005c0 <__udivmoddi4+0x2b0>
 8000596:	3e02      	subs	r6, #2
 8000598:	4461      	add	r1, ip
 800059a:	1ac9      	subs	r1, r1, r3
 800059c:	ea46 4600 	orr.w	r6, r6, r0, lsl #16
 80005a0:	e738      	b.n	8000414 <__udivmoddi4+0x104>
 80005a2:	462e      	mov	r6, r5
 80005a4:	4628      	mov	r0, r5
 80005a6:	e705      	b.n	80003b4 <__udivmoddi4+0xa4>
 80005a8:	4606      	mov	r6, r0
 80005aa:	e6e3      	b.n	8000374 <__udivmoddi4+0x64>
 80005ac:	4618      	mov	r0, r3
 80005ae:	e6f8      	b.n	80003a2 <__udivmoddi4+0x92>
 80005b0:	454b      	cmp	r3, r9
 80005b2:	d2a9      	bcs.n	8000508 <__udivmoddi4+0x1f8>
 80005b4:	ebb9 0802 	subs.w	r8, r9, r2
 80005b8:	eb64 0e0c 	sbc.w	lr, r4, ip
 80005bc:	3801      	subs	r0, #1
 80005be:	e7a3      	b.n	8000508 <__udivmoddi4+0x1f8>
 80005c0:	4646      	mov	r6, r8
 80005c2:	e7ea      	b.n	800059a <__udivmoddi4+0x28a>
 80005c4:	4620      	mov	r0, r4
 80005c6:	e794      	b.n	80004f2 <__udivmoddi4+0x1e2>
 80005c8:	4640      	mov	r0, r8
 80005ca:	e7d1      	b.n	8000570 <__udivmoddi4+0x260>
 80005cc:	46d0      	mov	r8, sl
 80005ce:	e77b      	b.n	80004c8 <__udivmoddi4+0x1b8>
 80005d0:	3b02      	subs	r3, #2
 80005d2:	4461      	add	r1, ip
 80005d4:	e732      	b.n	800043c <__udivmoddi4+0x12c>
 80005d6:	4630      	mov	r0, r6
 80005d8:	e709      	b.n	80003ee <__udivmoddi4+0xde>
 80005da:	4464      	add	r4, ip
 80005dc:	3802      	subs	r0, #2
 80005de:	e742      	b.n	8000466 <__udivmoddi4+0x156>

080005e0 <__aeabi_idiv0>:
 80005e0:	4770      	bx	lr
 80005e2:	bf00      	nop

080005e4 <SystemClock_Config>:
 80005e4:	b510      	push	{r4, lr}
 80005e6:	b094      	sub	sp, #80	; 0x50
 80005e8:	2234      	movs	r2, #52	; 0x34
 80005ea:	2100      	movs	r1, #0
 80005ec:	2402      	movs	r4, #2
 80005ee:	a807      	add	r0, sp, #28
 80005f0:	f009 fc34 	bl	8009e5c <memset>
 80005f4:	2214      	movs	r2, #20
 80005f6:	2100      	movs	r1, #0
 80005f8:	a802      	add	r0, sp, #8
 80005fa:	f009 fc2f 	bl	8009e5c <memset>
 80005fe:	f001 f947 	bl	8001890 <HAL_PWR_EnableBkUpAccess>
 8000602:	4b21      	ldr	r3, [pc, #132]	; (8000688 <SystemClock_Config+0xa4>)
 8000604:	a807      	add	r0, sp, #28
 8000606:	6c1a      	ldr	r2, [r3, #64]	; 0x40
 8000608:	f042 5280 	orr.w	r2, r2, #268435456	; 0x10000000
 800060c:	641a      	str	r2, [r3, #64]	; 0x40
 800060e:	6c1b      	ldr	r3, [r3, #64]	; 0x40
 8000610:	4a1e      	ldr	r2, [pc, #120]	; (800068c <SystemClock_Config+0xa8>)
 8000612:	f003 5380 	and.w	r3, r3, #268435456	; 0x10000000
 8000616:	9300      	str	r3, [sp, #0]
 8000618:	9b00      	ldr	r3, [sp, #0]
 800061a:	6813      	ldr	r3, [r2, #0]
 800061c:	f423 4340 	bic.w	r3, r3, #49152	; 0xc000
 8000620:	f443 4380 	orr.w	r3, r3, #16384	; 0x4000
 8000624:	6013      	str	r3, [r2, #0]
 8000626:	6813      	ldr	r3, [r2, #0]
 8000628:	2201      	movs	r2, #1
 800062a:	9413      	str	r4, [sp, #76]	; 0x4c
 800062c:	f403 4340 	and.w	r3, r3, #49152	; 0xc000
 8000630:	9301      	str	r3, [sp, #4]
 8000632:	9b01      	ldr	r3, [sp, #4]
 8000634:	f44f 23a0 	mov.w	r3, #327680	; 0x50000
 8000638:	e9cd 2307 	strd	r2, r3, [sp, #28]
 800063c:	f44f 0380 	mov.w	r3, #4194304	; 0x400000
 8000640:	2260      	movs	r2, #96	; 0x60
 8000642:	e9cd 430d 	strd	r4, r3, [sp, #52]	; 0x34
 8000646:	2304      	movs	r3, #4
 8000648:	e9cd 320f 	strd	r3, r2, [sp, #60]	; 0x3c
 800064c:	e9cd 4311 	strd	r4, r3, [sp, #68]	; 0x44
 8000650:	f001 f95e 	bl	8001910 <HAL_RCC_OscConfig>
 8000654:	b108      	cbz	r0, 800065a <SystemClock_Config+0x76>
 8000656:	b672      	cpsid	i
 8000658:	e7fe      	b.n	8000658 <SystemClock_Config+0x74>
 800065a:	f001 f921 	bl	80018a0 <HAL_PWREx_EnableOverDrive>
 800065e:	b108      	cbz	r0, 8000664 <SystemClock_Config+0x80>
 8000660:	b672      	cpsid	i
 8000662:	e7fe      	b.n	8000662 <SystemClock_Config+0x7e>
 8000664:	230f      	movs	r3, #15
 8000666:	9004      	str	r0, [sp, #16]
 8000668:	2103      	movs	r1, #3
 800066a:	e9cd 3402 	strd	r3, r4, [sp, #8]
 800066e:	f44f 5380 	mov.w	r3, #4096	; 0x1000
 8000672:	e9cd 3005 	strd	r3, r0, [sp, #20]
 8000676:	a802      	add	r0, sp, #8
 8000678:	f001 fb3e 	bl	8001cf8 <HAL_RCC_ClockConfig>
 800067c:	b108      	cbz	r0, 8000682 <SystemClock_Config+0x9e>
 800067e:	b672      	cpsid	i
 8000680:	e7fe      	b.n	8000680 <SystemClock_Config+0x9c>
 8000682:	b014      	add	sp, #80	; 0x50
 8000684:	bd10      	pop	{r4, pc}
 8000686:	bf00      	nop
 8000688:	40023800 	.word	0x40023800
 800068c:	40007000 	.word	0x40007000

08000690 <main>:
 8000690:	b500      	push	{lr}
 8000692:	b08d      	sub	sp, #52	; 0x34
 8000694:	2210      	movs	r2, #16
 8000696:	2100      	movs	r1, #0
 8000698:	a807      	add	r0, sp, #28
 800069a:	f009 fbdf 	bl	8009e5c <memset>
 800069e:	f000 faff 	bl	8000ca0 <HAL_MPU_Disable>
 80006a2:	2301      	movs	r3, #1
 80006a4:	f8df c200 	ldr.w	ip, [pc, #512]	; 80008a8 <main+0x218>
 80006a8:	a807      	add	r0, sp, #28
 80006aa:	f8ad 301c 	strh.w	r3, [sp, #28]
 80006ae:	4b74      	ldr	r3, [pc, #464]	; (8000880 <main+0x1f0>)
 80006b0:	e9cd c308 	strd	ip, r3, [sp, #32]
 80006b4:	f240 1301 	movw	r3, #257	; 0x101
 80006b8:	930a      	str	r3, [sp, #40]	; 0x28
 80006ba:	f000 fb0f 	bl	8000cdc <HAL_MPU_ConfigRegion>
 80006be:	2004      	movs	r0, #4
 80006c0:	f000 fafc 	bl	8000cbc <HAL_MPU_Enable>
 80006c4:	f3bf 8f4f 	dsb	sy
 80006c8:	f3bf 8f6f 	isb	sy
 80006cc:	4a6d      	ldr	r2, [pc, #436]	; (8000884 <main+0x1f4>)
 80006ce:	2100      	movs	r1, #0
 80006d0:	f8c2 1250 	str.w	r1, [r2, #592]	; 0x250
 80006d4:	f3bf 8f4f 	dsb	sy
 80006d8:	f3bf 8f6f 	isb	sy
 80006dc:	6953      	ldr	r3, [r2, #20]
 80006de:	f443 3300 	orr.w	r3, r3, #131072	; 0x20000
 80006e2:	6153      	str	r3, [r2, #20]
 80006e4:	f3bf 8f4f 	dsb	sy
 80006e8:	f3bf 8f6f 	isb	sy
 80006ec:	f8c2 1084 	str.w	r1, [r2, #132]	; 0x84
 80006f0:	f3bf 8f4f 	dsb	sy
 80006f4:	f8d2 3080 	ldr.w	r3, [r2, #128]	; 0x80
 80006f8:	f643 74e0 	movw	r4, #16352	; 0x3fe0
 80006fc:	f3c3 00c9 	ubfx	r0, r3, #3, #10
 8000700:	f3c3 334e 	ubfx	r3, r3, #13, #15
 8000704:	015b      	lsls	r3, r3, #5
 8000706:	ea03 0604 	and.w	r6, r3, r4
 800070a:	4601      	mov	r1, r0
 800070c:	ea46 7581 	orr.w	r5, r6, r1, lsl #30
 8000710:	3901      	subs	r1, #1
 8000712:	f8c2 5260 	str.w	r5, [r2, #608]	; 0x260
 8000716:	d2f9      	bcs.n	800070c <main+0x7c>
 8000718:	3b20      	subs	r3, #32
 800071a:	f113 0f20 	cmn.w	r3, #32
 800071e:	d1f2      	bne.n	8000706 <main+0x76>
 8000720:	f3bf 8f4f 	dsb	sy
 8000724:	6953      	ldr	r3, [r2, #20]
 8000726:	f443 3380 	orr.w	r3, r3, #65536	; 0x10000
 800072a:	6153      	str	r3, [r2, #20]
 800072c:	f3bf 8f4f 	dsb	sy
 8000730:	f3bf 8f6f 	isb	sy
 8000734:	f000 fa26 	bl	8000b84 <HAL_Init>
 8000738:	2400      	movs	r4, #0
 800073a:	f7ff ff53 	bl	80005e4 <SystemClock_Config>
 800073e:	2214      	movs	r2, #20
 8000740:	2100      	movs	r1, #0
 8000742:	a807      	add	r0, sp, #28
 8000744:	f009 fb8a 	bl	8009e5c <memset>
 8000748:	4b4f      	ldr	r3, [pc, #316]	; (8000888 <main+0x1f8>)
 800074a:	f244 0181 	movw	r1, #16513	; 0x4081
 800074e:	484f      	ldr	r0, [pc, #316]	; (800088c <main+0x1fc>)
 8000750:	6b1a      	ldr	r2, [r3, #48]	; 0x30
 8000752:	2501      	movs	r5, #1
 8000754:	4e4e      	ldr	r6, [pc, #312]	; (8000890 <main+0x200>)
 8000756:	f042 0204 	orr.w	r2, r2, #4
 800075a:	631a      	str	r2, [r3, #48]	; 0x30
 800075c:	6b1a      	ldr	r2, [r3, #48]	; 0x30
 800075e:	f002 0204 	and.w	r2, r2, #4
 8000762:	9201      	str	r2, [sp, #4]
 8000764:	9a01      	ldr	r2, [sp, #4]
 8000766:	6b1a      	ldr	r2, [r3, #48]	; 0x30
 8000768:	f042 0280 	orr.w	r2, r2, #128	; 0x80
 800076c:	631a      	str	r2, [r3, #48]	; 0x30
 800076e:	6b1a      	ldr	r2, [r3, #48]	; 0x30
 8000770:	f002 0280 	and.w	r2, r2, #128	; 0x80
 8000774:	9202      	str	r2, [sp, #8]
 8000776:	9a02      	ldr	r2, [sp, #8]
 8000778:	6b1a      	ldr	r2, [r3, #48]	; 0x30
 800077a:	f042 0201 	orr.w	r2, r2, #1
 800077e:	631a      	str	r2, [r3, #48]	; 0x30
 8000780:	6b1a      	ldr	r2, [r3, #48]	; 0x30
 8000782:	f002 0201 	and.w	r2, r2, #1
 8000786:	9203      	str	r2, [sp, #12]
 8000788:	9a03      	ldr	r2, [sp, #12]
 800078a:	6b1a      	ldr	r2, [r3, #48]	; 0x30
 800078c:	f042 0202 	orr.w	r2, r2, #2
 8000790:	631a      	str	r2, [r3, #48]	; 0x30
 8000792:	6b1a      	ldr	r2, [r3, #48]	; 0x30
 8000794:	f002 0202 	and.w	r2, r2, #2
 8000798:	9204      	str	r2, [sp, #16]
 800079a:	9a04      	ldr	r2, [sp, #16]
 800079c:	6b1a      	ldr	r2, [r3, #48]	; 0x30
 800079e:	f042 0208 	orr.w	r2, r2, #8
 80007a2:	631a      	str	r2, [r3, #48]	; 0x30
 80007a4:	6b1a      	ldr	r2, [r3, #48]	; 0x30
 80007a6:	f002 0208 	and.w	r2, r2, #8
 80007aa:	9205      	str	r2, [sp, #20]
 80007ac:	9a05      	ldr	r2, [sp, #20]
 80007ae:	6b1a      	ldr	r2, [r3, #48]	; 0x30
 80007b0:	f042 0240 	orr.w	r2, r2, #64	; 0x40
 80007b4:	631a      	str	r2, [r3, #48]	; 0x30
 80007b6:	2200      	movs	r2, #0
 80007b8:	6b1b      	ldr	r3, [r3, #48]	; 0x30
 80007ba:	f003 0340 	and.w	r3, r3, #64	; 0x40
 80007be:	9306      	str	r3, [sp, #24]
 80007c0:	9b06      	ldr	r3, [sp, #24]
 80007c2:	f000 ffc3 	bl	800174c <HAL_GPIO_WritePin>
 80007c6:	2200      	movs	r2, #0
 80007c8:	2140      	movs	r1, #64	; 0x40
 80007ca:	4832      	ldr	r0, [pc, #200]	; (8000894 <main+0x204>)
 80007cc:	f000 ffbe 	bl	800174c <HAL_GPIO_WritePin>
 80007d0:	f44f 1388 	mov.w	r3, #1114112	; 0x110000
 80007d4:	f44f 5000 	mov.w	r0, #8192	; 0x2000
 80007d8:	a907      	add	r1, sp, #28
 80007da:	9409      	str	r4, [sp, #36]	; 0x24
 80007dc:	e9cd 0307 	strd	r0, r3, [sp, #28]
 80007e0:	482d      	ldr	r0, [pc, #180]	; (8000898 <main+0x208>)
 80007e2:	f000 fecf 	bl	8001584 <HAL_GPIO_Init>
 80007e6:	f244 0381 	movw	r3, #16513	; 0x4081
 80007ea:	a907      	add	r1, sp, #28
 80007ec:	4827      	ldr	r0, [pc, #156]	; (800088c <main+0x1fc>)
 80007ee:	e9cd 3507 	strd	r3, r5, [sp, #28]
 80007f2:	e9cd 4409 	strd	r4, r4, [sp, #36]	; 0x24
 80007f6:	f000 fec5 	bl	8001584 <HAL_GPIO_Init>
 80007fa:	2340      	movs	r3, #64	; 0x40
 80007fc:	a907      	add	r1, sp, #28
 80007fe:	4825      	ldr	r0, [pc, #148]	; (8000894 <main+0x204>)
 8000800:	e9cd 3507 	strd	r3, r5, [sp, #28]
 8000804:	e9cd 4409 	strd	r4, r4, [sp, #36]	; 0x24
 8000808:	f000 febc 	bl	8001584 <HAL_GPIO_Init>
 800080c:	2380      	movs	r3, #128	; 0x80
 800080e:	a907      	add	r1, sp, #28
 8000810:	4820      	ldr	r0, [pc, #128]	; (8000894 <main+0x204>)
 8000812:	9409      	str	r4, [sp, #36]	; 0x24
 8000814:	e9cd 3407 	strd	r3, r4, [sp, #28]
 8000818:	f000 feb4 	bl	8001584 <HAL_GPIO_Init>
 800081c:	481f      	ldr	r0, [pc, #124]	; (800089c <main+0x20c>)
 800081e:	f44f 33e1 	mov.w	r3, #115200	; 0x1c200
 8000822:	6104      	str	r4, [r0, #16]
 8000824:	6244      	str	r4, [r0, #36]	; 0x24
 8000826:	e9c0 6300 	strd	r6, r3, [r0]
 800082a:	230c      	movs	r3, #12
 800082c:	e9c0 4402 	strd	r4, r4, [r0, #8]
 8000830:	e9c0 3405 	strd	r3, r4, [r0, #20]
 8000834:	e9c0 4407 	strd	r4, r4, [r0, #28]
 8000838:	f001 fff8 	bl	800282c <HAL_UART_Init>
 800083c:	4603      	mov	r3, r0
 800083e:	b108      	cbz	r0, 8000844 <main+0x1b4>
 8000840:	b672      	cpsid	i
 8000842:	e7fe      	b.n	8000842 <main+0x1b2>
 8000844:	4816      	ldr	r0, [pc, #88]	; (80008a0 <main+0x210>)
 8000846:	2206      	movs	r2, #6
 8000848:	f04f 41a0 	mov.w	r1, #1342177280	; 0x50000000
 800084c:	e9c0 1200 	strd	r1, r2, [r0]
 8000850:	2202      	movs	r2, #2
 8000852:	e9c0 3308 	strd	r3, r3, [r0, #32]
 8000856:	e9c0 2303 	strd	r2, r3, [r0, #12]
 800085a:	e9c0 2506 	strd	r2, r5, [r0, #24]
 800085e:	e9c0 530b 	strd	r5, r3, [r0, #44]	; 0x2c
 8000862:	f000 ff78 	bl	8001756 <HAL_PCD_Init>
 8000866:	b108      	cbz	r0, 800086c <main+0x1dc>
 8000868:	b672      	cpsid	i
 800086a:	e7fe      	b.n	800086a <main+0x1da>
 800086c:	4c0d      	ldr	r4, [pc, #52]	; (80008a4 <main+0x214>)
 800086e:	f002 f9b1 	bl	8002bd4 <MX_LWIP_Init>
 8000872:	4620      	mov	r0, r4
 8000874:	f002 fabc 	bl	8002df0 <ethernetif_input>
 8000878:	f006 fc7c 	bl	8007174 <sys_check_timeouts>
 800087c:	e7f9      	b.n	8000872 <main+0x1e2>
 800087e:	bf00      	nop
 8000880:	0301000d 	.word	0x0301000d
 8000884:	e000ed00 	.word	0xe000ed00
 8000888:	40023800 	.word	0x40023800
 800088c:	40020400 	.word	0x40020400
 8000890:	40004800 	.word	0x40004800
 8000894:	40021800 	.word	0x40021800
 8000898:	40020800 	.word	0x40020800
 800089c:	20000498 	.word	0x20000498
 80008a0:	20000094 	.word	0x20000094
 80008a4:	20000524 	.word	0x20000524
 80008a8:	20020000 	.word	0x20020000

080008ac <Error_Handler>:
 80008ac:	b672      	cpsid	i
 80008ae:	e7fe      	b.n	80008ae <Error_Handler+0x2>

080008b0 <HAL_MspInit>:
 80008b0:	4b0a      	ldr	r3, [pc, #40]	; (80008dc <HAL_MspInit+0x2c>)
 80008b2:	b082      	sub	sp, #8
 80008b4:	6c1a      	ldr	r2, [r3, #64]	; 0x40
 80008b6:	f042 5280 	orr.w	r2, r2, #268435456	; 0x10000000
 80008ba:	641a      	str	r2, [r3, #64]	; 0x40
 80008bc:	6c1a      	ldr	r2, [r3, #64]	; 0x40
 80008be:	f002 5280 	and.w	r2, r2, #268435456	; 0x10000000
 80008c2:	9200      	str	r2, [sp, #0]
 80008c4:	9a00      	ldr	r2, [sp, #0]
 80008c6:	6c5a      	ldr	r2, [r3, #68]	; 0x44
 80008c8:	f442 4280 	orr.w	r2, r2, #16384	; 0x4000
 80008cc:	645a      	str	r2, [r3, #68]	; 0x44
 80008ce:	6c5b      	ldr	r3, [r3, #68]	; 0x44
 80008d0:	f403 4380 	and.w	r3, r3, #16384	; 0x4000
 80008d4:	9301      	str	r3, [sp, #4]
 80008d6:	9b01      	ldr	r3, [sp, #4]
 80008d8:	b002      	add	sp, #8
 80008da:	4770      	bx	lr
 80008dc:	40023800 	.word	0x40023800

080008e0 <HAL_UART_MspInit>:
 80008e0:	b510      	push	{r4, lr}
 80008e2:	b0ac      	sub	sp, #176	; 0xb0
 80008e4:	4604      	mov	r4, r0
 80008e6:	2214      	movs	r2, #20
 80008e8:	2100      	movs	r1, #0
 80008ea:	a803      	add	r0, sp, #12
 80008ec:	f009 fab6 	bl	8009e5c <memset>
 80008f0:	2290      	movs	r2, #144	; 0x90
 80008f2:	2100      	movs	r1, #0
 80008f4:	a808      	add	r0, sp, #32
 80008f6:	f009 fab1 	bl	8009e5c <memset>
 80008fa:	6822      	ldr	r2, [r4, #0]
 80008fc:	4b17      	ldr	r3, [pc, #92]	; (800095c <HAL_UART_MspInit+0x7c>)
 80008fe:	429a      	cmp	r2, r3
 8000900:	d12a      	bne.n	8000958 <HAL_UART_MspInit+0x78>
 8000902:	f44f 7380 	mov.w	r3, #256	; 0x100
 8000906:	a808      	add	r0, sp, #32
 8000908:	9308      	str	r3, [sp, #32]
 800090a:	f001 fabb 	bl	8001e84 <HAL_RCCEx_PeriphCLKConfig>
 800090e:	b108      	cbz	r0, 8000914 <HAL_UART_MspInit+0x34>
 8000910:	f7ff ffcc 	bl	80008ac <Error_Handler>
 8000914:	4b12      	ldr	r3, [pc, #72]	; (8000960 <HAL_UART_MspInit+0x80>)
 8000916:	2100      	movs	r1, #0
 8000918:	4812      	ldr	r0, [pc, #72]	; (8000964 <HAL_UART_MspInit+0x84>)
 800091a:	6c1a      	ldr	r2, [r3, #64]	; 0x40
 800091c:	f442 2280 	orr.w	r2, r2, #262144	; 0x40000
 8000920:	641a      	str	r2, [r3, #64]	; 0x40
 8000922:	6c1a      	ldr	r2, [r3, #64]	; 0x40
 8000924:	f402 2280 	and.w	r2, r2, #262144	; 0x40000
 8000928:	9201      	str	r2, [sp, #4]
 800092a:	9a01      	ldr	r2, [sp, #4]
 800092c:	6b1a      	ldr	r2, [r3, #48]	; 0x30
 800092e:	f042 0208 	orr.w	r2, r2, #8
 8000932:	631a      	str	r2, [r3, #48]	; 0x30
 8000934:	f44f 7240 	mov.w	r2, #768	; 0x300
 8000938:	6b1b      	ldr	r3, [r3, #48]	; 0x30
 800093a:	f003 0308 	and.w	r3, r3, #8
 800093e:	9302      	str	r3, [sp, #8]
 8000940:	9b02      	ldr	r3, [sp, #8]
 8000942:	2302      	movs	r3, #2
 8000944:	e9cd 2303 	strd	r2, r3, [sp, #12]
 8000948:	2303      	movs	r3, #3
 800094a:	e9cd 1305 	strd	r1, r3, [sp, #20]
 800094e:	2307      	movs	r3, #7
 8000950:	a903      	add	r1, sp, #12
 8000952:	9307      	str	r3, [sp, #28]
 8000954:	f000 fe16 	bl	8001584 <HAL_GPIO_Init>
 8000958:	b02c      	add	sp, #176	; 0xb0
 800095a:	bd10      	pop	{r4, pc}
 800095c:	40004800 	.word	0x40004800
 8000960:	40023800 	.word	0x40023800
 8000964:	40020c00 	.word	0x40020c00

08000968 <HAL_PCD_MspInit>:
 8000968:	b530      	push	{r4, r5, lr}
 800096a:	b0ad      	sub	sp, #180	; 0xb4
 800096c:	4604      	mov	r4, r0
 800096e:	2214      	movs	r2, #20
 8000970:	2100      	movs	r1, #0
 8000972:	a803      	add	r0, sp, #12
 8000974:	f009 fa72 	bl	8009e5c <memset>
 8000978:	2290      	movs	r2, #144	; 0x90
 800097a:	2100      	movs	r1, #0
 800097c:	a808      	add	r0, sp, #32
 800097e:	f009 fa6d 	bl	8009e5c <memset>
 8000982:	6823      	ldr	r3, [r4, #0]
 8000984:	f1b3 4fa0 	cmp.w	r3, #1342177280	; 0x50000000
 8000988:	d13c      	bne.n	8000a04 <HAL_PCD_MspInit+0x9c>
 800098a:	f44f 1300 	mov.w	r3, #2097152	; 0x200000
 800098e:	a808      	add	r0, sp, #32
 8000990:	9308      	str	r3, [sp, #32]
 8000992:	f001 fa77 	bl	8001e84 <HAL_RCCEx_PeriphCLKConfig>
 8000996:	b108      	cbz	r0, 800099c <HAL_PCD_MspInit+0x34>
 8000998:	f7ff ff88 	bl	80008ac <Error_Handler>
 800099c:	4c1a      	ldr	r4, [pc, #104]	; (8000a08 <HAL_PCD_MspInit+0xa0>)
 800099e:	f44f 52e8 	mov.w	r2, #7424	; 0x1d00
 80009a2:	2500      	movs	r5, #0
 80009a4:	a903      	add	r1, sp, #12
 80009a6:	6b23      	ldr	r3, [r4, #48]	; 0x30
 80009a8:	4818      	ldr	r0, [pc, #96]	; (8000a0c <HAL_PCD_MspInit+0xa4>)
 80009aa:	f043 0301 	orr.w	r3, r3, #1
 80009ae:	6323      	str	r3, [r4, #48]	; 0x30
 80009b0:	6b23      	ldr	r3, [r4, #48]	; 0x30
 80009b2:	f003 0301 	and.w	r3, r3, #1
 80009b6:	9300      	str	r3, [sp, #0]
 80009b8:	9b00      	ldr	r3, [sp, #0]
 80009ba:	2302      	movs	r3, #2
 80009bc:	e9cd 2303 	strd	r2, r3, [sp, #12]
 80009c0:	2303      	movs	r3, #3
 80009c2:	e9cd 5305 	strd	r5, r3, [sp, #20]
 80009c6:	230a      	movs	r3, #10
 80009c8:	9307      	str	r3, [sp, #28]
 80009ca:	f000 fddb 	bl	8001584 <HAL_GPIO_Init>
 80009ce:	f44f 7300 	mov.w	r3, #512	; 0x200
 80009d2:	a903      	add	r1, sp, #12
 80009d4:	480d      	ldr	r0, [pc, #52]	; (8000a0c <HAL_PCD_MspInit+0xa4>)
 80009d6:	9505      	str	r5, [sp, #20]
 80009d8:	e9cd 3503 	strd	r3, r5, [sp, #12]
 80009dc:	f000 fdd2 	bl	8001584 <HAL_GPIO_Init>
 80009e0:	6b63      	ldr	r3, [r4, #52]	; 0x34
 80009e2:	f043 0380 	orr.w	r3, r3, #128	; 0x80
 80009e6:	6363      	str	r3, [r4, #52]	; 0x34
 80009e8:	6b63      	ldr	r3, [r4, #52]	; 0x34
 80009ea:	f003 0380 	and.w	r3, r3, #128	; 0x80
 80009ee:	9301      	str	r3, [sp, #4]
 80009f0:	9b01      	ldr	r3, [sp, #4]
 80009f2:	6c63      	ldr	r3, [r4, #68]	; 0x44
 80009f4:	f443 4380 	orr.w	r3, r3, #16384	; 0x4000
 80009f8:	6463      	str	r3, [r4, #68]	; 0x44
 80009fa:	6c63      	ldr	r3, [r4, #68]	; 0x44
 80009fc:	f403 4380 	and.w	r3, r3, #16384	; 0x4000
 8000a00:	9302      	str	r3, [sp, #8]
 8000a02:	9b02      	ldr	r3, [sp, #8]
 8000a04:	b02d      	add	sp, #180	; 0xb4
 8000a06:	bd30      	pop	{r4, r5, pc}
 8000a08:	40023800 	.word	0x40023800
 8000a0c:	40020000 	.word	0x40020000

08000a10 <NMI_Handler>:
 8000a10:	e7fe      	b.n	8000a10 <NMI_Handler>

08000a12 <HardFault_Handler>:
 8000a12:	e7fe      	b.n	8000a12 <HardFault_Handler>

08000a14 <MemManage_Handler>:
 8000a14:	e7fe      	b.n	8000a14 <MemManage_Handler>

08000a16 <BusFault_Handler>:
 8000a16:	e7fe      	b.n	8000a16 <BusFault_Handler>

08000a18 <UsageFault_Handler>:
 8000a18:	e7fe      	b.n	8000a18 <UsageFault_Handler>

08000a1a <SVC_Handler>:
 8000a1a:	4770      	bx	lr

08000a1c <DebugMon_Handler>:
 8000a1c:	4770      	bx	lr

08000a1e <PendSV_Handler>:
 8000a1e:	4770      	bx	lr

08000a20 <SysTick_Handler>:
 8000a20:	f000 b8c2 	b.w	8000ba8 <HAL_IncTick>

08000a24 <_getpid>:
 8000a24:	2001      	movs	r0, #1
 8000a26:	4770      	bx	lr

08000a28 <_kill>:
 8000a28:	4b02      	ldr	r3, [pc, #8]	; (8000a34 <_kill+0xc>)
 8000a2a:	2216      	movs	r2, #22
 8000a2c:	f04f 30ff 	mov.w	r0, #4294967295
 8000a30:	601a      	str	r2, [r3, #0]
 8000a32:	4770      	bx	lr
 8000a34:	20005e94 	.word	0x20005e94

08000a38 <_exit>:
 8000a38:	4b01      	ldr	r3, [pc, #4]	; (8000a40 <_exit+0x8>)
 8000a3a:	2216      	movs	r2, #22
 8000a3c:	601a      	str	r2, [r3, #0]
 8000a3e:	e7fe      	b.n	8000a3e <_exit+0x6>
 8000a40:	20005e94 	.word	0x20005e94

08000a44 <_read>:
 8000a44:	b570      	push	{r4, r5, r6, lr}
 8000a46:	460d      	mov	r5, r1
 8000a48:	4614      	mov	r4, r2
 8000a4a:	460e      	mov	r6, r1
 8000a4c:	1b73      	subs	r3, r6, r5
 8000a4e:	429c      	cmp	r4, r3
 8000a50:	dc01      	bgt.n	8000a56 <_read+0x12>
 8000a52:	4620      	mov	r0, r4
 8000a54:	bd70      	pop	{r4, r5, r6, pc}
 8000a56:	f3af 8000 	nop.w
 8000a5a:	f806 0b01 	strb.w	r0, [r6], #1
 8000a5e:	e7f5      	b.n	8000a4c <_read+0x8>

08000a60 <_write>:
 8000a60:	b570      	push	{r4, r5, r6, lr}
 8000a62:	460d      	mov	r5, r1
 8000a64:	4614      	mov	r4, r2
 8000a66:	460e      	mov	r6, r1
 8000a68:	1b73      	subs	r3, r6, r5
 8000a6a:	429c      	cmp	r4, r3
 8000a6c:	dc01      	bgt.n	8000a72 <_write+0x12>
 8000a6e:	4620      	mov	r0, r4
 8000a70:	bd70      	pop	{r4, r5, r6, pc}
 8000a72:	f816 0b01 	ldrb.w	r0, [r6], #1
 8000a76:	f3af 8000 	nop.w
 8000a7a:	e7f5      	b.n	8000a68 <_write+0x8>

08000a7c <_close>:
 8000a7c:	f04f 30ff 	mov.w	r0, #4294967295
 8000a80:	4770      	bx	lr

08000a82 <_fstat>:
 8000a82:	f44f 5300 	mov.w	r3, #8192	; 0x2000
 8000a86:	2000      	movs	r0, #0
 8000a88:	604b      	str	r3, [r1, #4]
 8000a8a:	4770      	bx	lr

08000a8c <_isatty>:
 8000a8c:	2001      	movs	r0, #1
 8000a8e:	4770      	bx	lr

08000a90 <_lseek>:
 8000a90:	2000      	movs	r0, #0
 8000a92:	4770      	bx	lr

08000a94 <_sbrk>:
 8000a94:	4a0a      	ldr	r2, [pc, #40]	; (8000ac0 <_sbrk+0x2c>)
 8000a96:	4603      	mov	r3, r0
 8000a98:	6811      	ldr	r1, [r2, #0]
 8000a9a:	b510      	push	{r4, lr}
 8000a9c:	b909      	cbnz	r1, 8000aa2 <_sbrk+0xe>
 8000a9e:	4909      	ldr	r1, [pc, #36]	; (8000ac4 <_sbrk+0x30>)
 8000aa0:	6011      	str	r1, [r2, #0]
 8000aa2:	6810      	ldr	r0, [r2, #0]
 8000aa4:	4c08      	ldr	r4, [pc, #32]	; (8000ac8 <_sbrk+0x34>)
 8000aa6:	4909      	ldr	r1, [pc, #36]	; (8000acc <_sbrk+0x38>)
 8000aa8:	4403      	add	r3, r0
 8000aaa:	1b09      	subs	r1, r1, r4
 8000aac:	428b      	cmp	r3, r1
 8000aae:	bf83      	ittte	hi
 8000ab0:	4b07      	ldrhi	r3, [pc, #28]	; (8000ad0 <_sbrk+0x3c>)
 8000ab2:	220c      	movhi	r2, #12
 8000ab4:	f04f 30ff 	movhi.w	r0, #4294967295
 8000ab8:	6013      	strls	r3, [r2, #0]
 8000aba:	bf88      	it	hi
 8000abc:	601a      	strhi	r2, [r3, #0]
 8000abe:	bd10      	pop	{r4, pc}
 8000ac0:	2000051c 	.word	0x2000051c
 8000ac4:	20005ea8 	.word	0x20005ea8
 8000ac8:	00000400 	.word	0x00000400
 8000acc:	20080000 	.word	0x20080000
 8000ad0:	20005e94 	.word	0x20005e94

08000ad4 <SystemInit>:
 8000ad4:	4a03      	ldr	r2, [pc, #12]	; (8000ae4 <SystemInit+0x10>)
 8000ad6:	f8d2 3088 	ldr.w	r3, [r2, #136]	; 0x88
 8000ada:	f443 0370 	orr.w	r3, r3, #15728640	; 0xf00000
 8000ade:	f8c2 3088 	str.w	r3, [r2, #136]	; 0x88
 8000ae2:	4770      	bx	lr
 8000ae4:	e000ed00 	.word	0xe000ed00

08000ae8 <Reset_Handler>:
 8000ae8:	f8df d034 	ldr.w	sp, [pc, #52]	; 8000b20 <LoopFillZerobss+0x12>
 8000aec:	480d      	ldr	r0, [pc, #52]	; (8000b24 <LoopFillZerobss+0x16>)
 8000aee:	490e      	ldr	r1, [pc, #56]	; (8000b28 <LoopFillZerobss+0x1a>)
 8000af0:	4a0e      	ldr	r2, [pc, #56]	; (8000b2c <LoopFillZerobss+0x1e>)
 8000af2:	2300      	movs	r3, #0
 8000af4:	e002      	b.n	8000afc <LoopCopyDataInit>

08000af6 <CopyDataInit>:
 8000af6:	58d4      	ldr	r4, [r2, r3]
 8000af8:	50c4      	str	r4, [r0, r3]
 8000afa:	3304      	adds	r3, #4

08000afc <LoopCopyDataInit>:
 8000afc:	18c4      	adds	r4, r0, r3
 8000afe:	428c      	cmp	r4, r1
 8000b00:	d3f9      	bcc.n	8000af6 <CopyDataInit>
 8000b02:	4a0b      	ldr	r2, [pc, #44]	; (8000b30 <LoopFillZerobss+0x22>)
 8000b04:	4c0b      	ldr	r4, [pc, #44]	; (8000b34 <LoopFillZerobss+0x26>)
 8000b06:	2300      	movs	r3, #0
 8000b08:	e001      	b.n	8000b0e <LoopFillZerobss>

08000b0a <FillZerobss>:
 8000b0a:	6013      	str	r3, [r2, #0]
 8000b0c:	3204      	adds	r2, #4

08000b0e <LoopFillZerobss>:
 8000b0e:	42a2      	cmp	r2, r4
 8000b10:	d3fb      	bcc.n	8000b0a <FillZerobss>
 8000b12:	f7ff ffdf 	bl	8000ad4 <SystemInit>
 8000b16:	f009 f95f 	bl	8009dd8 <__libc_init_array>
 8000b1a:	f7ff fdb9 	bl	8000690 <main>
 8000b1e:	4770      	bx	lr
 8000b20:	20080000 	.word	0x20080000
 8000b24:	20000000 	.word	0x20000000
 8000b28:	20000078 	.word	0x20000078
 8000b2c:	0800cff0 	.word	0x0800cff0
 8000b30:	20000078 	.word	0x20000078
 8000b34:	20005ea4 	.word	0x20005ea4

08000b38 <ADC_IRQHandler>:
 8000b38:	e7fe      	b.n	8000b38 <ADC_IRQHandler>
	...

08000b3c <HAL_InitTick>:
 8000b3c:	b538      	push	{r3, r4, r5, lr}
 8000b3e:	4b0e      	ldr	r3, [pc, #56]	; (8000b78 <HAL_InitTick+0x3c>)
 8000b40:	4605      	mov	r5, r0
 8000b42:	4a0e      	ldr	r2, [pc, #56]	; (8000b7c <HAL_InitTick+0x40>)
 8000b44:	7818      	ldrb	r0, [r3, #0]
 8000b46:	f44f 737a 	mov.w	r3, #1000	; 0x3e8
 8000b4a:	fbb3 f3f0 	udiv	r3, r3, r0
 8000b4e:	6810      	ldr	r0, [r2, #0]
 8000b50:	fbb0 f0f3 	udiv	r0, r0, r3
 8000b54:	f000 f890 	bl	8000c78 <HAL_SYSTICK_Config>
 8000b58:	4604      	mov	r4, r0
 8000b5a:	b958      	cbnz	r0, 8000b74 <HAL_InitTick+0x38>
 8000b5c:	2d0f      	cmp	r5, #15
 8000b5e:	d809      	bhi.n	8000b74 <HAL_InitTick+0x38>
 8000b60:	4602      	mov	r2, r0
 8000b62:	4629      	mov	r1, r5
 8000b64:	f04f 30ff 	mov.w	r0, #4294967295
 8000b68:	f000 f854 	bl	8000c14 <HAL_NVIC_SetPriority>
 8000b6c:	4b04      	ldr	r3, [pc, #16]	; (8000b80 <HAL_InitTick+0x44>)
 8000b6e:	4620      	mov	r0, r4
 8000b70:	601d      	str	r5, [r3, #0]
 8000b72:	bd38      	pop	{r3, r4, r5, pc}
 8000b74:	2001      	movs	r0, #1
 8000b76:	e7fc      	b.n	8000b72 <HAL_InitTick+0x36>
 8000b78:	20000004 	.word	0x20000004
 8000b7c:	20000000 	.word	0x20000000
 8000b80:	20000008 	.word	0x20000008

08000b84 <HAL_Init>:
 8000b84:	4a07      	ldr	r2, [pc, #28]	; (8000ba4 <HAL_Init+0x20>)
 8000b86:	2003      	movs	r0, #3
 8000b88:	b508      	push	{r3, lr}
 8000b8a:	6813      	ldr	r3, [r2, #0]
 8000b8c:	f443 7380 	orr.w	r3, r3, #256	; 0x100
 8000b90:	6013      	str	r3, [r2, #0]
 8000b92:	f000 f82d 	bl	8000bf0 <HAL_NVIC_SetPriorityGrouping>
 8000b96:	2000      	movs	r0, #0
 8000b98:	f7ff ffd0 	bl	8000b3c <HAL_InitTick>
 8000b9c:	f7ff fe88 	bl	80008b0 <HAL_MspInit>
 8000ba0:	2000      	movs	r0, #0
 8000ba2:	bd08      	pop	{r3, pc}
 8000ba4:	40023c00 	.word	0x40023c00

08000ba8 <HAL_IncTick>:
 8000ba8:	4a03      	ldr	r2, [pc, #12]	; (8000bb8 <HAL_IncTick+0x10>)
 8000baa:	4b04      	ldr	r3, [pc, #16]	; (8000bbc <HAL_IncTick+0x14>)
 8000bac:	6811      	ldr	r1, [r2, #0]
 8000bae:	781b      	ldrb	r3, [r3, #0]
 8000bb0:	440b      	add	r3, r1
 8000bb2:	6013      	str	r3, [r2, #0]
 8000bb4:	4770      	bx	lr
 8000bb6:	bf00      	nop
 8000bb8:	20000520 	.word	0x20000520
 8000bbc:	20000004 	.word	0x20000004

08000bc0 <HAL_GetTick>:
 8000bc0:	4b01      	ldr	r3, [pc, #4]	; (8000bc8 <HAL_GetTick+0x8>)
 8000bc2:	6818      	ldr	r0, [r3, #0]
 8000bc4:	4770      	bx	lr
 8000bc6:	bf00      	nop
 8000bc8:	20000520 	.word	0x20000520

08000bcc <HAL_Delay>:
 8000bcc:	b538      	push	{r3, r4, r5, lr}
 8000bce:	4604      	mov	r4, r0
 8000bd0:	f7ff fff6 	bl	8000bc0 <HAL_GetTick>
 8000bd4:	4605      	mov	r5, r0
 8000bd6:	1c63      	adds	r3, r4, #1
 8000bd8:	bf1e      	ittt	ne
 8000bda:	4b04      	ldrne	r3, [pc, #16]	; (8000bec <HAL_Delay+0x20>)
 8000bdc:	781b      	ldrbne	r3, [r3, #0]
 8000bde:	18e4      	addne	r4, r4, r3
 8000be0:	f7ff ffee 	bl	8000bc0 <HAL_GetTick>
 8000be4:	1b43      	subs	r3, r0, r5
 8000be6:	42a3      	cmp	r3, r4
 8000be8:	d3fa      	bcc.n	8000be0 <HAL_Delay+0x14>
 8000bea:	bd38      	pop	{r3, r4, r5, pc}
 8000bec:	20000004 	.word	0x20000004

08000bf0 <HAL_NVIC_SetPriorityGrouping>:
 8000bf0:	4907      	ldr	r1, [pc, #28]	; (8000c10 <HAL_NVIC_SetPriorityGrouping+0x20>)
 8000bf2:	0203      	lsls	r3, r0, #8
 8000bf4:	68ca      	ldr	r2, [r1, #12]
 8000bf6:	f403 63e0 	and.w	r3, r3, #1792	; 0x700
 8000bfa:	f422 62e0 	bic.w	r2, r2, #1792	; 0x700
 8000bfe:	0412      	lsls	r2, r2, #16
 8000c00:	0c12      	lsrs	r2, r2, #16
 8000c02:	4313      	orrs	r3, r2
 8000c04:	f043 63bf 	orr.w	r3, r3, #100139008	; 0x5f80000
 8000c08:	f443 3300 	orr.w	r3, r3, #131072	; 0x20000
 8000c0c:	60cb      	str	r3, [r1, #12]
 8000c0e:	4770      	bx	lr
 8000c10:	e000ed00 	.word	0xe000ed00

08000c14 <HAL_NVIC_SetPriority>:
 8000c14:	4b16      	ldr	r3, [pc, #88]	; (8000c70 <HAL_NVIC_SetPriority+0x5c>)
 8000c16:	b530      	push	{r4, r5, lr}
 8000c18:	68dc      	ldr	r4, [r3, #12]
 8000c1a:	f3c4 2402 	ubfx	r4, r4, #8, #3
 8000c1e:	f1c4 0507 	rsb	r5, r4, #7
 8000c22:	1d23      	adds	r3, r4, #4
 8000c24:	2d04      	cmp	r5, #4
 8000c26:	bf28      	it	cs
 8000c28:	2504      	movcs	r5, #4
 8000c2a:	2b06      	cmp	r3, #6
 8000c2c:	f04f 33ff 	mov.w	r3, #4294967295
 8000c30:	bf8c      	ite	hi
 8000c32:	3c03      	subhi	r4, #3
 8000c34:	2400      	movls	r4, #0
 8000c36:	fa03 f505 	lsl.w	r5, r3, r5
 8000c3a:	2800      	cmp	r0, #0
 8000c3c:	fa03 f304 	lsl.w	r3, r3, r4
 8000c40:	ea21 0105 	bic.w	r1, r1, r5
 8000c44:	ea22 0203 	bic.w	r2, r2, r3
 8000c48:	fa01 f104 	lsl.w	r1, r1, r4
 8000c4c:	ea41 0302 	orr.w	r3, r1, r2
 8000c50:	ea4f 1303 	mov.w	r3, r3, lsl #4
 8000c54:	b2db      	uxtb	r3, r3
 8000c56:	db06      	blt.n	8000c66 <HAL_NVIC_SetPriority+0x52>
 8000c58:	f100 4060 	add.w	r0, r0, #3758096384	; 0xe0000000
 8000c5c:	f500 4061 	add.w	r0, r0, #57600	; 0xe100
 8000c60:	f880 3300 	strb.w	r3, [r0, #768]	; 0x300
 8000c64:	bd30      	pop	{r4, r5, pc}
 8000c66:	f000 000f 	and.w	r0, r0, #15
 8000c6a:	4a02      	ldr	r2, [pc, #8]	; (8000c74 <HAL_NVIC_SetPriority+0x60>)
 8000c6c:	5413      	strb	r3, [r2, r0]
 8000c6e:	e7f9      	b.n	8000c64 <HAL_NVIC_SetPriority+0x50>
 8000c70:	e000ed00 	.word	0xe000ed00
 8000c74:	e000ed14 	.word	0xe000ed14

08000c78 <HAL_SYSTICK_Config>:
 8000c78:	3801      	subs	r0, #1
 8000c7a:	f1b0 7f80 	cmp.w	r0, #16777216	; 0x1000000
 8000c7e:	d20b      	bcs.n	8000c98 <HAL_SYSTICK_Config+0x20>
 8000c80:	f04f 23e0 	mov.w	r3, #3758153728	; 0xe000e000
 8000c84:	4a05      	ldr	r2, [pc, #20]	; (8000c9c <HAL_SYSTICK_Config+0x24>)
 8000c86:	21f0      	movs	r1, #240	; 0xf0
 8000c88:	6158      	str	r0, [r3, #20]
 8000c8a:	2000      	movs	r0, #0
 8000c8c:	f882 1023 	strb.w	r1, [r2, #35]	; 0x23
 8000c90:	2207      	movs	r2, #7
 8000c92:	6198      	str	r0, [r3, #24]
 8000c94:	611a      	str	r2, [r3, #16]
 8000c96:	4770      	bx	lr
 8000c98:	2001      	movs	r0, #1
 8000c9a:	4770      	bx	lr
 8000c9c:	e000ed00 	.word	0xe000ed00

08000ca0 <HAL_MPU_Disable>:
 8000ca0:	f3bf 8f5f 	dmb	sy
 8000ca4:	4b04      	ldr	r3, [pc, #16]	; (8000cb8 <HAL_MPU_Disable+0x18>)
 8000ca6:	6a5a      	ldr	r2, [r3, #36]	; 0x24
 8000ca8:	f422 3280 	bic.w	r2, r2, #65536	; 0x10000
 8000cac:	625a      	str	r2, [r3, #36]	; 0x24
 8000cae:	2200      	movs	r2, #0
 8000cb0:	f8c3 2094 	str.w	r2, [r3, #148]	; 0x94
 8000cb4:	4770      	bx	lr
 8000cb6:	bf00      	nop
 8000cb8:	e000ed00 	.word	0xe000ed00

08000cbc <HAL_MPU_Enable>:
 8000cbc:	4b06      	ldr	r3, [pc, #24]	; (8000cd8 <HAL_MPU_Enable+0x1c>)
 8000cbe:	f040 0001 	orr.w	r0, r0, #1
 8000cc2:	f8c3 0094 	str.w	r0, [r3, #148]	; 0x94
 8000cc6:	6a5a      	ldr	r2, [r3, #36]	; 0x24
 8000cc8:	f442 3280 	orr.w	r2, r2, #65536	; 0x10000
 8000ccc:	625a      	str	r2, [r3, #36]	; 0x24
 8000cce:	f3bf 8f4f 	dsb	sy
 8000cd2:	f3bf 8f6f 	isb	sy
 8000cd6:	4770      	bx	lr
 8000cd8:	e000ed00 	.word	0xe000ed00

08000cdc <HAL_MPU_ConfigRegion>:
 8000cdc:	7843      	ldrb	r3, [r0, #1]
 8000cde:	4a14      	ldr	r2, [pc, #80]	; (8000d30 <HAL_MPU_ConfigRegion+0x54>)
 8000ce0:	b510      	push	{r4, lr}
 8000ce2:	f8c2 3098 	str.w	r3, [r2, #152]	; 0x98
 8000ce6:	7801      	ldrb	r1, [r0, #0]
 8000ce8:	b1e9      	cbz	r1, 8000d26 <HAL_MPU_ConfigRegion+0x4a>
 8000cea:	6843      	ldr	r3, [r0, #4]
 8000cec:	f8c2 309c 	str.w	r3, [r2, #156]	; 0x9c
 8000cf0:	7ac3      	ldrb	r3, [r0, #11]
 8000cf2:	7b04      	ldrb	r4, [r0, #12]
 8000cf4:	061b      	lsls	r3, r3, #24
 8000cf6:	ea43 7304 	orr.w	r3, r3, r4, lsl #28
 8000cfa:	430b      	orrs	r3, r1
 8000cfc:	7a81      	ldrb	r1, [r0, #10]
 8000cfe:	ea43 43c1 	orr.w	r3, r3, r1, lsl #19
 8000d02:	7b41      	ldrb	r1, [r0, #13]
 8000d04:	ea43 4381 	orr.w	r3, r3, r1, lsl #18
 8000d08:	7b81      	ldrb	r1, [r0, #14]
 8000d0a:	ea43 4341 	orr.w	r3, r3, r1, lsl #17
 8000d0e:	7bc1      	ldrb	r1, [r0, #15]
 8000d10:	ea43 4301 	orr.w	r3, r3, r1, lsl #16
 8000d14:	7a41      	ldrb	r1, [r0, #9]
 8000d16:	ea43 2301 	orr.w	r3, r3, r1, lsl #8
 8000d1a:	7a01      	ldrb	r1, [r0, #8]
 8000d1c:	ea43 0341 	orr.w	r3, r3, r1, lsl #1
 8000d20:	f8c2 30a0 	str.w	r3, [r2, #160]	; 0xa0
 8000d24:	bd10      	pop	{r4, pc}
 8000d26:	f8c2 109c 	str.w	r1, [r2, #156]	; 0x9c
 8000d2a:	f8c2 10a0 	str.w	r1, [r2, #160]	; 0xa0
 8000d2e:	e7f9      	b.n	8000d24 <HAL_MPU_ConfigRegion+0x48>
 8000d30:	e000ed00 	.word	0xe000ed00

08000d34 <ETH_FlushTransmitFIFO>:
 8000d34:	2300      	movs	r3, #0
 8000d36:	b513      	push	{r0, r1, r4, lr}
 8000d38:	9301      	str	r3, [sp, #4]
 8000d3a:	4604      	mov	r4, r0
 8000d3c:	6803      	ldr	r3, [r0, #0]
 8000d3e:	2001      	movs	r0, #1
 8000d40:	f503 5380 	add.w	r3, r3, #4096	; 0x1000
 8000d44:	699a      	ldr	r2, [r3, #24]
 8000d46:	f442 1280 	orr.w	r2, r2, #1048576	; 0x100000
 8000d4a:	619a      	str	r2, [r3, #24]
 8000d4c:	699b      	ldr	r3, [r3, #24]
 8000d4e:	9301      	str	r3, [sp, #4]
 8000d50:	f7ff ff3c 	bl	8000bcc <HAL_Delay>
 8000d54:	6823      	ldr	r3, [r4, #0]
 8000d56:	9a01      	ldr	r2, [sp, #4]
 8000d58:	f503 5380 	add.w	r3, r3, #4096	; 0x1000
 8000d5c:	619a      	str	r2, [r3, #24]
 8000d5e:	b002      	add	sp, #8
 8000d60:	bd10      	pop	{r4, pc}
	...

08000d64 <ETH_MACDMAConfig>:
 8000d64:	b570      	push	{r4, r5, r6, lr}
 8000d66:	4604      	mov	r4, r0
 8000d68:	b129      	cbz	r1, 8000d76 <ETH_MACDMAConfig+0x12>
 8000d6a:	f44f 4380 	mov.w	r3, #16384	; 0x4000
 8000d6e:	f44f 6200 	mov.w	r2, #2048	; 0x800
 8000d72:	e9c0 3202 	strd	r3, r2, [r0, #8]
 8000d76:	69e3      	ldr	r3, [r4, #28]
 8000d78:	6822      	ldr	r2, [r4, #0]
 8000d7a:	2b00      	cmp	r3, #0
 8000d7c:	6810      	ldr	r0, [r2, #0]
 8000d7e:	bf0c      	ite	eq
 8000d80:	f44f 6180 	moveq.w	r1, #1024	; 0x400
 8000d84:	2100      	movne	r1, #0
 8000d86:	e9d4 3502 	ldrd	r3, r5, [r4, #8]
 8000d8a:	432b      	orrs	r3, r5
 8000d8c:	430b      	orrs	r3, r1
 8000d8e:	492c      	ldr	r1, [pc, #176]	; (8000e40 <ETH_MACDMAConfig+0xdc>)
 8000d90:	4001      	ands	r1, r0
 8000d92:	2001      	movs	r0, #1
 8000d94:	430b      	orrs	r3, r1
 8000d96:	f443 7300 	orr.w	r3, r3, #512	; 0x200
 8000d9a:	6013      	str	r3, [r2, #0]
 8000d9c:	6815      	ldr	r5, [r2, #0]
 8000d9e:	f7ff ff15 	bl	8000bcc <HAL_Delay>
 8000da2:	6823      	ldr	r3, [r4, #0]
 8000da4:	2240      	movs	r2, #64	; 0x40
 8000da6:	2001      	movs	r0, #1
 8000da8:	601d      	str	r5, [r3, #0]
 8000daa:	605a      	str	r2, [r3, #4]
 8000dac:	685d      	ldr	r5, [r3, #4]
 8000dae:	f7ff ff0d 	bl	8000bcc <HAL_Delay>
 8000db2:	6823      	ldr	r3, [r4, #0]
 8000db4:	2001      	movs	r0, #1
 8000db6:	605d      	str	r5, [r3, #4]
 8000db8:	2500      	movs	r5, #0
 8000dba:	609d      	str	r5, [r3, #8]
 8000dbc:	60dd      	str	r5, [r3, #12]
 8000dbe:	699a      	ldr	r2, [r3, #24]
 8000dc0:	f022 02be 	bic.w	r2, r2, #190	; 0xbe
 8000dc4:	0412      	lsls	r2, r2, #16
 8000dc6:	0c12      	lsrs	r2, r2, #16
 8000dc8:	f042 0280 	orr.w	r2, r2, #128	; 0x80
 8000dcc:	619a      	str	r2, [r3, #24]
 8000dce:	699e      	ldr	r6, [r3, #24]
 8000dd0:	f7ff fefc 	bl	8000bcc <HAL_Delay>
 8000dd4:	6823      	ldr	r3, [r4, #0]
 8000dd6:	2001      	movs	r0, #1
 8000dd8:	619e      	str	r6, [r3, #24]
 8000dda:	61dd      	str	r5, [r3, #28]
 8000ddc:	69dd      	ldr	r5, [r3, #28]
 8000dde:	f7ff fef5 	bl	8000bcc <HAL_Delay>
 8000de2:	6822      	ldr	r2, [r4, #0]
 8000de4:	2001      	movs	r0, #1
 8000de6:	4b17      	ldr	r3, [pc, #92]	; (8000e44 <ETH_MACDMAConfig+0xe0>)
 8000de8:	61d5      	str	r5, [r2, #28]
 8000dea:	f502 5280 	add.w	r2, r2, #4096	; 0x1000
 8000dee:	6991      	ldr	r1, [r2, #24]
 8000df0:	400b      	ands	r3, r1
 8000df2:	f043 7308 	orr.w	r3, r3, #35651584	; 0x2200000
 8000df6:	f043 0304 	orr.w	r3, r3, #4
 8000dfa:	6193      	str	r3, [r2, #24]
 8000dfc:	6995      	ldr	r5, [r2, #24]
 8000dfe:	f7ff fee5 	bl	8000bcc <HAL_Delay>
 8000e02:	6823      	ldr	r3, [r4, #0]
 8000e04:	2001      	movs	r0, #1
 8000e06:	4a10      	ldr	r2, [pc, #64]	; (8000e48 <ETH_MACDMAConfig+0xe4>)
 8000e08:	f503 5380 	add.w	r3, r3, #4096	; 0x1000
 8000e0c:	619d      	str	r5, [r3, #24]
 8000e0e:	601a      	str	r2, [r3, #0]
 8000e10:	681d      	ldr	r5, [r3, #0]
 8000e12:	f7ff fedb 	bl	8000bcc <HAL_Delay>
 8000e16:	6823      	ldr	r3, [r4, #0]
 8000e18:	69a2      	ldr	r2, [r4, #24]
 8000e1a:	f503 5380 	add.w	r3, r3, #4096	; 0x1000
 8000e1e:	2a01      	cmp	r2, #1
 8000e20:	601d      	str	r5, [r3, #0]
 8000e22:	d105      	bne.n	8000e30 <ETH_MACDMAConfig+0xcc>
 8000e24:	69da      	ldr	r2, [r3, #28]
 8000e26:	f442 3280 	orr.w	r2, r2, #65536	; 0x10000
 8000e2a:	f042 0240 	orr.w	r2, r2, #64	; 0x40
 8000e2e:	61da      	str	r2, [r3, #28]
 8000e30:	6962      	ldr	r2, [r4, #20]
 8000e32:	4b06      	ldr	r3, [pc, #24]	; (8000e4c <ETH_MACDMAConfig+0xe8>)
 8000e34:	8891      	ldrh	r1, [r2, #4]
 8000e36:	6419      	str	r1, [r3, #64]	; 0x40
 8000e38:	6812      	ldr	r2, [r2, #0]
 8000e3a:	645a      	str	r2, [r3, #68]	; 0x44
 8000e3c:	bd70      	pop	{r4, r5, r6, pc}
 8000e3e:	bf00      	nop
 8000e40:	ff20810f 	.word	0xff20810f
 8000e44:	f8de3f23 	.word	0xf8de3f23
 8000e48:	02c12080 	.word	0x02c12080
 8000e4c:	40028000 	.word	0x40028000

08000e50 <HAL_ETH_DMATxDescListInit>:
 8000e50:	b5f0      	push	{r4, r5, r6, r7, lr}
 8000e52:	f890 4045 	ldrb.w	r4, [r0, #69]	; 0x45
 8000e56:	2c01      	cmp	r4, #1
 8000e58:	f04f 0402 	mov.w	r4, #2
 8000e5c:	d033      	beq.n	8000ec6 <HAL_ETH_DMATxDescListInit+0x76>
 8000e5e:	2501      	movs	r5, #1
 8000e60:	f880 4044 	strb.w	r4, [r0, #68]	; 0x44
 8000e64:	f44f 1780 	mov.w	r7, #1048576	; 0x100000
 8000e68:	f101 0420 	add.w	r4, r1, #32
 8000e6c:	f880 5045 	strb.w	r5, [r0, #69]	; 0x45
 8000e70:	f240 5cf4 	movw	ip, #1524	; 0x5f4
 8000e74:	2500      	movs	r5, #0
 8000e76:	f103 3eff 	add.w	lr, r3, #4294967295
 8000e7a:	62c1      	str	r1, [r0, #44]	; 0x2c
 8000e7c:	429d      	cmp	r5, r3
 8000e7e:	d10b      	bne.n	8000e98 <HAL_ETH_DMATxDescListInit+0x48>
 8000e80:	6803      	ldr	r3, [r0, #0]
 8000e82:	f503 5380 	add.w	r3, r3, #4096	; 0x1000
 8000e86:	6119      	str	r1, [r3, #16]
 8000e88:	2301      	movs	r3, #1
 8000e8a:	f880 3044 	strb.w	r3, [r0, #68]	; 0x44
 8000e8e:	2300      	movs	r3, #0
 8000e90:	f880 3045 	strb.w	r3, [r0, #69]	; 0x45
 8000e94:	4618      	mov	r0, r3
 8000e96:	bdf0      	pop	{r4, r5, r6, r7, pc}
 8000e98:	fb0c 2605 	mla	r6, ip, r5, r2
 8000e9c:	f844 7c20 	str.w	r7, [r4, #-32]
 8000ea0:	f844 6c18 	str.w	r6, [r4, #-24]
 8000ea4:	69c6      	ldr	r6, [r0, #28]
 8000ea6:	b92e      	cbnz	r6, 8000eb4 <HAL_ETH_DMATxDescListInit+0x64>
 8000ea8:	f854 6c20 	ldr.w	r6, [r4, #-32]
 8000eac:	f446 0640 	orr.w	r6, r6, #12582912	; 0xc00000
 8000eb0:	f844 6c20 	str.w	r6, [r4, #-32]
 8000eb4:	45ae      	cmp	lr, r5
 8000eb6:	bf94      	ite	ls
 8000eb8:	460e      	movls	r6, r1
 8000eba:	4626      	movhi	r6, r4
 8000ebc:	3501      	adds	r5, #1
 8000ebe:	3420      	adds	r4, #32
 8000ec0:	f844 6c34 	str.w	r6, [r4, #-52]
 8000ec4:	e7da      	b.n	8000e7c <HAL_ETH_DMATxDescListInit+0x2c>
 8000ec6:	4620      	mov	r0, r4
 8000ec8:	e7e5      	b.n	8000e96 <HAL_ETH_DMATxDescListInit+0x46>

08000eca <HAL_ETH_DMARxDescListInit>:
 8000eca:	e92d 41f0 	stmdb	sp!, {r4, r5, r6, r7, r8, lr}
 8000ece:	f890 4045 	ldrb.w	r4, [r0, #69]	; 0x45
 8000ed2:	2c01      	cmp	r4, #1
 8000ed4:	f04f 0402 	mov.w	r4, #2
 8000ed8:	d030      	beq.n	8000f3c <HAL_ETH_DMARxDescListInit+0x72>
 8000eda:	2501      	movs	r5, #1
 8000edc:	f880 4044 	strb.w	r4, [r0, #68]	; 0x44
 8000ee0:	f04f 4600 	mov.w	r6, #2147483648	; 0x80000000
 8000ee4:	f101 0420 	add.w	r4, r1, #32
 8000ee8:	f880 5045 	strb.w	r5, [r0, #69]	; 0x45
 8000eec:	f244 57f4 	movw	r7, #17908	; 0x45f4
 8000ef0:	2500      	movs	r5, #0
 8000ef2:	f240 5cf4 	movw	ip, #1524	; 0x5f4
 8000ef6:	f103 3eff 	add.w	lr, r3, #4294967295
 8000efa:	6281      	str	r1, [r0, #40]	; 0x28
 8000efc:	42ab      	cmp	r3, r5
 8000efe:	d10c      	bne.n	8000f1a <HAL_ETH_DMARxDescListInit+0x50>
 8000f00:	6803      	ldr	r3, [r0, #0]
 8000f02:	f503 5380 	add.w	r3, r3, #4096	; 0x1000
 8000f06:	60d9      	str	r1, [r3, #12]
 8000f08:	2301      	movs	r3, #1
 8000f0a:	f880 3044 	strb.w	r3, [r0, #68]	; 0x44
 8000f0e:	2300      	movs	r3, #0
 8000f10:	f880 3045 	strb.w	r3, [r0, #69]	; 0x45
 8000f14:	4618      	mov	r0, r3
 8000f16:	e8bd 81f0 	ldmia.w	sp!, {r4, r5, r6, r7, r8, pc}
 8000f1a:	fb0c 2805 	mla	r8, ip, r5, r2
 8000f1e:	f844 6c20 	str.w	r6, [r4, #-32]
 8000f22:	f844 8c18 	str.w	r8, [r4, #-24]
 8000f26:	45ae      	cmp	lr, r5
 8000f28:	bf94      	ite	ls
 8000f2a:	4688      	movls	r8, r1
 8000f2c:	46a0      	movhi	r8, r4
 8000f2e:	f844 7c1c 	str.w	r7, [r4, #-28]
 8000f32:	3501      	adds	r5, #1
 8000f34:	f844 8c14 	str.w	r8, [r4, #-20]
 8000f38:	3420      	adds	r4, #32
 8000f3a:	e7df      	b.n	8000efc <HAL_ETH_DMARxDescListInit+0x32>
 8000f3c:	4620      	mov	r0, r4
 8000f3e:	e7ea      	b.n	8000f16 <HAL_ETH_DMARxDescListInit+0x4c>

08000f40 <HAL_ETH_TransmitFrame>:
 8000f40:	b5f0      	push	{r4, r5, r6, r7, lr}
 8000f42:	f890 3045 	ldrb.w	r3, [r0, #69]	; 0x45
 8000f46:	2b01      	cmp	r3, #1
 8000f48:	f04f 0302 	mov.w	r3, #2
 8000f4c:	d064      	beq.n	8001018 <HAL_ETH_TransmitFrame+0xd8>
 8000f4e:	2201      	movs	r2, #1
 8000f50:	f880 3044 	strb.w	r3, [r0, #68]	; 0x44
 8000f54:	f880 2045 	strb.w	r2, [r0, #69]	; 0x45
 8000f58:	b929      	cbnz	r1, 8000f66 <HAL_ETH_TransmitFrame+0x26>
 8000f5a:	f880 2044 	strb.w	r2, [r0, #68]	; 0x44
 8000f5e:	f880 1045 	strb.w	r1, [r0, #69]	; 0x45
 8000f62:	4610      	mov	r0, r2
 8000f64:	bdf0      	pop	{r4, r5, r6, r7, pc}
 8000f66:	6ac3      	ldr	r3, [r0, #44]	; 0x2c
 8000f68:	681c      	ldr	r4, [r3, #0]
 8000f6a:	2c00      	cmp	r4, #0
 8000f6c:	da06      	bge.n	8000f7c <HAL_ETH_TransmitFrame+0x3c>
 8000f6e:	2312      	movs	r3, #18
 8000f70:	f880 3044 	strb.w	r3, [r0, #68]	; 0x44
 8000f74:	2300      	movs	r3, #0
 8000f76:	f880 3045 	strb.w	r3, [r0, #69]	; 0x45
 8000f7a:	e7f2      	b.n	8000f62 <HAL_ETH_TransmitFrame+0x22>
 8000f7c:	f240 54f4 	movw	r4, #1524	; 0x5f4
 8000f80:	42a1      	cmp	r1, r4
 8000f82:	d92c      	bls.n	8000fde <HAL_ETH_TransmitFrame+0x9e>
 8000f84:	fbb1 f2f4 	udiv	r2, r1, r4
 8000f88:	fb04 1412 	mls	r4, r4, r2, r1
 8000f8c:	b32c      	cbz	r4, 8000fda <HAL_ETH_TransmitFrame+0x9a>
 8000f8e:	3201      	adds	r2, #1
 8000f90:	4c22      	ldr	r4, [pc, #136]	; (800101c <HAL_ETH_TransmitFrame+0xdc>)
 8000f92:	f201 51f4 	addw	r1, r1, #1524	; 0x5f4
 8000f96:	f240 56f4 	movw	r6, #1524	; 0x5f4
 8000f9a:	1e57      	subs	r7, r2, #1
 8000f9c:	fb04 1102 	mla	r1, r4, r2, r1
 8000fa0:	2400      	movs	r4, #0
 8000fa2:	f3c1 010c 	ubfx	r1, r1, #0, #13
 8000fa6:	681d      	ldr	r5, [r3, #0]
 8000fa8:	f025 5540 	bic.w	r5, r5, #805306368	; 0x30000000
 8000fac:	601d      	str	r5, [r3, #0]
 8000fae:	b91c      	cbnz	r4, 8000fb8 <HAL_ETH_TransmitFrame+0x78>
 8000fb0:	681d      	ldr	r5, [r3, #0]
 8000fb2:	f045 5580 	orr.w	r5, r5, #268435456	; 0x10000000
 8000fb6:	601d      	str	r5, [r3, #0]
 8000fb8:	42a7      	cmp	r7, r4
 8000fba:	605e      	str	r6, [r3, #4]
 8000fbc:	d104      	bne.n	8000fc8 <HAL_ETH_TransmitFrame+0x88>
 8000fbe:	681d      	ldr	r5, [r3, #0]
 8000fc0:	6059      	str	r1, [r3, #4]
 8000fc2:	f045 5500 	orr.w	r5, r5, #536870912	; 0x20000000
 8000fc6:	601d      	str	r5, [r3, #0]
 8000fc8:	681d      	ldr	r5, [r3, #0]
 8000fca:	3401      	adds	r4, #1
 8000fcc:	f045 4500 	orr.w	r5, r5, #2147483648	; 0x80000000
 8000fd0:	4294      	cmp	r4, r2
 8000fd2:	601d      	str	r5, [r3, #0]
 8000fd4:	68db      	ldr	r3, [r3, #12]
 8000fd6:	d1e6      	bne.n	8000fa6 <HAL_ETH_TransmitFrame+0x66>
 8000fd8:	e00d      	b.n	8000ff6 <HAL_ETH_TransmitFrame+0xb6>
 8000fda:	2a01      	cmp	r2, #1
 8000fdc:	d1d8      	bne.n	8000f90 <HAL_ETH_TransmitFrame+0x50>
 8000fde:	681a      	ldr	r2, [r3, #0]
 8000fe0:	f3c1 010c 	ubfx	r1, r1, #0, #13
 8000fe4:	f042 5240 	orr.w	r2, r2, #805306368	; 0x30000000
 8000fe8:	6059      	str	r1, [r3, #4]
 8000fea:	601a      	str	r2, [r3, #0]
 8000fec:	681a      	ldr	r2, [r3, #0]
 8000fee:	f042 4200 	orr.w	r2, r2, #2147483648	; 0x80000000
 8000ff2:	601a      	str	r2, [r3, #0]
 8000ff4:	68db      	ldr	r3, [r3, #12]
 8000ff6:	62c3      	str	r3, [r0, #44]	; 0x2c
 8000ff8:	6803      	ldr	r3, [r0, #0]
 8000ffa:	f503 5380 	add.w	r3, r3, #4096	; 0x1000
 8000ffe:	695a      	ldr	r2, [r3, #20]
 8001000:	0752      	lsls	r2, r2, #29
 8001002:	d503      	bpl.n	800100c <HAL_ETH_TransmitFrame+0xcc>
 8001004:	2204      	movs	r2, #4
 8001006:	615a      	str	r2, [r3, #20]
 8001008:	2200      	movs	r2, #0
 800100a:	605a      	str	r2, [r3, #4]
 800100c:	2301      	movs	r3, #1
 800100e:	f880 3044 	strb.w	r3, [r0, #68]	; 0x44
 8001012:	2300      	movs	r3, #0
 8001014:	f880 3045 	strb.w	r3, [r0, #69]	; 0x45
 8001018:	4618      	mov	r0, r3
 800101a:	e7a3      	b.n	8000f64 <HAL_ETH_TransmitFrame+0x24>
 800101c:	fffffa0c 	.word	0xfffffa0c

08001020 <HAL_ETH_GetReceivedFrame>:
 8001020:	b530      	push	{r4, r5, lr}
 8001022:	f890 3045 	ldrb.w	r3, [r0, #69]	; 0x45
 8001026:	2b01      	cmp	r3, #1
 8001028:	f04f 0302 	mov.w	r3, #2
 800102c:	d023      	beq.n	8001076 <HAL_ETH_GetReceivedFrame+0x56>
 800102e:	f880 3044 	strb.w	r3, [r0, #68]	; 0x44
 8001032:	2401      	movs	r4, #1
 8001034:	6a83      	ldr	r3, [r0, #40]	; 0x28
 8001036:	f880 4045 	strb.w	r4, [r0, #69]	; 0x45
 800103a:	681a      	ldr	r2, [r3, #0]
 800103c:	2a00      	cmp	r2, #0
 800103e:	db27      	blt.n	8001090 <HAL_ETH_GetReceivedFrame+0x70>
 8001040:	681a      	ldr	r2, [r3, #0]
 8001042:	68d9      	ldr	r1, [r3, #12]
 8001044:	f412 7280 	ands.w	r2, r2, #256	; 0x100
 8001048:	d017      	beq.n	800107a <HAL_ETH_GetReceivedFrame+0x5a>
 800104a:	6b82      	ldr	r2, [r0, #56]	; 0x38
 800104c:	6343      	str	r3, [r0, #52]	; 0x34
 800104e:	4422      	add	r2, r4
 8001050:	42a2      	cmp	r2, r4
 8001052:	6382      	str	r2, [r0, #56]	; 0x38
 8001054:	bf08      	it	eq
 8001056:	6303      	streq	r3, [r0, #48]	; 0x30
 8001058:	681b      	ldr	r3, [r3, #0]
 800105a:	f3c3 430d 	ubfx	r3, r3, #16, #14
 800105e:	3b04      	subs	r3, #4
 8001060:	63c3      	str	r3, [r0, #60]	; 0x3c
 8001062:	6b03      	ldr	r3, [r0, #48]	; 0x30
 8001064:	689b      	ldr	r3, [r3, #8]
 8001066:	6281      	str	r1, [r0, #40]	; 0x28
 8001068:	6403      	str	r3, [r0, #64]	; 0x40
 800106a:	2301      	movs	r3, #1
 800106c:	f880 3044 	strb.w	r3, [r0, #68]	; 0x44
 8001070:	2300      	movs	r3, #0
 8001072:	f880 3045 	strb.w	r3, [r0, #69]	; 0x45
 8001076:	4618      	mov	r0, r3
 8001078:	bd30      	pop	{r4, r5, pc}
 800107a:	681d      	ldr	r5, [r3, #0]
 800107c:	6281      	str	r1, [r0, #40]	; 0x28
 800107e:	05ad      	lsls	r5, r5, #22
 8001080:	bf55      	itete	pl
 8001082:	6b83      	ldrpl	r3, [r0, #56]	; 0x38
 8001084:	6384      	strmi	r4, [r0, #56]	; 0x38
 8001086:	3301      	addpl	r3, #1
 8001088:	e9c0 320c 	strdmi	r3, r2, [r0, #48]	; 0x30
 800108c:	bf58      	it	pl
 800108e:	6383      	strpl	r3, [r0, #56]	; 0x38
 8001090:	2301      	movs	r3, #1
 8001092:	2200      	movs	r2, #0
 8001094:	f880 3044 	strb.w	r3, [r0, #68]	; 0x44
 8001098:	f880 2045 	strb.w	r2, [r0, #69]	; 0x45
 800109c:	e7eb      	b.n	8001076 <HAL_ETH_GetReceivedFrame+0x56>

0800109e <HAL_ETH_ReadPHYRegister>:
 800109e:	b5f8      	push	{r3, r4, r5, r6, r7, lr}
 80010a0:	f890 3044 	ldrb.w	r3, [r0, #68]	; 0x44
 80010a4:	4606      	mov	r6, r0
 80010a6:	4615      	mov	r5, r2
 80010a8:	2b82      	cmp	r3, #130	; 0x82
 80010aa:	d031      	beq.n	8001110 <HAL_ETH_ReadPHYRegister+0x72>
 80010ac:	2382      	movs	r3, #130	; 0x82
 80010ae:	0189      	lsls	r1, r1, #6
 80010b0:	f880 3044 	strb.w	r3, [r0, #68]	; 0x44
 80010b4:	f401 61f8 	and.w	r1, r1, #1984	; 0x7c0
 80010b8:	8a34      	ldrh	r4, [r6, #16]
 80010ba:	6803      	ldr	r3, [r0, #0]
 80010bc:	02e4      	lsls	r4, r4, #11
 80010be:	6918      	ldr	r0, [r3, #16]
 80010c0:	b2a4      	uxth	r4, r4
 80010c2:	f000 001c 	and.w	r0, r0, #28
 80010c6:	430c      	orrs	r4, r1
 80010c8:	4304      	orrs	r4, r0
 80010ca:	f044 0401 	orr.w	r4, r4, #1
 80010ce:	611c      	str	r4, [r3, #16]
 80010d0:	f7ff fd76 	bl	8000bc0 <HAL_GetTick>
 80010d4:	4607      	mov	r7, r0
 80010d6:	f014 0401 	ands.w	r4, r4, #1
 80010da:	d108      	bne.n	80010ee <HAL_ETH_ReadPHYRegister+0x50>
 80010dc:	6833      	ldr	r3, [r6, #0]
 80010de:	4620      	mov	r0, r4
 80010e0:	695b      	ldr	r3, [r3, #20]
 80010e2:	b29b      	uxth	r3, r3
 80010e4:	602b      	str	r3, [r5, #0]
 80010e6:	2301      	movs	r3, #1
 80010e8:	f886 3044 	strb.w	r3, [r6, #68]	; 0x44
 80010ec:	e00c      	b.n	8001108 <HAL_ETH_ReadPHYRegister+0x6a>
 80010ee:	f7ff fd67 	bl	8000bc0 <HAL_GetTick>
 80010f2:	1bc0      	subs	r0, r0, r7
 80010f4:	f5b0 3f80 	cmp.w	r0, #65536	; 0x10000
 80010f8:	d307      	bcc.n	800110a <HAL_ETH_ReadPHYRegister+0x6c>
 80010fa:	2301      	movs	r3, #1
 80010fc:	2003      	movs	r0, #3
 80010fe:	f886 3044 	strb.w	r3, [r6, #68]	; 0x44
 8001102:	2300      	movs	r3, #0
 8001104:	f886 3045 	strb.w	r3, [r6, #69]	; 0x45
 8001108:	bdf8      	pop	{r3, r4, r5, r6, r7, pc}
 800110a:	6833      	ldr	r3, [r6, #0]
 800110c:	691c      	ldr	r4, [r3, #16]
 800110e:	e7e2      	b.n	80010d6 <HAL_ETH_ReadPHYRegister+0x38>
 8001110:	2002      	movs	r0, #2
 8001112:	e7f9      	b.n	8001108 <HAL_ETH_ReadPHYRegister+0x6a>

08001114 <HAL_ETH_WritePHYRegister>:
 8001114:	b570      	push	{r4, r5, r6, lr}
 8001116:	f890 3044 	ldrb.w	r3, [r0, #68]	; 0x44
 800111a:	4605      	mov	r5, r0
 800111c:	2b42      	cmp	r3, #66	; 0x42
 800111e:	d02f      	beq.n	8001180 <HAL_ETH_WritePHYRegister+0x6c>
 8001120:	2342      	movs	r3, #66	; 0x42
 8001122:	0189      	lsls	r1, r1, #6
 8001124:	b292      	uxth	r2, r2
 8001126:	f880 3044 	strb.w	r3, [r0, #68]	; 0x44
 800112a:	f401 61f8 	and.w	r1, r1, #1984	; 0x7c0
 800112e:	8a2c      	ldrh	r4, [r5, #16]
 8001130:	6803      	ldr	r3, [r0, #0]
 8001132:	02e4      	lsls	r4, r4, #11
 8001134:	6918      	ldr	r0, [r3, #16]
 8001136:	b2a4      	uxth	r4, r4
 8001138:	615a      	str	r2, [r3, #20]
 800113a:	f000 001c 	and.w	r0, r0, #28
 800113e:	430c      	orrs	r4, r1
 8001140:	4304      	orrs	r4, r0
 8001142:	f044 0403 	orr.w	r4, r4, #3
 8001146:	611c      	str	r4, [r3, #16]
 8001148:	f7ff fd3a 	bl	8000bc0 <HAL_GetTick>
 800114c:	4606      	mov	r6, r0
 800114e:	f014 0401 	ands.w	r4, r4, #1
 8001152:	d104      	bne.n	800115e <HAL_ETH_WritePHYRegister+0x4a>
 8001154:	2301      	movs	r3, #1
 8001156:	4620      	mov	r0, r4
 8001158:	f885 3044 	strb.w	r3, [r5, #68]	; 0x44
 800115c:	e00c      	b.n	8001178 <HAL_ETH_WritePHYRegister+0x64>
 800115e:	f7ff fd2f 	bl	8000bc0 <HAL_GetTick>
 8001162:	1b80      	subs	r0, r0, r6
 8001164:	f5b0 3f80 	cmp.w	r0, #65536	; 0x10000
 8001168:	d307      	bcc.n	800117a <HAL_ETH_WritePHYRegister+0x66>
 800116a:	2301      	movs	r3, #1
 800116c:	2003      	movs	r0, #3
 800116e:	f885 3044 	strb.w	r3, [r5, #68]	; 0x44
 8001172:	2300      	movs	r3, #0
 8001174:	f885 3045 	strb.w	r3, [r5, #69]	; 0x45
 8001178:	bd70      	pop	{r4, r5, r6, pc}
 800117a:	682b      	ldr	r3, [r5, #0]
 800117c:	691c      	ldr	r4, [r3, #16]
 800117e:	e7e6      	b.n	800114e <HAL_ETH_WritePHYRegister+0x3a>
 8001180:	2002      	movs	r0, #2
 8001182:	e7f9      	b.n	8001178 <HAL_ETH_WritePHYRegister+0x64>

08001184 <HAL_ETH_Init>:
 8001184:	2300      	movs	r3, #0
 8001186:	b5f7      	push	{r0, r1, r2, r4, r5, r6, r7, lr}
 8001188:	4604      	mov	r4, r0
 800118a:	9300      	str	r3, [sp, #0]
 800118c:	2800      	cmp	r0, #0
 800118e:	f000 80dd 	beq.w	800134c <HAL_ETH_Init+0x1c8>
 8001192:	f890 3044 	ldrb.w	r3, [r0, #68]	; 0x44
 8001196:	f003 02ff 	and.w	r2, r3, #255	; 0xff
 800119a:	b91b      	cbnz	r3, 80011a4 <HAL_ETH_Init+0x20>
 800119c:	f880 2045 	strb.w	r2, [r0, #69]	; 0x45
 80011a0:	f001 fda0 	bl	8002ce4 <HAL_ETH_MspInit>
 80011a4:	4b6a      	ldr	r3, [pc, #424]	; (8001350 <HAL_ETH_Init+0x1cc>)
 80011a6:	6c5a      	ldr	r2, [r3, #68]	; 0x44
 80011a8:	f442 4280 	orr.w	r2, r2, #16384	; 0x4000
 80011ac:	645a      	str	r2, [r3, #68]	; 0x44
 80011ae:	6c5b      	ldr	r3, [r3, #68]	; 0x44
 80011b0:	f403 4380 	and.w	r3, r3, #16384	; 0x4000
 80011b4:	9301      	str	r3, [sp, #4]
 80011b6:	9b01      	ldr	r3, [sp, #4]
 80011b8:	4b66      	ldr	r3, [pc, #408]	; (8001354 <HAL_ETH_Init+0x1d0>)
 80011ba:	685a      	ldr	r2, [r3, #4]
 80011bc:	f422 0200 	bic.w	r2, r2, #8388608	; 0x800000
 80011c0:	605a      	str	r2, [r3, #4]
 80011c2:	685a      	ldr	r2, [r3, #4]
 80011c4:	6a21      	ldr	r1, [r4, #32]
 80011c6:	430a      	orrs	r2, r1
 80011c8:	605a      	str	r2, [r3, #4]
 80011ca:	6823      	ldr	r3, [r4, #0]
 80011cc:	f503 5380 	add.w	r3, r3, #4096	; 0x1000
 80011d0:	681a      	ldr	r2, [r3, #0]
 80011d2:	f042 0201 	orr.w	r2, r2, #1
 80011d6:	601a      	str	r2, [r3, #0]
 80011d8:	f7ff fcf2 	bl	8000bc0 <HAL_GetTick>
 80011dc:	4605      	mov	r5, r0
 80011de:	6823      	ldr	r3, [r4, #0]
 80011e0:	f503 5280 	add.w	r2, r3, #4096	; 0x1000
 80011e4:	6812      	ldr	r2, [r2, #0]
 80011e6:	07d0      	lsls	r0, r2, #31
 80011e8:	d41d      	bmi.n	8001226 <HAL_ETH_Init+0xa2>
 80011ea:	691d      	ldr	r5, [r3, #16]
 80011ec:	f000 fe24 	bl	8001e38 <HAL_RCC_GetHCLKFreq>
 80011f0:	4b59      	ldr	r3, [pc, #356]	; (8001358 <HAL_ETH_Init+0x1d4>)
 80011f2:	4a5a      	ldr	r2, [pc, #360]	; (800135c <HAL_ETH_Init+0x1d8>)
 80011f4:	f025 051c 	bic.w	r5, r5, #28
 80011f8:	4403      	add	r3, r0
 80011fa:	4293      	cmp	r3, r2
 80011fc:	d222      	bcs.n	8001244 <HAL_ETH_Init+0xc0>
 80011fe:	f045 0508 	orr.w	r5, r5, #8
 8001202:	6823      	ldr	r3, [r4, #0]
 8001204:	f44f 4200 	mov.w	r2, #32768	; 0x8000
 8001208:	2100      	movs	r1, #0
 800120a:	4620      	mov	r0, r4
 800120c:	611d      	str	r5, [r3, #16]
 800120e:	f7ff ff81 	bl	8001114 <HAL_ETH_WritePHYRegister>
 8001212:	4605      	mov	r5, r0
 8001214:	b368      	cbz	r0, 8001272 <HAL_ETH_Init+0xee>
 8001216:	2501      	movs	r5, #1
 8001218:	2101      	movs	r1, #1
 800121a:	4620      	mov	r0, r4
 800121c:	f7ff fda2 	bl	8000d64 <ETH_MACDMAConfig>
 8001220:	f884 5044 	strb.w	r5, [r4, #68]	; 0x44
 8001224:	e00b      	b.n	800123e <HAL_ETH_Init+0xba>
 8001226:	f7ff fccb 	bl	8000bc0 <HAL_GetTick>
 800122a:	1b40      	subs	r0, r0, r5
 800122c:	f5b0 7ffa 	cmp.w	r0, #500	; 0x1f4
 8001230:	d9d5      	bls.n	80011de <HAL_ETH_Init+0x5a>
 8001232:	2503      	movs	r5, #3
 8001234:	2300      	movs	r3, #0
 8001236:	f884 5044 	strb.w	r5, [r4, #68]	; 0x44
 800123a:	f884 3045 	strb.w	r3, [r4, #69]	; 0x45
 800123e:	4628      	mov	r0, r5
 8001240:	b003      	add	sp, #12
 8001242:	bdf0      	pop	{r4, r5, r6, r7, pc}
 8001244:	4b46      	ldr	r3, [pc, #280]	; (8001360 <HAL_ETH_Init+0x1dc>)
 8001246:	4a47      	ldr	r2, [pc, #284]	; (8001364 <HAL_ETH_Init+0x1e0>)
 8001248:	4403      	add	r3, r0
 800124a:	4293      	cmp	r3, r2
 800124c:	d802      	bhi.n	8001254 <HAL_ETH_Init+0xd0>
 800124e:	f045 050c 	orr.w	r5, r5, #12
 8001252:	e7d6      	b.n	8001202 <HAL_ETH_Init+0x7e>
 8001254:	4b44      	ldr	r3, [pc, #272]	; (8001368 <HAL_ETH_Init+0x1e4>)
 8001256:	4a45      	ldr	r2, [pc, #276]	; (800136c <HAL_ETH_Init+0x1e8>)
 8001258:	4403      	add	r3, r0
 800125a:	4293      	cmp	r3, r2
 800125c:	d3d1      	bcc.n	8001202 <HAL_ETH_Init+0x7e>
 800125e:	4b44      	ldr	r3, [pc, #272]	; (8001370 <HAL_ETH_Init+0x1ec>)
 8001260:	4a44      	ldr	r2, [pc, #272]	; (8001374 <HAL_ETH_Init+0x1f0>)
 8001262:	4403      	add	r3, r0
 8001264:	4293      	cmp	r3, r2
 8001266:	bf94      	ite	ls
 8001268:	f045 0504 	orrls.w	r5, r5, #4
 800126c:	f045 0510 	orrhi.w	r5, r5, #16
 8001270:	e7c7      	b.n	8001202 <HAL_ETH_Init+0x7e>
 8001272:	20ff      	movs	r0, #255	; 0xff
 8001274:	f7ff fcaa 	bl	8000bcc <HAL_Delay>
 8001278:	6863      	ldr	r3, [r4, #4]
 800127a:	2b00      	cmp	r3, #0
 800127c:	d054      	beq.n	8001328 <HAL_ETH_Init+0x1a4>
 800127e:	f7ff fc9f 	bl	8000bc0 <HAL_GetTick>
 8001282:	f241 3788 	movw	r7, #5000	; 0x1388
 8001286:	4606      	mov	r6, r0
 8001288:	466a      	mov	r2, sp
 800128a:	2101      	movs	r1, #1
 800128c:	4620      	mov	r0, r4
 800128e:	f7ff ff06 	bl	800109e <HAL_ETH_ReadPHYRegister>
 8001292:	f7ff fc95 	bl	8000bc0 <HAL_GetTick>
 8001296:	1b80      	subs	r0, r0, r6
 8001298:	42b8      	cmp	r0, r7
 800129a:	d90b      	bls.n	80012b4 <HAL_ETH_Init+0x130>
 800129c:	2101      	movs	r1, #1
 800129e:	4620      	mov	r0, r4
 80012a0:	f7ff fd60 	bl	8000d64 <ETH_MACDMAConfig>
 80012a4:	2301      	movs	r3, #1
 80012a6:	2503      	movs	r5, #3
 80012a8:	f884 3044 	strb.w	r3, [r4, #68]	; 0x44
 80012ac:	2300      	movs	r3, #0
 80012ae:	f884 3045 	strb.w	r3, [r4, #69]	; 0x45
 80012b2:	e7c4      	b.n	800123e <HAL_ETH_Init+0xba>
 80012b4:	9b00      	ldr	r3, [sp, #0]
 80012b6:	0759      	lsls	r1, r3, #29
 80012b8:	d5e6      	bpl.n	8001288 <HAL_ETH_Init+0x104>
 80012ba:	f44f 5280 	mov.w	r2, #4096	; 0x1000
 80012be:	2100      	movs	r1, #0
 80012c0:	4620      	mov	r0, r4
 80012c2:	f7ff ff27 	bl	8001114 <HAL_ETH_WritePHYRegister>
 80012c6:	2800      	cmp	r0, #0
 80012c8:	d1a5      	bne.n	8001216 <HAL_ETH_Init+0x92>
 80012ca:	f7ff fc79 	bl	8000bc0 <HAL_GetTick>
 80012ce:	f241 3788 	movw	r7, #5000	; 0x1388
 80012d2:	4606      	mov	r6, r0
 80012d4:	466a      	mov	r2, sp
 80012d6:	2101      	movs	r1, #1
 80012d8:	4620      	mov	r0, r4
 80012da:	f7ff fee0 	bl	800109e <HAL_ETH_ReadPHYRegister>
 80012de:	f7ff fc6f 	bl	8000bc0 <HAL_GetTick>
 80012e2:	1b80      	subs	r0, r0, r6
 80012e4:	42b8      	cmp	r0, r7
 80012e6:	d8d9      	bhi.n	800129c <HAL_ETH_Init+0x118>
 80012e8:	9b00      	ldr	r3, [sp, #0]
 80012ea:	069a      	lsls	r2, r3, #26
 80012ec:	d5f2      	bpl.n	80012d4 <HAL_ETH_Init+0x150>
 80012ee:	466a      	mov	r2, sp
 80012f0:	2110      	movs	r1, #16
 80012f2:	4620      	mov	r0, r4
 80012f4:	f7ff fed3 	bl	800109e <HAL_ETH_ReadPHYRegister>
 80012f8:	2800      	cmp	r0, #0
 80012fa:	d18c      	bne.n	8001216 <HAL_ETH_Init+0x92>
 80012fc:	9b00      	ldr	r3, [sp, #0]
 80012fe:	f013 0204 	ands.w	r2, r3, #4
 8001302:	bf18      	it	ne
 8001304:	f44f 6200 	movne.w	r2, #2048	; 0x800
 8001308:	079b      	lsls	r3, r3, #30
 800130a:	bf58      	it	pl
 800130c:	f44f 4380 	movpl.w	r3, #16384	; 0x4000
 8001310:	60e2      	str	r2, [r4, #12]
 8001312:	bf4c      	ite	mi
 8001314:	60a0      	strmi	r0, [r4, #8]
 8001316:	60a3      	strpl	r3, [r4, #8]
 8001318:	2100      	movs	r1, #0
 800131a:	4620      	mov	r0, r4
 800131c:	f7ff fd22 	bl	8000d64 <ETH_MACDMAConfig>
 8001320:	2301      	movs	r3, #1
 8001322:	f884 3044 	strb.w	r3, [r4, #68]	; 0x44
 8001326:	e78a      	b.n	800123e <HAL_ETH_Init+0xba>
 8001328:	e9d4 2302 	ldrd	r2, r3, [r4, #8]
 800132c:	4629      	mov	r1, r5
 800132e:	4620      	mov	r0, r4
 8001330:	0852      	lsrs	r2, r2, #1
 8001332:	ea42 02d3 	orr.w	r2, r2, r3, lsr #3
 8001336:	b292      	uxth	r2, r2
 8001338:	f7ff feec 	bl	8001114 <HAL_ETH_WritePHYRegister>
 800133c:	2800      	cmp	r0, #0
 800133e:	f47f af6a 	bne.w	8001216 <HAL_ETH_Init+0x92>
 8001342:	f640 70ff 	movw	r0, #4095	; 0xfff
 8001346:	f7ff fc41 	bl	8000bcc <HAL_Delay>
 800134a:	e7e5      	b.n	8001318 <HAL_ETH_Init+0x194>
 800134c:	2501      	movs	r5, #1
 800134e:	e776      	b.n	800123e <HAL_ETH_Init+0xba>
 8001350:	40023800 	.word	0x40023800
 8001354:	40013800 	.word	0x40013800
 8001358:	feced300 	.word	0xfeced300
 800135c:	00e4e1c0 	.word	0x00e4e1c0
 8001360:	fde9f140 	.word	0xfde9f140
 8001364:	017d783f 	.word	0x017d783f
 8001368:	fc6c7900 	.word	0xfc6c7900
 800136c:	02625a00 	.word	0x02625a00
 8001370:	fa0a1f00 	.word	0xfa0a1f00
 8001374:	02faf07f 	.word	0x02faf07f

08001378 <HAL_ETH_Start>:
 8001378:	b573      	push	{r0, r1, r4, r5, r6, lr}
 800137a:	f890 3045 	ldrb.w	r3, [r0, #69]	; 0x45
 800137e:	4604      	mov	r4, r0
 8001380:	2002      	movs	r0, #2
 8001382:	2b01      	cmp	r3, #1
 8001384:	d033      	beq.n	80013ee <HAL_ETH_Start+0x76>
 8001386:	2601      	movs	r6, #1
 8001388:	2500      	movs	r5, #0
 800138a:	6823      	ldr	r3, [r4, #0]
 800138c:	f884 0044 	strb.w	r0, [r4, #68]	; 0x44
 8001390:	4630      	mov	r0, r6
 8001392:	9501      	str	r5, [sp, #4]
 8001394:	f884 6045 	strb.w	r6, [r4, #69]	; 0x45
 8001398:	681a      	ldr	r2, [r3, #0]
 800139a:	f042 0208 	orr.w	r2, r2, #8
 800139e:	601a      	str	r2, [r3, #0]
 80013a0:	681b      	ldr	r3, [r3, #0]
 80013a2:	9301      	str	r3, [sp, #4]
 80013a4:	f7ff fc12 	bl	8000bcc <HAL_Delay>
 80013a8:	9a01      	ldr	r2, [sp, #4]
 80013aa:	4630      	mov	r0, r6
 80013ac:	6823      	ldr	r3, [r4, #0]
 80013ae:	601a      	str	r2, [r3, #0]
 80013b0:	9500      	str	r5, [sp, #0]
 80013b2:	681a      	ldr	r2, [r3, #0]
 80013b4:	f042 0204 	orr.w	r2, r2, #4
 80013b8:	601a      	str	r2, [r3, #0]
 80013ba:	681b      	ldr	r3, [r3, #0]
 80013bc:	9300      	str	r3, [sp, #0]
 80013be:	f7ff fc05 	bl	8000bcc <HAL_Delay>
 80013c2:	6823      	ldr	r3, [r4, #0]
 80013c4:	4620      	mov	r0, r4
 80013c6:	9a00      	ldr	r2, [sp, #0]
 80013c8:	601a      	str	r2, [r3, #0]
 80013ca:	f7ff fcb3 	bl	8000d34 <ETH_FlushTransmitFIFO>
 80013ce:	6823      	ldr	r3, [r4, #0]
 80013d0:	4628      	mov	r0, r5
 80013d2:	f503 5380 	add.w	r3, r3, #4096	; 0x1000
 80013d6:	699a      	ldr	r2, [r3, #24]
 80013d8:	f442 5200 	orr.w	r2, r2, #8192	; 0x2000
 80013dc:	619a      	str	r2, [r3, #24]
 80013de:	699a      	ldr	r2, [r3, #24]
 80013e0:	f042 0202 	orr.w	r2, r2, #2
 80013e4:	619a      	str	r2, [r3, #24]
 80013e6:	f884 6044 	strb.w	r6, [r4, #68]	; 0x44
 80013ea:	f884 5045 	strb.w	r5, [r4, #69]	; 0x45
 80013ee:	b002      	add	sp, #8
 80013f0:	bd70      	pop	{r4, r5, r6, pc}

080013f2 <HAL_ETH_Stop>:
 80013f2:	b573      	push	{r0, r1, r4, r5, r6, lr}
 80013f4:	f890 3045 	ldrb.w	r3, [r0, #69]	; 0x45
 80013f8:	4604      	mov	r4, r0
 80013fa:	2002      	movs	r0, #2
 80013fc:	2b01      	cmp	r3, #1
 80013fe:	d033      	beq.n	8001468 <HAL_ETH_Stop+0x76>
 8001400:	6823      	ldr	r3, [r4, #0]
 8001402:	2601      	movs	r6, #1
 8001404:	f884 0044 	strb.w	r0, [r4, #68]	; 0x44
 8001408:	2500      	movs	r5, #0
 800140a:	f503 5280 	add.w	r2, r3, #4096	; 0x1000
 800140e:	f884 6045 	strb.w	r6, [r4, #69]	; 0x45
 8001412:	4630      	mov	r0, r6
 8001414:	6991      	ldr	r1, [r2, #24]
 8001416:	f421 5100 	bic.w	r1, r1, #8192	; 0x2000
 800141a:	6191      	str	r1, [r2, #24]
 800141c:	6991      	ldr	r1, [r2, #24]
 800141e:	f021 0102 	bic.w	r1, r1, #2
 8001422:	6191      	str	r1, [r2, #24]
 8001424:	9501      	str	r5, [sp, #4]
 8001426:	681a      	ldr	r2, [r3, #0]
 8001428:	f022 0204 	bic.w	r2, r2, #4
 800142c:	601a      	str	r2, [r3, #0]
 800142e:	681b      	ldr	r3, [r3, #0]
 8001430:	9301      	str	r3, [sp, #4]
 8001432:	f7ff fbcb 	bl	8000bcc <HAL_Delay>
 8001436:	6823      	ldr	r3, [r4, #0]
 8001438:	4620      	mov	r0, r4
 800143a:	9a01      	ldr	r2, [sp, #4]
 800143c:	601a      	str	r2, [r3, #0]
 800143e:	f7ff fc79 	bl	8000d34 <ETH_FlushTransmitFIFO>
 8001442:	6823      	ldr	r3, [r4, #0]
 8001444:	9500      	str	r5, [sp, #0]
 8001446:	4630      	mov	r0, r6
 8001448:	681a      	ldr	r2, [r3, #0]
 800144a:	f022 0208 	bic.w	r2, r2, #8
 800144e:	601a      	str	r2, [r3, #0]
 8001450:	681b      	ldr	r3, [r3, #0]
 8001452:	9300      	str	r3, [sp, #0]
 8001454:	f7ff fbba 	bl	8000bcc <HAL_Delay>
 8001458:	9a00      	ldr	r2, [sp, #0]
 800145a:	4628      	mov	r0, r5
 800145c:	6823      	ldr	r3, [r4, #0]
 800145e:	601a      	str	r2, [r3, #0]
 8001460:	f884 6044 	strb.w	r6, [r4, #68]	; 0x44
 8001464:	f884 5045 	strb.w	r5, [r4, #69]	; 0x45
 8001468:	b002      	add	sp, #8
 800146a:	bd70      	pop	{r4, r5, r6, pc}

0800146c <HAL_ETH_ConfigMAC>:
 800146c:	b5f8      	push	{r3, r4, r5, r6, r7, lr}
 800146e:	f890 3045 	ldrb.w	r3, [r0, #69]	; 0x45
 8001472:	4605      	mov	r5, r0
 8001474:	460c      	mov	r4, r1
 8001476:	2002      	movs	r0, #2
 8001478:	2b01      	cmp	r3, #1
 800147a:	d071      	beq.n	8001560 <HAL_ETH_ConfigMAC+0xf4>
 800147c:	2601      	movs	r6, #1
 800147e:	f885 0044 	strb.w	r0, [r5, #68]	; 0x44
 8001482:	682a      	ldr	r2, [r5, #0]
 8001484:	f885 6045 	strb.w	r6, [r5, #69]	; 0x45
 8001488:	e9d5 7002 	ldrd	r7, r0, [r5, #8]
 800148c:	2900      	cmp	r1, #0
 800148e:	d068      	beq.n	8001562 <HAL_ETH_ConfigMAC+0xf6>
 8001490:	6813      	ldr	r3, [r2, #0]
 8001492:	f8df c0ec 	ldr.w	ip, [pc, #236]	; 8001580 <HAL_ETH_ConfigMAC+0x114>
 8001496:	ea0c 0c03 	and.w	ip, ip, r3
 800149a:	e9d1 3100 	ldrd	r3, r1, [r1]
 800149e:	430b      	orrs	r3, r1
 80014a0:	68a1      	ldr	r1, [r4, #8]
 80014a2:	430b      	orrs	r3, r1
 80014a4:	68e1      	ldr	r1, [r4, #12]
 80014a6:	430b      	orrs	r3, r1
 80014a8:	6921      	ldr	r1, [r4, #16]
 80014aa:	430b      	orrs	r3, r1
 80014ac:	6961      	ldr	r1, [r4, #20]
 80014ae:	430b      	orrs	r3, r1
 80014b0:	69a1      	ldr	r1, [r4, #24]
 80014b2:	430b      	orrs	r3, r1
 80014b4:	69e1      	ldr	r1, [r4, #28]
 80014b6:	430b      	orrs	r3, r1
 80014b8:	6a21      	ldr	r1, [r4, #32]
 80014ba:	430b      	orrs	r3, r1
 80014bc:	6a61      	ldr	r1, [r4, #36]	; 0x24
 80014be:	430b      	orrs	r3, r1
 80014c0:	6aa1      	ldr	r1, [r4, #40]	; 0x28
 80014c2:	430b      	orrs	r3, r1
 80014c4:	433b      	orrs	r3, r7
 80014c6:	4303      	orrs	r3, r0
 80014c8:	4630      	mov	r0, r6
 80014ca:	ea43 030c 	orr.w	r3, r3, ip
 80014ce:	6013      	str	r3, [r2, #0]
 80014d0:	6817      	ldr	r7, [r2, #0]
 80014d2:	f7ff fb7b 	bl	8000bcc <HAL_Delay>
 80014d6:	682a      	ldr	r2, [r5, #0]
 80014d8:	4630      	mov	r0, r6
 80014da:	e9d4 310b 	ldrd	r3, r1, [r4, #44]	; 0x2c
 80014de:	6017      	str	r7, [r2, #0]
 80014e0:	430b      	orrs	r3, r1
 80014e2:	6b61      	ldr	r1, [r4, #52]	; 0x34
 80014e4:	430b      	orrs	r3, r1
 80014e6:	6ba1      	ldr	r1, [r4, #56]	; 0x38
 80014e8:	430b      	orrs	r3, r1
 80014ea:	6be1      	ldr	r1, [r4, #60]	; 0x3c
 80014ec:	430b      	orrs	r3, r1
 80014ee:	6c21      	ldr	r1, [r4, #64]	; 0x40
 80014f0:	430b      	orrs	r3, r1
 80014f2:	6c61      	ldr	r1, [r4, #68]	; 0x44
 80014f4:	430b      	orrs	r3, r1
 80014f6:	6ca1      	ldr	r1, [r4, #72]	; 0x48
 80014f8:	430b      	orrs	r3, r1
 80014fa:	6053      	str	r3, [r2, #4]
 80014fc:	6857      	ldr	r7, [r2, #4]
 80014fe:	f7ff fb65 	bl	8000bcc <HAL_Delay>
 8001502:	682a      	ldr	r2, [r5, #0]
 8001504:	6ce3      	ldr	r3, [r4, #76]	; 0x4c
 8001506:	6057      	str	r7, [r2, #4]
 8001508:	6093      	str	r3, [r2, #8]
 800150a:	6d23      	ldr	r3, [r4, #80]	; 0x50
 800150c:	60d3      	str	r3, [r2, #12]
 800150e:	6991      	ldr	r1, [r2, #24]
 8001510:	e9d4 3016 	ldrd	r3, r0, [r4, #88]	; 0x58
 8001514:	f021 01be 	bic.w	r1, r1, #190	; 0xbe
 8001518:	4303      	orrs	r3, r0
 800151a:	6e20      	ldr	r0, [r4, #96]	; 0x60
 800151c:	0409      	lsls	r1, r1, #16
 800151e:	4303      	orrs	r3, r0
 8001520:	6e60      	ldr	r0, [r4, #100]	; 0x64
 8001522:	0c09      	lsrs	r1, r1, #16
 8001524:	4303      	orrs	r3, r0
 8001526:	6ea0      	ldr	r0, [r4, #104]	; 0x68
 8001528:	4303      	orrs	r3, r0
 800152a:	6d60      	ldr	r0, [r4, #84]	; 0x54
 800152c:	ea43 4300 	orr.w	r3, r3, r0, lsl #16
 8001530:	4630      	mov	r0, r6
 8001532:	430b      	orrs	r3, r1
 8001534:	6193      	str	r3, [r2, #24]
 8001536:	6997      	ldr	r7, [r2, #24]
 8001538:	f7ff fb48 	bl	8000bcc <HAL_Delay>
 800153c:	682b      	ldr	r3, [r5, #0]
 800153e:	4630      	mov	r0, r6
 8001540:	e9d4 211b 	ldrd	r2, r1, [r4, #108]	; 0x6c
 8001544:	619f      	str	r7, [r3, #24]
 8001546:	430a      	orrs	r2, r1
 8001548:	61da      	str	r2, [r3, #28]
 800154a:	69dc      	ldr	r4, [r3, #28]
 800154c:	f7ff fb3e 	bl	8000bcc <HAL_Delay>
 8001550:	682b      	ldr	r3, [r5, #0]
 8001552:	61dc      	str	r4, [r3, #28]
 8001554:	2301      	movs	r3, #1
 8001556:	2000      	movs	r0, #0
 8001558:	f885 3044 	strb.w	r3, [r5, #68]	; 0x44
 800155c:	f885 0045 	strb.w	r0, [r5, #69]	; 0x45
 8001560:	bdf8      	pop	{r3, r4, r5, r6, r7, pc}
 8001562:	6811      	ldr	r1, [r2, #0]
 8001564:	ea47 0300 	orr.w	r3, r7, r0
 8001568:	4630      	mov	r0, r6
 800156a:	f421 4190 	bic.w	r1, r1, #18432	; 0x4800
 800156e:	430b      	orrs	r3, r1
 8001570:	6013      	str	r3, [r2, #0]
 8001572:	6814      	ldr	r4, [r2, #0]
 8001574:	f7ff fb2a 	bl	8000bcc <HAL_Delay>
 8001578:	682b      	ldr	r3, [r5, #0]
 800157a:	601c      	str	r4, [r3, #0]
 800157c:	e7ea      	b.n	8001554 <HAL_ETH_ConfigMAC+0xe8>
 800157e:	bf00      	nop
 8001580:	ff20810f 	.word	0xff20810f

08001584 <HAL_GPIO_Init>:
 8001584:	e92d 4ff7 	stmdb	sp!, {r0, r1, r2, r4, r5, r6, r7, r8, r9, sl, fp, lr}
 8001588:	2300      	movs	r3, #0
 800158a:	f8df 91bc 	ldr.w	r9, [pc, #444]	; 8001748 <HAL_GPIO_Init+0x1c4>
 800158e:	4a6c      	ldr	r2, [pc, #432]	; (8001740 <HAL_GPIO_Init+0x1bc>)
 8001590:	2401      	movs	r4, #1
 8001592:	680d      	ldr	r5, [r1, #0]
 8001594:	409c      	lsls	r4, r3
 8001596:	ea04 0c05 	and.w	ip, r4, r5
 800159a:	43ac      	bics	r4, r5
 800159c:	f040 80b6 	bne.w	800170c <HAL_GPIO_Init+0x188>
 80015a0:	684d      	ldr	r5, [r1, #4]
 80015a2:	ea4f 0843 	mov.w	r8, r3, lsl #1
 80015a6:	2603      	movs	r6, #3
 80015a8:	f005 0403 	and.w	r4, r5, #3
 80015ac:	fa06 f608 	lsl.w	r6, r6, r8
 80015b0:	1e67      	subs	r7, r4, #1
 80015b2:	43f6      	mvns	r6, r6
 80015b4:	2f01      	cmp	r7, #1
 80015b6:	d834      	bhi.n	8001622 <HAL_GPIO_Init+0x9e>
 80015b8:	6887      	ldr	r7, [r0, #8]
 80015ba:	ea07 0e06 	and.w	lr, r7, r6
 80015be:	68cf      	ldr	r7, [r1, #12]
 80015c0:	fa07 f708 	lsl.w	r7, r7, r8
 80015c4:	ea47 070e 	orr.w	r7, r7, lr
 80015c8:	6087      	str	r7, [r0, #8]
 80015ca:	6847      	ldr	r7, [r0, #4]
 80015cc:	ea27 0e0c 	bic.w	lr, r7, ip
 80015d0:	f3c5 1700 	ubfx	r7, r5, #4, #1
 80015d4:	409f      	lsls	r7, r3
 80015d6:	ea47 070e 	orr.w	r7, r7, lr
 80015da:	6047      	str	r7, [r0, #4]
 80015dc:	68c7      	ldr	r7, [r0, #12]
 80015de:	2c02      	cmp	r4, #2
 80015e0:	ea07 0e06 	and.w	lr, r7, r6
 80015e4:	688f      	ldr	r7, [r1, #8]
 80015e6:	fa07 f708 	lsl.w	r7, r7, r8
 80015ea:	ea47 070e 	orr.w	r7, r7, lr
 80015ee:	60c7      	str	r7, [r0, #12]
 80015f0:	d119      	bne.n	8001626 <HAL_GPIO_Init+0xa2>
 80015f2:	ea4f 0ad3 	mov.w	sl, r3, lsr #3
 80015f6:	f003 0b07 	and.w	fp, r3, #7
 80015fa:	f04f 0e0f 	mov.w	lr, #15
 80015fe:	eb00 0a8a 	add.w	sl, r0, sl, lsl #2
 8001602:	ea4f 0b8b 	mov.w	fp, fp, lsl #2
 8001606:	f8da 7020 	ldr.w	r7, [sl, #32]
 800160a:	fa0e fe0b 	lsl.w	lr, lr, fp
 800160e:	ea27 0e0e 	bic.w	lr, r7, lr
 8001612:	690f      	ldr	r7, [r1, #16]
 8001614:	fa07 f70b 	lsl.w	r7, r7, fp
 8001618:	ea47 070e 	orr.w	r7, r7, lr
 800161c:	f8ca 7020 	str.w	r7, [sl, #32]
 8001620:	e001      	b.n	8001626 <HAL_GPIO_Init+0xa2>
 8001622:	2c03      	cmp	r4, #3
 8001624:	d1da      	bne.n	80015dc <HAL_GPIO_Init+0x58>
 8001626:	6807      	ldr	r7, [r0, #0]
 8001628:	fa04 f408 	lsl.w	r4, r4, r8
 800162c:	f415 3f40 	tst.w	r5, #196608	; 0x30000
 8001630:	ea06 0607 	and.w	r6, r6, r7
 8001634:	ea46 0604 	orr.w	r6, r6, r4
 8001638:	6006      	str	r6, [r0, #0]
 800163a:	d067      	beq.n	800170c <HAL_GPIO_Init+0x188>
 800163c:	f8d9 4044 	ldr.w	r4, [r9, #68]	; 0x44
 8001640:	f023 0603 	bic.w	r6, r3, #3
 8001644:	f003 0703 	and.w	r7, r3, #3
 8001648:	f04f 0e0f 	mov.w	lr, #15
 800164c:	f444 4480 	orr.w	r4, r4, #16384	; 0x4000
 8001650:	f106 4680 	add.w	r6, r6, #1073741824	; 0x40000000
 8001654:	00bf      	lsls	r7, r7, #2
 8001656:	f8c9 4044 	str.w	r4, [r9, #68]	; 0x44
 800165a:	f506 369c 	add.w	r6, r6, #79872	; 0x13800
 800165e:	f8d9 4044 	ldr.w	r4, [r9, #68]	; 0x44
 8001662:	f404 4480 	and.w	r4, r4, #16384	; 0x4000
 8001666:	9401      	str	r4, [sp, #4]
 8001668:	9c01      	ldr	r4, [sp, #4]
 800166a:	fa0e f407 	lsl.w	r4, lr, r7
 800166e:	f8d6 8008 	ldr.w	r8, [r6, #8]
 8001672:	ea28 0e04 	bic.w	lr, r8, r4
 8001676:	4c33      	ldr	r4, [pc, #204]	; (8001744 <HAL_GPIO_Init+0x1c0>)
 8001678:	42a0      	cmp	r0, r4
 800167a:	d04e      	beq.n	800171a <HAL_GPIO_Init+0x196>
 800167c:	f504 6480 	add.w	r4, r4, #1024	; 0x400
 8001680:	42a0      	cmp	r0, r4
 8001682:	d04c      	beq.n	800171e <HAL_GPIO_Init+0x19a>
 8001684:	f504 6480 	add.w	r4, r4, #1024	; 0x400
 8001688:	42a0      	cmp	r0, r4
 800168a:	d04a      	beq.n	8001722 <HAL_GPIO_Init+0x19e>
 800168c:	f504 6480 	add.w	r4, r4, #1024	; 0x400
 8001690:	42a0      	cmp	r0, r4
 8001692:	d048      	beq.n	8001726 <HAL_GPIO_Init+0x1a2>
 8001694:	f504 6480 	add.w	r4, r4, #1024	; 0x400
 8001698:	42a0      	cmp	r0, r4
 800169a:	d046      	beq.n	800172a <HAL_GPIO_Init+0x1a6>
 800169c:	f504 6480 	add.w	r4, r4, #1024	; 0x400
 80016a0:	42a0      	cmp	r0, r4
 80016a2:	d044      	beq.n	800172e <HAL_GPIO_Init+0x1aa>
 80016a4:	f504 6480 	add.w	r4, r4, #1024	; 0x400
 80016a8:	42a0      	cmp	r0, r4
 80016aa:	d042      	beq.n	8001732 <HAL_GPIO_Init+0x1ae>
 80016ac:	f504 6480 	add.w	r4, r4, #1024	; 0x400
 80016b0:	42a0      	cmp	r0, r4
 80016b2:	d040      	beq.n	8001736 <HAL_GPIO_Init+0x1b2>
 80016b4:	f504 6480 	add.w	r4, r4, #1024	; 0x400
 80016b8:	42a0      	cmp	r0, r4
 80016ba:	d03e      	beq.n	800173a <HAL_GPIO_Init+0x1b6>
 80016bc:	f504 6480 	add.w	r4, r4, #1024	; 0x400
 80016c0:	42a0      	cmp	r0, r4
 80016c2:	bf0c      	ite	eq
 80016c4:	2409      	moveq	r4, #9
 80016c6:	240a      	movne	r4, #10
 80016c8:	40bc      	lsls	r4, r7
 80016ca:	02ef      	lsls	r7, r5, #11
 80016cc:	ea44 040e 	orr.w	r4, r4, lr
 80016d0:	60b4      	str	r4, [r6, #8]
 80016d2:	ea6f 060c 	mvn.w	r6, ip
 80016d6:	6894      	ldr	r4, [r2, #8]
 80016d8:	bf54      	ite	pl
 80016da:	4034      	andpl	r4, r6
 80016dc:	ea4c 0404 	orrmi.w	r4, ip, r4
 80016e0:	02af      	lsls	r7, r5, #10
 80016e2:	6094      	str	r4, [r2, #8]
 80016e4:	68d4      	ldr	r4, [r2, #12]
 80016e6:	bf54      	ite	pl
 80016e8:	4034      	andpl	r4, r6
 80016ea:	ea4c 0404 	orrmi.w	r4, ip, r4
 80016ee:	03af      	lsls	r7, r5, #14
 80016f0:	60d4      	str	r4, [r2, #12]
 80016f2:	6854      	ldr	r4, [r2, #4]
 80016f4:	bf54      	ite	pl
 80016f6:	4034      	andpl	r4, r6
 80016f8:	ea4c 0404 	orrmi.w	r4, ip, r4
 80016fc:	03ed      	lsls	r5, r5, #15
 80016fe:	6054      	str	r4, [r2, #4]
 8001700:	6814      	ldr	r4, [r2, #0]
 8001702:	bf54      	ite	pl
 8001704:	4034      	andpl	r4, r6
 8001706:	ea4c 0404 	orrmi.w	r4, ip, r4
 800170a:	6014      	str	r4, [r2, #0]
 800170c:	3301      	adds	r3, #1
 800170e:	2b10      	cmp	r3, #16
 8001710:	f47f af3e 	bne.w	8001590 <HAL_GPIO_Init+0xc>
 8001714:	b003      	add	sp, #12
 8001716:	e8bd 8ff0 	ldmia.w	sp!, {r4, r5, r6, r7, r8, r9, sl, fp, pc}
 800171a:	2400      	movs	r4, #0
 800171c:	e7d4      	b.n	80016c8 <HAL_GPIO_Init+0x144>
 800171e:	2401      	movs	r4, #1
 8001720:	e7d2      	b.n	80016c8 <HAL_GPIO_Init+0x144>
 8001722:	2402      	movs	r4, #2
 8001724:	e7d0      	b.n	80016c8 <HAL_GPIO_Init+0x144>
 8001726:	2403      	movs	r4, #3
 8001728:	e7ce      	b.n	80016c8 <HAL_GPIO_Init+0x144>
 800172a:	2404      	movs	r4, #4
 800172c:	e7cc      	b.n	80016c8 <HAL_GPIO_Init+0x144>
 800172e:	2405      	movs	r4, #5
 8001730:	e7ca      	b.n	80016c8 <HAL_GPIO_Init+0x144>
 8001732:	2406      	movs	r4, #6
 8001734:	e7c8      	b.n	80016c8 <HAL_GPIO_Init+0x144>
 8001736:	2407      	movs	r4, #7
 8001738:	e7c6      	b.n	80016c8 <HAL_GPIO_Init+0x144>
 800173a:	2408      	movs	r4, #8
 800173c:	e7c4      	b.n	80016c8 <HAL_GPIO_Init+0x144>
 800173e:	bf00      	nop
 8001740:	40013c00 	.word	0x40013c00
 8001744:	40020000 	.word	0x40020000
 8001748:	40023800 	.word	0x40023800

0800174c <HAL_GPIO_WritePin>:
 800174c:	b10a      	cbz	r2, 8001752 <HAL_GPIO_WritePin+0x6>
 800174e:	6181      	str	r1, [r0, #24]
 8001750:	4770      	bx	lr
 8001752:	0409      	lsls	r1, r1, #16
 8001754:	e7fb      	b.n	800174e <HAL_GPIO_WritePin+0x2>

08001756 <HAL_PCD_Init>:
 8001756:	b5f0      	push	{r4, r5, r6, r7, lr}
 8001758:	4604      	mov	r4, r0
 800175a:	b08b      	sub	sp, #44	; 0x2c
 800175c:	b360      	cbz	r0, 80017b8 <HAL_PCD_Init+0x62>
 800175e:	f890 33bd 	ldrb.w	r3, [r0, #957]	; 0x3bd
 8001762:	6805      	ldr	r5, [r0, #0]
 8001764:	f003 02ff 	and.w	r2, r3, #255	; 0xff
 8001768:	b91b      	cbnz	r3, 8001772 <HAL_PCD_Init+0x1c>
 800176a:	f880 23bc 	strb.w	r2, [r0, #956]	; 0x3bc
 800176e:	f7ff f8fb 	bl	8000968 <HAL_PCD_MspInit>
 8001772:	2303      	movs	r3, #3
 8001774:	466e      	mov	r6, sp
 8001776:	1d27      	adds	r7, r4, #4
 8001778:	f884 33bd 	strb.w	r3, [r4, #957]	; 0x3bd
 800177c:	6beb      	ldr	r3, [r5, #60]	; 0x3c
 800177e:	4625      	mov	r5, r4
 8001780:	f413 7380 	ands.w	r3, r3, #256	; 0x100
 8001784:	f855 0b10 	ldr.w	r0, [r5], #16
 8001788:	bf08      	it	eq
 800178a:	6123      	streq	r3, [r4, #16]
 800178c:	f001 f8db 	bl	8002946 <USB_DisableGlobalInt>
 8001790:	cd0f      	ldmia	r5!, {r0, r1, r2, r3}
 8001792:	c60f      	stmia	r6!, {r0, r1, r2, r3}
 8001794:	cd0f      	ldmia	r5!, {r0, r1, r2, r3}
 8001796:	c60f      	stmia	r6!, {r0, r1, r2, r3}
 8001798:	e895 0003 	ldmia.w	r5, {r0, r1}
 800179c:	4625      	mov	r5, r4
 800179e:	e886 0003 	stmia.w	r6, {r0, r1}
 80017a2:	e897 000e 	ldmia.w	r7, {r1, r2, r3}
 80017a6:	f855 0b10 	ldr.w	r0, [r5], #16
 80017aa:	f001 f891 	bl	80028d0 <USB_CoreInit>
 80017ae:	4606      	mov	r6, r0
 80017b0:	b120      	cbz	r0, 80017bc <HAL_PCD_Init+0x66>
 80017b2:	2302      	movs	r3, #2
 80017b4:	f884 33bd 	strb.w	r3, [r4, #957]	; 0x3bd
 80017b8:	2501      	movs	r5, #1
 80017ba:	e052      	b.n	8001862 <HAL_PCD_Init+0x10c>
 80017bc:	4601      	mov	r1, r0
 80017be:	6820      	ldr	r0, [r4, #0]
 80017c0:	f001 f8c7 	bl	8002952 <USB_SetCurrentMode>
 80017c4:	4630      	mov	r0, r6
 80017c6:	f8d4 c004 	ldr.w	ip, [r4, #4]
 80017ca:	261c      	movs	r6, #28
 80017cc:	f04f 0e01 	mov.w	lr, #1
 80017d0:	4601      	mov	r1, r0
 80017d2:	b2c2      	uxtb	r2, r0
 80017d4:	3001      	adds	r0, #1
 80017d6:	4594      	cmp	ip, r2
 80017d8:	d81b      	bhi.n	8001812 <HAL_PCD_Init+0xbc>
 80017da:	2300      	movs	r3, #0
 80017dc:	261c      	movs	r6, #28
 80017de:	4619      	mov	r1, r3
 80017e0:	b2d8      	uxtb	r0, r3
 80017e2:	3301      	adds	r3, #1
 80017e4:	4584      	cmp	ip, r0
 80017e6:	d822      	bhi.n	800182e <HAL_PCD_Init+0xd8>
 80017e8:	466e      	mov	r6, sp
 80017ea:	cd0f      	ldmia	r5!, {r0, r1, r2, r3}
 80017ec:	c60f      	stmia	r6!, {r0, r1, r2, r3}
 80017ee:	cd0f      	ldmia	r5!, {r0, r1, r2, r3}
 80017f0:	c60f      	stmia	r6!, {r0, r1, r2, r3}
 80017f2:	e895 0003 	ldmia.w	r5, {r0, r1}
 80017f6:	e886 0003 	stmia.w	r6, {r0, r1}
 80017fa:	e897 000e 	ldmia.w	r7, {r1, r2, r3}
 80017fe:	6820      	ldr	r0, [r4, #0]
 8001800:	f001 f924 	bl	8002a4c <USB_DevInit>
 8001804:	2301      	movs	r3, #1
 8001806:	4605      	mov	r5, r0
 8001808:	b1f0      	cbz	r0, 8001848 <HAL_PCD_Init+0xf2>
 800180a:	2202      	movs	r2, #2
 800180c:	f884 23bd 	strb.w	r2, [r4, #957]	; 0x3bd
 8001810:	e7d2      	b.n	80017b8 <HAL_PCD_Init+0x62>
 8001812:	fb06 4302 	mla	r3, r6, r2, r4
 8001816:	f883 e03d 	strb.w	lr, [r3, #61]	; 0x3d
 800181a:	f883 203c 	strb.w	r2, [r3, #60]	; 0x3c
 800181e:	f8a3 2042 	strh.w	r2, [r3, #66]	; 0x42
 8001822:	f883 103f 	strb.w	r1, [r3, #63]	; 0x3f
 8001826:	6519      	str	r1, [r3, #80]	; 0x50
 8001828:	e9c3 1111 	strd	r1, r1, [r3, #68]	; 0x44
 800182c:	e7d1      	b.n	80017d2 <HAL_PCD_Init+0x7c>
 800182e:	fb06 4200 	mla	r2, r6, r0, r4
 8001832:	f882 11fd 	strb.w	r1, [r2, #509]	; 0x1fd
 8001836:	f882 01fc 	strb.w	r0, [r2, #508]	; 0x1fc
 800183a:	f882 11ff 	strb.w	r1, [r2, #511]	; 0x1ff
 800183e:	f8c2 1210 	str.w	r1, [r2, #528]	; 0x210
 8001842:	e9c2 1181 	strd	r1, r1, [r2, #516]	; 0x204
 8001846:	e7cb      	b.n	80017e0 <HAL_PCD_Init+0x8a>
 8001848:	f884 0038 	strb.w	r0, [r4, #56]	; 0x38
 800184c:	f884 33bd 	strb.w	r3, [r4, #957]	; 0x3bd
 8001850:	6a63      	ldr	r3, [r4, #36]	; 0x24
 8001852:	2b01      	cmp	r3, #1
 8001854:	d102      	bne.n	800185c <HAL_PCD_Init+0x106>
 8001856:	4620      	mov	r0, r4
 8001858:	f000 f806 	bl	8001868 <HAL_PCDEx_ActivateLPM>
 800185c:	6820      	ldr	r0, [r4, #0]
 800185e:	f001 f9ab 	bl	8002bb8 <USB_DevDisconnect>
 8001862:	4628      	mov	r0, r5
 8001864:	b00b      	add	sp, #44	; 0x2c
 8001866:	bdf0      	pop	{r4, r5, r6, r7, pc}

08001868 <HAL_PCDEx_ActivateLPM>:
 8001868:	6802      	ldr	r2, [r0, #0]
 800186a:	2100      	movs	r1, #0
 800186c:	2301      	movs	r3, #1
 800186e:	f880 13f4 	strb.w	r1, [r0, #1012]	; 0x3f4
 8001872:	f8c0 33fc 	str.w	r3, [r0, #1020]	; 0x3fc
 8001876:	4608      	mov	r0, r1
 8001878:	6993      	ldr	r3, [r2, #24]
 800187a:	f043 6300 	orr.w	r3, r3, #134217728	; 0x8000000
 800187e:	6193      	str	r3, [r2, #24]
 8001880:	6d53      	ldr	r3, [r2, #84]	; 0x54
 8001882:	f043 5380 	orr.w	r3, r3, #268435456	; 0x10000000
 8001886:	f043 0303 	orr.w	r3, r3, #3
 800188a:	6553      	str	r3, [r2, #84]	; 0x54
 800188c:	4770      	bx	lr
	...

08001890 <HAL_PWR_EnableBkUpAccess>:
 8001890:	4a02      	ldr	r2, [pc, #8]	; (800189c <HAL_PWR_EnableBkUpAccess+0xc>)
 8001892:	6813      	ldr	r3, [r2, #0]
 8001894:	f443 7380 	orr.w	r3, r3, #256	; 0x100
 8001898:	6013      	str	r3, [r2, #0]
 800189a:	4770      	bx	lr
 800189c:	40007000 	.word	0x40007000

080018a0 <HAL_PWREx_EnableOverDrive>:
 80018a0:	4b19      	ldr	r3, [pc, #100]	; (8001908 <HAL_PWREx_EnableOverDrive+0x68>)
 80018a2:	b537      	push	{r0, r1, r2, r4, r5, lr}
 80018a4:	6c1a      	ldr	r2, [r3, #64]	; 0x40
 80018a6:	4c19      	ldr	r4, [pc, #100]	; (800190c <HAL_PWREx_EnableOverDrive+0x6c>)
 80018a8:	f042 5280 	orr.w	r2, r2, #268435456	; 0x10000000
 80018ac:	641a      	str	r2, [r3, #64]	; 0x40
 80018ae:	6c1b      	ldr	r3, [r3, #64]	; 0x40
 80018b0:	f003 5380 	and.w	r3, r3, #268435456	; 0x10000000
 80018b4:	9301      	str	r3, [sp, #4]
 80018b6:	9b01      	ldr	r3, [sp, #4]
 80018b8:	6823      	ldr	r3, [r4, #0]
 80018ba:	f443 3380 	orr.w	r3, r3, #65536	; 0x10000
 80018be:	6023      	str	r3, [r4, #0]
 80018c0:	f7ff f97e 	bl	8000bc0 <HAL_GetTick>
 80018c4:	4605      	mov	r5, r0
 80018c6:	6863      	ldr	r3, [r4, #4]
 80018c8:	03da      	lsls	r2, r3, #15
 80018ca:	d50c      	bpl.n	80018e6 <HAL_PWREx_EnableOverDrive+0x46>
 80018cc:	6823      	ldr	r3, [r4, #0]
 80018ce:	4d0f      	ldr	r5, [pc, #60]	; (800190c <HAL_PWREx_EnableOverDrive+0x6c>)
 80018d0:	f443 3300 	orr.w	r3, r3, #131072	; 0x20000
 80018d4:	6023      	str	r3, [r4, #0]
 80018d6:	f7ff f973 	bl	8000bc0 <HAL_GetTick>
 80018da:	4604      	mov	r4, r0
 80018dc:	686b      	ldr	r3, [r5, #4]
 80018de:	039b      	lsls	r3, r3, #14
 80018e0:	d50a      	bpl.n	80018f8 <HAL_PWREx_EnableOverDrive+0x58>
 80018e2:	2000      	movs	r0, #0
 80018e4:	e006      	b.n	80018f4 <HAL_PWREx_EnableOverDrive+0x54>
 80018e6:	f7ff f96b 	bl	8000bc0 <HAL_GetTick>
 80018ea:	1b40      	subs	r0, r0, r5
 80018ec:	f5b0 7f7a 	cmp.w	r0, #1000	; 0x3e8
 80018f0:	d9e9      	bls.n	80018c6 <HAL_PWREx_EnableOverDrive+0x26>
 80018f2:	2003      	movs	r0, #3
 80018f4:	b003      	add	sp, #12
 80018f6:	bd30      	pop	{r4, r5, pc}
 80018f8:	f7ff f962 	bl	8000bc0 <HAL_GetTick>
 80018fc:	1b00      	subs	r0, r0, r4
 80018fe:	f5b0 7f7a 	cmp.w	r0, #1000	; 0x3e8
 8001902:	d9eb      	bls.n	80018dc <HAL_PWREx_EnableOverDrive+0x3c>
 8001904:	e7f5      	b.n	80018f2 <HAL_PWREx_EnableOverDrive+0x52>
 8001906:	bf00      	nop
 8001908:	40023800 	.word	0x40023800
 800190c:	40007000 	.word	0x40007000

08001910 <HAL_RCC_OscConfig>:
 8001910:	e92d 41f3 	stmdb	sp!, {r0, r1, r4, r5, r6, r7, r8, lr}
 8001914:	4604      	mov	r4, r0
 8001916:	b340      	cbz	r0, 800196a <HAL_RCC_OscConfig+0x5a>
 8001918:	6803      	ldr	r3, [r0, #0]
 800191a:	07db      	lsls	r3, r3, #31
 800191c:	d410      	bmi.n	8001940 <HAL_RCC_OscConfig+0x30>
 800191e:	6823      	ldr	r3, [r4, #0]
 8001920:	079f      	lsls	r7, r3, #30
 8001922:	d464      	bmi.n	80019ee <HAL_RCC_OscConfig+0xde>
 8001924:	6823      	ldr	r3, [r4, #0]
 8001926:	0719      	lsls	r1, r3, #28
 8001928:	f100 80aa 	bmi.w	8001a80 <HAL_RCC_OscConfig+0x170>
 800192c:	6823      	ldr	r3, [r4, #0]
 800192e:	075a      	lsls	r2, r3, #29
 8001930:	f100 80cb 	bmi.w	8001aca <HAL_RCC_OscConfig+0x1ba>
 8001934:	69a2      	ldr	r2, [r4, #24]
 8001936:	2a00      	cmp	r2, #0
 8001938:	f040 8134 	bne.w	8001ba4 <HAL_RCC_OscConfig+0x294>
 800193c:	2000      	movs	r0, #0
 800193e:	e02b      	b.n	8001998 <HAL_RCC_OscConfig+0x88>
 8001940:	4b96      	ldr	r3, [pc, #600]	; (8001b9c <HAL_RCC_OscConfig+0x28c>)
 8001942:	689a      	ldr	r2, [r3, #8]
 8001944:	f002 020c 	and.w	r2, r2, #12
 8001948:	2a04      	cmp	r2, #4
 800194a:	d007      	beq.n	800195c <HAL_RCC_OscConfig+0x4c>
 800194c:	689a      	ldr	r2, [r3, #8]
 800194e:	f002 020c 	and.w	r2, r2, #12
 8001952:	2a08      	cmp	r2, #8
 8001954:	d10b      	bne.n	800196e <HAL_RCC_OscConfig+0x5e>
 8001956:	685a      	ldr	r2, [r3, #4]
 8001958:	0256      	lsls	r6, r2, #9
 800195a:	d508      	bpl.n	800196e <HAL_RCC_OscConfig+0x5e>
 800195c:	4b8f      	ldr	r3, [pc, #572]	; (8001b9c <HAL_RCC_OscConfig+0x28c>)
 800195e:	681b      	ldr	r3, [r3, #0]
 8001960:	039d      	lsls	r5, r3, #14
 8001962:	d5dc      	bpl.n	800191e <HAL_RCC_OscConfig+0xe>
 8001964:	6863      	ldr	r3, [r4, #4]
 8001966:	2b00      	cmp	r3, #0
 8001968:	d1d9      	bne.n	800191e <HAL_RCC_OscConfig+0xe>
 800196a:	2001      	movs	r0, #1
 800196c:	e014      	b.n	8001998 <HAL_RCC_OscConfig+0x88>
 800196e:	6862      	ldr	r2, [r4, #4]
 8001970:	f5b2 3f80 	cmp.w	r2, #65536	; 0x10000
 8001974:	d113      	bne.n	800199e <HAL_RCC_OscConfig+0x8e>
 8001976:	681a      	ldr	r2, [r3, #0]
 8001978:	f442 3280 	orr.w	r2, r2, #65536	; 0x10000
 800197c:	601a      	str	r2, [r3, #0]
 800197e:	f7ff f91f 	bl	8000bc0 <HAL_GetTick>
 8001982:	4e86      	ldr	r6, [pc, #536]	; (8001b9c <HAL_RCC_OscConfig+0x28c>)
 8001984:	4605      	mov	r5, r0
 8001986:	6833      	ldr	r3, [r6, #0]
 8001988:	0398      	lsls	r0, r3, #14
 800198a:	d4c8      	bmi.n	800191e <HAL_RCC_OscConfig+0xe>
 800198c:	f7ff f918 	bl	8000bc0 <HAL_GetTick>
 8001990:	1b40      	subs	r0, r0, r5
 8001992:	2864      	cmp	r0, #100	; 0x64
 8001994:	d9f7      	bls.n	8001986 <HAL_RCC_OscConfig+0x76>
 8001996:	2003      	movs	r0, #3
 8001998:	b002      	add	sp, #8
 800199a:	e8bd 81f0 	ldmia.w	sp!, {r4, r5, r6, r7, r8, pc}
 800199e:	4d7f      	ldr	r5, [pc, #508]	; (8001b9c <HAL_RCC_OscConfig+0x28c>)
 80019a0:	682b      	ldr	r3, [r5, #0]
 80019a2:	b992      	cbnz	r2, 80019ca <HAL_RCC_OscConfig+0xba>
 80019a4:	f423 3380 	bic.w	r3, r3, #65536	; 0x10000
 80019a8:	602b      	str	r3, [r5, #0]
 80019aa:	682b      	ldr	r3, [r5, #0]
 80019ac:	f423 2380 	bic.w	r3, r3, #262144	; 0x40000
 80019b0:	602b      	str	r3, [r5, #0]
 80019b2:	f7ff f905 	bl	8000bc0 <HAL_GetTick>
 80019b6:	4606      	mov	r6, r0
 80019b8:	682b      	ldr	r3, [r5, #0]
 80019ba:	0399      	lsls	r1, r3, #14
 80019bc:	d5af      	bpl.n	800191e <HAL_RCC_OscConfig+0xe>
 80019be:	f7ff f8ff 	bl	8000bc0 <HAL_GetTick>
 80019c2:	1b80      	subs	r0, r0, r6
 80019c4:	2864      	cmp	r0, #100	; 0x64
 80019c6:	d9f7      	bls.n	80019b8 <HAL_RCC_OscConfig+0xa8>
 80019c8:	e7e5      	b.n	8001996 <HAL_RCC_OscConfig+0x86>
 80019ca:	f5b2 2fa0 	cmp.w	r2, #327680	; 0x50000
 80019ce:	d107      	bne.n	80019e0 <HAL_RCC_OscConfig+0xd0>
 80019d0:	f443 2380 	orr.w	r3, r3, #262144	; 0x40000
 80019d4:	602b      	str	r3, [r5, #0]
 80019d6:	682b      	ldr	r3, [r5, #0]
 80019d8:	f443 3380 	orr.w	r3, r3, #65536	; 0x10000
 80019dc:	602b      	str	r3, [r5, #0]
 80019de:	e7ce      	b.n	800197e <HAL_RCC_OscConfig+0x6e>
 80019e0:	f423 3380 	bic.w	r3, r3, #65536	; 0x10000
 80019e4:	602b      	str	r3, [r5, #0]
 80019e6:	682b      	ldr	r3, [r5, #0]
 80019e8:	f423 2380 	bic.w	r3, r3, #262144	; 0x40000
 80019ec:	e7f6      	b.n	80019dc <HAL_RCC_OscConfig+0xcc>
 80019ee:	4b6b      	ldr	r3, [pc, #428]	; (8001b9c <HAL_RCC_OscConfig+0x28c>)
 80019f0:	689a      	ldr	r2, [r3, #8]
 80019f2:	f012 0f0c 	tst.w	r2, #12
 80019f6:	d007      	beq.n	8001a08 <HAL_RCC_OscConfig+0xf8>
 80019f8:	689a      	ldr	r2, [r3, #8]
 80019fa:	f002 020c 	and.w	r2, r2, #12
 80019fe:	2a08      	cmp	r2, #8
 8001a00:	d111      	bne.n	8001a26 <HAL_RCC_OscConfig+0x116>
 8001a02:	685a      	ldr	r2, [r3, #4]
 8001a04:	0252      	lsls	r2, r2, #9
 8001a06:	d40e      	bmi.n	8001a26 <HAL_RCC_OscConfig+0x116>
 8001a08:	4a64      	ldr	r2, [pc, #400]	; (8001b9c <HAL_RCC_OscConfig+0x28c>)
 8001a0a:	6813      	ldr	r3, [r2, #0]
 8001a0c:	079b      	lsls	r3, r3, #30
 8001a0e:	d502      	bpl.n	8001a16 <HAL_RCC_OscConfig+0x106>
 8001a10:	68e3      	ldr	r3, [r4, #12]
 8001a12:	2b01      	cmp	r3, #1
 8001a14:	d1a9      	bne.n	800196a <HAL_RCC_OscConfig+0x5a>
 8001a16:	6813      	ldr	r3, [r2, #0]
 8001a18:	6921      	ldr	r1, [r4, #16]
 8001a1a:	f023 03f8 	bic.w	r3, r3, #248	; 0xf8
 8001a1e:	ea43 03c1 	orr.w	r3, r3, r1, lsl #3
 8001a22:	6013      	str	r3, [r2, #0]
 8001a24:	e77e      	b.n	8001924 <HAL_RCC_OscConfig+0x14>
 8001a26:	68e2      	ldr	r2, [r4, #12]
 8001a28:	b1c2      	cbz	r2, 8001a5c <HAL_RCC_OscConfig+0x14c>
 8001a2a:	681a      	ldr	r2, [r3, #0]
 8001a2c:	4d5b      	ldr	r5, [pc, #364]	; (8001b9c <HAL_RCC_OscConfig+0x28c>)
 8001a2e:	f042 0201 	orr.w	r2, r2, #1
 8001a32:	601a      	str	r2, [r3, #0]
 8001a34:	f7ff f8c4 	bl	8000bc0 <HAL_GetTick>
 8001a38:	4606      	mov	r6, r0
 8001a3a:	682b      	ldr	r3, [r5, #0]
 8001a3c:	079f      	lsls	r7, r3, #30
 8001a3e:	d507      	bpl.n	8001a50 <HAL_RCC_OscConfig+0x140>
 8001a40:	682b      	ldr	r3, [r5, #0]
 8001a42:	6922      	ldr	r2, [r4, #16]
 8001a44:	f023 03f8 	bic.w	r3, r3, #248	; 0xf8
 8001a48:	ea43 03c2 	orr.w	r3, r3, r2, lsl #3
 8001a4c:	602b      	str	r3, [r5, #0]
 8001a4e:	e769      	b.n	8001924 <HAL_RCC_OscConfig+0x14>
 8001a50:	f7ff f8b6 	bl	8000bc0 <HAL_GetTick>
 8001a54:	1b80      	subs	r0, r0, r6
 8001a56:	2802      	cmp	r0, #2
 8001a58:	d9ef      	bls.n	8001a3a <HAL_RCC_OscConfig+0x12a>
 8001a5a:	e79c      	b.n	8001996 <HAL_RCC_OscConfig+0x86>
 8001a5c:	681a      	ldr	r2, [r3, #0]
 8001a5e:	4e4f      	ldr	r6, [pc, #316]	; (8001b9c <HAL_RCC_OscConfig+0x28c>)
 8001a60:	f022 0201 	bic.w	r2, r2, #1
 8001a64:	601a      	str	r2, [r3, #0]
 8001a66:	f7ff f8ab 	bl	8000bc0 <HAL_GetTick>
 8001a6a:	4605      	mov	r5, r0
 8001a6c:	6833      	ldr	r3, [r6, #0]
 8001a6e:	0798      	lsls	r0, r3, #30
 8001a70:	f57f af58 	bpl.w	8001924 <HAL_RCC_OscConfig+0x14>
 8001a74:	f7ff f8a4 	bl	8000bc0 <HAL_GetTick>
 8001a78:	1b40      	subs	r0, r0, r5
 8001a7a:	2802      	cmp	r0, #2
 8001a7c:	d9f6      	bls.n	8001a6c <HAL_RCC_OscConfig+0x15c>
 8001a7e:	e78a      	b.n	8001996 <HAL_RCC_OscConfig+0x86>
 8001a80:	6963      	ldr	r3, [r4, #20]
 8001a82:	4d46      	ldr	r5, [pc, #280]	; (8001b9c <HAL_RCC_OscConfig+0x28c>)
 8001a84:	b183      	cbz	r3, 8001aa8 <HAL_RCC_OscConfig+0x198>
 8001a86:	6f6b      	ldr	r3, [r5, #116]	; 0x74
 8001a88:	f043 0301 	orr.w	r3, r3, #1
 8001a8c:	676b      	str	r3, [r5, #116]	; 0x74
 8001a8e:	f7ff f897 	bl	8000bc0 <HAL_GetTick>
 8001a92:	4606      	mov	r6, r0
 8001a94:	6f6b      	ldr	r3, [r5, #116]	; 0x74
 8001a96:	079b      	lsls	r3, r3, #30
 8001a98:	f53f af48 	bmi.w	800192c <HAL_RCC_OscConfig+0x1c>
 8001a9c:	f7ff f890 	bl	8000bc0 <HAL_GetTick>
 8001aa0:	1b80      	subs	r0, r0, r6
 8001aa2:	2802      	cmp	r0, #2
 8001aa4:	d9f6      	bls.n	8001a94 <HAL_RCC_OscConfig+0x184>
 8001aa6:	e776      	b.n	8001996 <HAL_RCC_OscConfig+0x86>
 8001aa8:	6f6b      	ldr	r3, [r5, #116]	; 0x74
 8001aaa:	f023 0301 	bic.w	r3, r3, #1
 8001aae:	676b      	str	r3, [r5, #116]	; 0x74
 8001ab0:	f7ff f886 	bl	8000bc0 <HAL_GetTick>
 8001ab4:	4606      	mov	r6, r0
 8001ab6:	6f6b      	ldr	r3, [r5, #116]	; 0x74
 8001ab8:	079f      	lsls	r7, r3, #30
 8001aba:	f57f af37 	bpl.w	800192c <HAL_RCC_OscConfig+0x1c>
 8001abe:	f7ff f87f 	bl	8000bc0 <HAL_GetTick>
 8001ac2:	1b80      	subs	r0, r0, r6
 8001ac4:	2802      	cmp	r0, #2
 8001ac6:	d9f6      	bls.n	8001ab6 <HAL_RCC_OscConfig+0x1a6>
 8001ac8:	e765      	b.n	8001996 <HAL_RCC_OscConfig+0x86>
 8001aca:	4b34      	ldr	r3, [pc, #208]	; (8001b9c <HAL_RCC_OscConfig+0x28c>)
 8001acc:	6c1a      	ldr	r2, [r3, #64]	; 0x40
 8001ace:	00d0      	lsls	r0, r2, #3
 8001ad0:	d427      	bmi.n	8001b22 <HAL_RCC_OscConfig+0x212>
 8001ad2:	6c1a      	ldr	r2, [r3, #64]	; 0x40
 8001ad4:	2701      	movs	r7, #1
 8001ad6:	f042 5280 	orr.w	r2, r2, #268435456	; 0x10000000
 8001ada:	641a      	str	r2, [r3, #64]	; 0x40
 8001adc:	6c1b      	ldr	r3, [r3, #64]	; 0x40
 8001ade:	f003 5380 	and.w	r3, r3, #268435456	; 0x10000000
 8001ae2:	9301      	str	r3, [sp, #4]
 8001ae4:	9b01      	ldr	r3, [sp, #4]
 8001ae6:	4d2e      	ldr	r5, [pc, #184]	; (8001ba0 <HAL_RCC_OscConfig+0x290>)
 8001ae8:	682b      	ldr	r3, [r5, #0]
 8001aea:	05d9      	lsls	r1, r3, #23
 8001aec:	d51b      	bpl.n	8001b26 <HAL_RCC_OscConfig+0x216>
 8001aee:	68a3      	ldr	r3, [r4, #8]
 8001af0:	4d2a      	ldr	r5, [pc, #168]	; (8001b9c <HAL_RCC_OscConfig+0x28c>)
 8001af2:	2b01      	cmp	r3, #1
 8001af4:	d127      	bne.n	8001b46 <HAL_RCC_OscConfig+0x236>
 8001af6:	6f2b      	ldr	r3, [r5, #112]	; 0x70
 8001af8:	f043 0301 	orr.w	r3, r3, #1
 8001afc:	672b      	str	r3, [r5, #112]	; 0x70
 8001afe:	f241 3888 	movw	r8, #5000	; 0x1388
 8001b02:	f7ff f85d 	bl	8000bc0 <HAL_GetTick>
 8001b06:	4e25      	ldr	r6, [pc, #148]	; (8001b9c <HAL_RCC_OscConfig+0x28c>)
 8001b08:	4605      	mov	r5, r0
 8001b0a:	6f33      	ldr	r3, [r6, #112]	; 0x70
 8001b0c:	079b      	lsls	r3, r3, #30
 8001b0e:	d53f      	bpl.n	8001b90 <HAL_RCC_OscConfig+0x280>
 8001b10:	2f00      	cmp	r7, #0
 8001b12:	f43f af0f 	beq.w	8001934 <HAL_RCC_OscConfig+0x24>
 8001b16:	4a21      	ldr	r2, [pc, #132]	; (8001b9c <HAL_RCC_OscConfig+0x28c>)
 8001b18:	6c13      	ldr	r3, [r2, #64]	; 0x40
 8001b1a:	f023 5380 	bic.w	r3, r3, #268435456	; 0x10000000
 8001b1e:	6413      	str	r3, [r2, #64]	; 0x40
 8001b20:	e708      	b.n	8001934 <HAL_RCC_OscConfig+0x24>
 8001b22:	2700      	movs	r7, #0
 8001b24:	e7df      	b.n	8001ae6 <HAL_RCC_OscConfig+0x1d6>
 8001b26:	682b      	ldr	r3, [r5, #0]
 8001b28:	f443 7380 	orr.w	r3, r3, #256	; 0x100
 8001b2c:	602b      	str	r3, [r5, #0]
 8001b2e:	f7ff f847 	bl	8000bc0 <HAL_GetTick>
 8001b32:	4606      	mov	r6, r0
 8001b34:	682b      	ldr	r3, [r5, #0]
 8001b36:	05da      	lsls	r2, r3, #23
 8001b38:	d4d9      	bmi.n	8001aee <HAL_RCC_OscConfig+0x1de>
 8001b3a:	f7ff f841 	bl	8000bc0 <HAL_GetTick>
 8001b3e:	1b80      	subs	r0, r0, r6
 8001b40:	2864      	cmp	r0, #100	; 0x64
 8001b42:	d9f7      	bls.n	8001b34 <HAL_RCC_OscConfig+0x224>
 8001b44:	e727      	b.n	8001996 <HAL_RCC_OscConfig+0x86>
 8001b46:	b9ab      	cbnz	r3, 8001b74 <HAL_RCC_OscConfig+0x264>
 8001b48:	6f2b      	ldr	r3, [r5, #112]	; 0x70
 8001b4a:	f241 3888 	movw	r8, #5000	; 0x1388
 8001b4e:	f023 0301 	bic.w	r3, r3, #1
 8001b52:	672b      	str	r3, [r5, #112]	; 0x70
 8001b54:	6f2b      	ldr	r3, [r5, #112]	; 0x70
 8001b56:	f023 0304 	bic.w	r3, r3, #4
 8001b5a:	672b      	str	r3, [r5, #112]	; 0x70
 8001b5c:	f7ff f830 	bl	8000bc0 <HAL_GetTick>
 8001b60:	4606      	mov	r6, r0
 8001b62:	6f2b      	ldr	r3, [r5, #112]	; 0x70
 8001b64:	0798      	lsls	r0, r3, #30
 8001b66:	d5d3      	bpl.n	8001b10 <HAL_RCC_OscConfig+0x200>
 8001b68:	f7ff f82a 	bl	8000bc0 <HAL_GetTick>
 8001b6c:	1b80      	subs	r0, r0, r6
 8001b6e:	4540      	cmp	r0, r8
 8001b70:	d9f7      	bls.n	8001b62 <HAL_RCC_OscConfig+0x252>
 8001b72:	e710      	b.n	8001996 <HAL_RCC_OscConfig+0x86>
 8001b74:	2b05      	cmp	r3, #5
 8001b76:	6f2b      	ldr	r3, [r5, #112]	; 0x70
 8001b78:	d103      	bne.n	8001b82 <HAL_RCC_OscConfig+0x272>
 8001b7a:	f043 0304 	orr.w	r3, r3, #4
 8001b7e:	672b      	str	r3, [r5, #112]	; 0x70
 8001b80:	e7b9      	b.n	8001af6 <HAL_RCC_OscConfig+0x1e6>
 8001b82:	f023 0301 	bic.w	r3, r3, #1
 8001b86:	672b      	str	r3, [r5, #112]	; 0x70
 8001b88:	6f2b      	ldr	r3, [r5, #112]	; 0x70
 8001b8a:	f023 0304 	bic.w	r3, r3, #4
 8001b8e:	e7b5      	b.n	8001afc <HAL_RCC_OscConfig+0x1ec>
 8001b90:	f7ff f816 	bl	8000bc0 <HAL_GetTick>
 8001b94:	1b40      	subs	r0, r0, r5
 8001b96:	4540      	cmp	r0, r8
 8001b98:	d9b7      	bls.n	8001b0a <HAL_RCC_OscConfig+0x1fa>
 8001b9a:	e6fc      	b.n	8001996 <HAL_RCC_OscConfig+0x86>
 8001b9c:	40023800 	.word	0x40023800
 8001ba0:	40007000 	.word	0x40007000
 8001ba4:	4d3c      	ldr	r5, [pc, #240]	; (8001c98 <HAL_RCC_OscConfig+0x388>)
 8001ba6:	68ab      	ldr	r3, [r5, #8]
 8001ba8:	f003 030c 	and.w	r3, r3, #12
 8001bac:	2b08      	cmp	r3, #8
 8001bae:	d042      	beq.n	8001c36 <HAL_RCC_OscConfig+0x326>
 8001bb0:	682b      	ldr	r3, [r5, #0]
 8001bb2:	2a02      	cmp	r2, #2
 8001bb4:	f023 7380 	bic.w	r3, r3, #16777216	; 0x1000000
 8001bb8:	602b      	str	r3, [r5, #0]
 8001bba:	d12f      	bne.n	8001c1c <HAL_RCC_OscConfig+0x30c>
 8001bbc:	f7ff f800 	bl	8000bc0 <HAL_GetTick>
 8001bc0:	4606      	mov	r6, r0
 8001bc2:	682b      	ldr	r3, [r5, #0]
 8001bc4:	0199      	lsls	r1, r3, #6
 8001bc6:	d423      	bmi.n	8001c10 <HAL_RCC_OscConfig+0x300>
 8001bc8:	e9d4 3207 	ldrd	r3, r2, [r4, #28]
 8001bcc:	4313      	orrs	r3, r2
 8001bce:	6a62      	ldr	r2, [r4, #36]	; 0x24
 8001bd0:	ea43 1382 	orr.w	r3, r3, r2, lsl #6
 8001bd4:	6ae2      	ldr	r2, [r4, #44]	; 0x2c
 8001bd6:	ea43 6302 	orr.w	r3, r3, r2, lsl #24
 8001bda:	6b22      	ldr	r2, [r4, #48]	; 0x30
 8001bdc:	ea43 7302 	orr.w	r3, r3, r2, lsl #28
 8001be0:	6aa2      	ldr	r2, [r4, #40]	; 0x28
 8001be2:	0852      	lsrs	r2, r2, #1
 8001be4:	3a01      	subs	r2, #1
 8001be6:	ea43 4302 	orr.w	r3, r3, r2, lsl #16
 8001bea:	606b      	str	r3, [r5, #4]
 8001bec:	682b      	ldr	r3, [r5, #0]
 8001bee:	f043 7380 	orr.w	r3, r3, #16777216	; 0x1000000
 8001bf2:	602b      	str	r3, [r5, #0]
 8001bf4:	f7fe ffe4 	bl	8000bc0 <HAL_GetTick>
 8001bf8:	4d27      	ldr	r5, [pc, #156]	; (8001c98 <HAL_RCC_OscConfig+0x388>)
 8001bfa:	4604      	mov	r4, r0
 8001bfc:	682b      	ldr	r3, [r5, #0]
 8001bfe:	019a      	lsls	r2, r3, #6
 8001c00:	f53f ae9c 	bmi.w	800193c <HAL_RCC_OscConfig+0x2c>
 8001c04:	f7fe ffdc 	bl	8000bc0 <HAL_GetTick>
 8001c08:	1b00      	subs	r0, r0, r4
 8001c0a:	2802      	cmp	r0, #2
 8001c0c:	d9f6      	bls.n	8001bfc <HAL_RCC_OscConfig+0x2ec>
 8001c0e:	e6c2      	b.n	8001996 <HAL_RCC_OscConfig+0x86>
 8001c10:	f7fe ffd6 	bl	8000bc0 <HAL_GetTick>
 8001c14:	1b80      	subs	r0, r0, r6
 8001c16:	2802      	cmp	r0, #2
 8001c18:	d9d3      	bls.n	8001bc2 <HAL_RCC_OscConfig+0x2b2>
 8001c1a:	e6bc      	b.n	8001996 <HAL_RCC_OscConfig+0x86>
 8001c1c:	f7fe ffd0 	bl	8000bc0 <HAL_GetTick>
 8001c20:	4604      	mov	r4, r0
 8001c22:	682b      	ldr	r3, [r5, #0]
 8001c24:	019b      	lsls	r3, r3, #6
 8001c26:	f57f ae89 	bpl.w	800193c <HAL_RCC_OscConfig+0x2c>
 8001c2a:	f7fe ffc9 	bl	8000bc0 <HAL_GetTick>
 8001c2e:	1b00      	subs	r0, r0, r4
 8001c30:	2802      	cmp	r0, #2
 8001c32:	d9f6      	bls.n	8001c22 <HAL_RCC_OscConfig+0x312>
 8001c34:	e6af      	b.n	8001996 <HAL_RCC_OscConfig+0x86>
 8001c36:	2a01      	cmp	r2, #1
 8001c38:	686b      	ldr	r3, [r5, #4]
 8001c3a:	f43f ae96 	beq.w	800196a <HAL_RCC_OscConfig+0x5a>
 8001c3e:	f403 0280 	and.w	r2, r3, #4194304	; 0x400000
 8001c42:	69e1      	ldr	r1, [r4, #28]
 8001c44:	428a      	cmp	r2, r1
 8001c46:	f47f ae90 	bne.w	800196a <HAL_RCC_OscConfig+0x5a>
 8001c4a:	f003 023f 	and.w	r2, r3, #63	; 0x3f
 8001c4e:	6a21      	ldr	r1, [r4, #32]
 8001c50:	428a      	cmp	r2, r1
 8001c52:	f47f ae8a 	bne.w	800196a <HAL_RCC_OscConfig+0x5a>
 8001c56:	f647 72c0 	movw	r2, #32704	; 0x7fc0
 8001c5a:	6a61      	ldr	r1, [r4, #36]	; 0x24
 8001c5c:	401a      	ands	r2, r3
 8001c5e:	ebb2 1f81 	cmp.w	r2, r1, lsl #6
 8001c62:	f47f ae82 	bne.w	800196a <HAL_RCC_OscConfig+0x5a>
 8001c66:	6aa2      	ldr	r2, [r4, #40]	; 0x28
 8001c68:	f403 3140 	and.w	r1, r3, #196608	; 0x30000
 8001c6c:	0852      	lsrs	r2, r2, #1
 8001c6e:	3a01      	subs	r2, #1
 8001c70:	ebb1 4f02 	cmp.w	r1, r2, lsl #16
 8001c74:	f47f ae79 	bne.w	800196a <HAL_RCC_OscConfig+0x5a>
 8001c78:	f003 6270 	and.w	r2, r3, #251658240	; 0xf000000
 8001c7c:	6ae1      	ldr	r1, [r4, #44]	; 0x2c
 8001c7e:	ebb2 6f01 	cmp.w	r2, r1, lsl #24
 8001c82:	f47f ae72 	bne.w	800196a <HAL_RCC_OscConfig+0x5a>
 8001c86:	f003 43e0 	and.w	r3, r3, #1879048192	; 0x70000000
 8001c8a:	6b22      	ldr	r2, [r4, #48]	; 0x30
 8001c8c:	ebb3 7f02 	cmp.w	r3, r2, lsl #28
 8001c90:	f43f ae54 	beq.w	800193c <HAL_RCC_OscConfig+0x2c>
 8001c94:	e669      	b.n	800196a <HAL_RCC_OscConfig+0x5a>
 8001c96:	bf00      	nop
 8001c98:	40023800 	.word	0x40023800

08001c9c <HAL_RCC_GetSysClockFreq>:
 8001c9c:	4913      	ldr	r1, [pc, #76]	; (8001cec <HAL_RCC_GetSysClockFreq+0x50>)
 8001c9e:	b508      	push	{r3, lr}
 8001ca0:	688b      	ldr	r3, [r1, #8]
 8001ca2:	f003 030c 	and.w	r3, r3, #12
 8001ca6:	2b04      	cmp	r3, #4
 8001ca8:	d01b      	beq.n	8001ce2 <HAL_RCC_GetSysClockFreq+0x46>
 8001caa:	2b08      	cmp	r3, #8
 8001cac:	d11b      	bne.n	8001ce6 <HAL_RCC_GetSysClockFreq+0x4a>
 8001cae:	684a      	ldr	r2, [r1, #4]
 8001cb0:	684b      	ldr	r3, [r1, #4]
 8001cb2:	6849      	ldr	r1, [r1, #4]
 8001cb4:	f002 023f 	and.w	r2, r2, #63	; 0x3f
 8001cb8:	f413 0380 	ands.w	r3, r3, #4194304	; 0x400000
 8001cbc:	f3c1 1188 	ubfx	r1, r1, #6, #9
 8001cc0:	bf1a      	itte	ne
 8001cc2:	480b      	ldrne	r0, [pc, #44]	; (8001cf0 <HAL_RCC_GetSysClockFreq+0x54>)
 8001cc4:	2300      	movne	r3, #0
 8001cc6:	480b      	ldreq	r0, [pc, #44]	; (8001cf4 <HAL_RCC_GetSysClockFreq+0x58>)
 8001cc8:	fba1 0100 	umull	r0, r1, r1, r0
 8001ccc:	f7fe fb08 	bl	80002e0 <__aeabi_uldivmod>
 8001cd0:	4b06      	ldr	r3, [pc, #24]	; (8001cec <HAL_RCC_GetSysClockFreq+0x50>)
 8001cd2:	685b      	ldr	r3, [r3, #4]
 8001cd4:	f3c3 4301 	ubfx	r3, r3, #16, #2
 8001cd8:	3301      	adds	r3, #1
 8001cda:	005b      	lsls	r3, r3, #1
 8001cdc:	fbb0 f0f3 	udiv	r0, r0, r3
 8001ce0:	bd08      	pop	{r3, pc}
 8001ce2:	4803      	ldr	r0, [pc, #12]	; (8001cf0 <HAL_RCC_GetSysClockFreq+0x54>)
 8001ce4:	e7fc      	b.n	8001ce0 <HAL_RCC_GetSysClockFreq+0x44>
 8001ce6:	4803      	ldr	r0, [pc, #12]	; (8001cf4 <HAL_RCC_GetSysClockFreq+0x58>)
 8001ce8:	e7fa      	b.n	8001ce0 <HAL_RCC_GetSysClockFreq+0x44>
 8001cea:	bf00      	nop
 8001cec:	40023800 	.word	0x40023800
 8001cf0:	007a1200 	.word	0x007a1200
 8001cf4:	00f42400 	.word	0x00f42400

08001cf8 <HAL_RCC_ClockConfig>:
 8001cf8:	e92d 41f0 	stmdb	sp!, {r4, r5, r6, r7, r8, lr}
 8001cfc:	460d      	mov	r5, r1
 8001cfe:	4604      	mov	r4, r0
 8001d00:	b910      	cbnz	r0, 8001d08 <HAL_RCC_ClockConfig+0x10>
 8001d02:	2001      	movs	r0, #1
 8001d04:	e8bd 81f0 	ldmia.w	sp!, {r4, r5, r6, r7, r8, pc}
 8001d08:	4a46      	ldr	r2, [pc, #280]	; (8001e24 <HAL_RCC_ClockConfig+0x12c>)
 8001d0a:	6813      	ldr	r3, [r2, #0]
 8001d0c:	f003 030f 	and.w	r3, r3, #15
 8001d10:	428b      	cmp	r3, r1
 8001d12:	d328      	bcc.n	8001d66 <HAL_RCC_ClockConfig+0x6e>
 8001d14:	6822      	ldr	r2, [r4, #0]
 8001d16:	0797      	lsls	r7, r2, #30
 8001d18:	d430      	bmi.n	8001d7c <HAL_RCC_ClockConfig+0x84>
 8001d1a:	07d0      	lsls	r0, r2, #31
 8001d1c:	d444      	bmi.n	8001da8 <HAL_RCC_ClockConfig+0xb0>
 8001d1e:	4a41      	ldr	r2, [pc, #260]	; (8001e24 <HAL_RCC_ClockConfig+0x12c>)
 8001d20:	6813      	ldr	r3, [r2, #0]
 8001d22:	f003 030f 	and.w	r3, r3, #15
 8001d26:	42ab      	cmp	r3, r5
 8001d28:	d867      	bhi.n	8001dfa <HAL_RCC_ClockConfig+0x102>
 8001d2a:	6822      	ldr	r2, [r4, #0]
 8001d2c:	0751      	lsls	r1, r2, #29
 8001d2e:	d470      	bmi.n	8001e12 <HAL_RCC_ClockConfig+0x11a>
 8001d30:	0713      	lsls	r3, r2, #28
 8001d32:	d507      	bpl.n	8001d44 <HAL_RCC_ClockConfig+0x4c>
 8001d34:	4a3c      	ldr	r2, [pc, #240]	; (8001e28 <HAL_RCC_ClockConfig+0x130>)
 8001d36:	6921      	ldr	r1, [r4, #16]
 8001d38:	6893      	ldr	r3, [r2, #8]
 8001d3a:	f423 4360 	bic.w	r3, r3, #57344	; 0xe000
 8001d3e:	ea43 03c1 	orr.w	r3, r3, r1, lsl #3
 8001d42:	6093      	str	r3, [r2, #8]
 8001d44:	f7ff ffaa 	bl	8001c9c <HAL_RCC_GetSysClockFreq>
 8001d48:	4b37      	ldr	r3, [pc, #220]	; (8001e28 <HAL_RCC_ClockConfig+0x130>)
 8001d4a:	4a38      	ldr	r2, [pc, #224]	; (8001e2c <HAL_RCC_ClockConfig+0x134>)
 8001d4c:	689b      	ldr	r3, [r3, #8]
 8001d4e:	f3c3 1303 	ubfx	r3, r3, #4, #4
 8001d52:	5cd3      	ldrb	r3, [r2, r3]
 8001d54:	40d8      	lsrs	r0, r3
 8001d56:	4b36      	ldr	r3, [pc, #216]	; (8001e30 <HAL_RCC_ClockConfig+0x138>)
 8001d58:	6018      	str	r0, [r3, #0]
 8001d5a:	4b36      	ldr	r3, [pc, #216]	; (8001e34 <HAL_RCC_ClockConfig+0x13c>)
 8001d5c:	6818      	ldr	r0, [r3, #0]
 8001d5e:	f7fe feed 	bl	8000b3c <HAL_InitTick>
 8001d62:	2000      	movs	r0, #0
 8001d64:	e7ce      	b.n	8001d04 <HAL_RCC_ClockConfig+0xc>
 8001d66:	6813      	ldr	r3, [r2, #0]
 8001d68:	f023 030f 	bic.w	r3, r3, #15
 8001d6c:	430b      	orrs	r3, r1
 8001d6e:	6013      	str	r3, [r2, #0]
 8001d70:	6813      	ldr	r3, [r2, #0]
 8001d72:	f003 030f 	and.w	r3, r3, #15
 8001d76:	428b      	cmp	r3, r1
 8001d78:	d1c3      	bne.n	8001d02 <HAL_RCC_ClockConfig+0xa>
 8001d7a:	e7cb      	b.n	8001d14 <HAL_RCC_ClockConfig+0x1c>
 8001d7c:	f012 0f04 	tst.w	r2, #4
 8001d80:	4b29      	ldr	r3, [pc, #164]	; (8001e28 <HAL_RCC_ClockConfig+0x130>)
 8001d82:	d003      	beq.n	8001d8c <HAL_RCC_ClockConfig+0x94>
 8001d84:	6899      	ldr	r1, [r3, #8]
 8001d86:	f441 51e0 	orr.w	r1, r1, #7168	; 0x1c00
 8001d8a:	6099      	str	r1, [r3, #8]
 8001d8c:	0716      	lsls	r6, r2, #28
 8001d8e:	d503      	bpl.n	8001d98 <HAL_RCC_ClockConfig+0xa0>
 8001d90:	6899      	ldr	r1, [r3, #8]
 8001d92:	f441 4160 	orr.w	r1, r1, #57344	; 0xe000
 8001d96:	6099      	str	r1, [r3, #8]
 8001d98:	4923      	ldr	r1, [pc, #140]	; (8001e28 <HAL_RCC_ClockConfig+0x130>)
 8001d9a:	68a0      	ldr	r0, [r4, #8]
 8001d9c:	688b      	ldr	r3, [r1, #8]
 8001d9e:	f023 03f0 	bic.w	r3, r3, #240	; 0xf0
 8001da2:	4303      	orrs	r3, r0
 8001da4:	608b      	str	r3, [r1, #8]
 8001da6:	e7b8      	b.n	8001d1a <HAL_RCC_ClockConfig+0x22>
 8001da8:	6861      	ldr	r1, [r4, #4]
 8001daa:	4b1f      	ldr	r3, [pc, #124]	; (8001e28 <HAL_RCC_ClockConfig+0x130>)
 8001dac:	2901      	cmp	r1, #1
 8001dae:	681a      	ldr	r2, [r3, #0]
 8001db0:	d11b      	bne.n	8001dea <HAL_RCC_ClockConfig+0xf2>
 8001db2:	f412 3f00 	tst.w	r2, #131072	; 0x20000
 8001db6:	d0a4      	beq.n	8001d02 <HAL_RCC_ClockConfig+0xa>
 8001db8:	689a      	ldr	r2, [r3, #8]
 8001dba:	f241 3888 	movw	r8, #5000	; 0x1388
 8001dbe:	4f1a      	ldr	r7, [pc, #104]	; (8001e28 <HAL_RCC_ClockConfig+0x130>)
 8001dc0:	f022 0203 	bic.w	r2, r2, #3
 8001dc4:	430a      	orrs	r2, r1
 8001dc6:	609a      	str	r2, [r3, #8]
 8001dc8:	f7fe fefa 	bl	8000bc0 <HAL_GetTick>
 8001dcc:	4606      	mov	r6, r0
 8001dce:	68bb      	ldr	r3, [r7, #8]
 8001dd0:	6862      	ldr	r2, [r4, #4]
 8001dd2:	f003 030c 	and.w	r3, r3, #12
 8001dd6:	ebb3 0f82 	cmp.w	r3, r2, lsl #2
 8001dda:	d0a0      	beq.n	8001d1e <HAL_RCC_ClockConfig+0x26>
 8001ddc:	f7fe fef0 	bl	8000bc0 <HAL_GetTick>
 8001de0:	1b80      	subs	r0, r0, r6
 8001de2:	4540      	cmp	r0, r8
 8001de4:	d9f3      	bls.n	8001dce <HAL_RCC_ClockConfig+0xd6>
 8001de6:	2003      	movs	r0, #3
 8001de8:	e78c      	b.n	8001d04 <HAL_RCC_ClockConfig+0xc>
 8001dea:	2902      	cmp	r1, #2
 8001dec:	d102      	bne.n	8001df4 <HAL_RCC_ClockConfig+0xfc>
 8001dee:	f012 7f00 	tst.w	r2, #33554432	; 0x2000000
 8001df2:	e7e0      	b.n	8001db6 <HAL_RCC_ClockConfig+0xbe>
 8001df4:	f012 0f02 	tst.w	r2, #2
 8001df8:	e7dd      	b.n	8001db6 <HAL_RCC_ClockConfig+0xbe>
 8001dfa:	6813      	ldr	r3, [r2, #0]
 8001dfc:	f023 030f 	bic.w	r3, r3, #15
 8001e00:	432b      	orrs	r3, r5
 8001e02:	6013      	str	r3, [r2, #0]
 8001e04:	6813      	ldr	r3, [r2, #0]
 8001e06:	f003 030f 	and.w	r3, r3, #15
 8001e0a:	42ab      	cmp	r3, r5
 8001e0c:	f47f af79 	bne.w	8001d02 <HAL_RCC_ClockConfig+0xa>
 8001e10:	e78b      	b.n	8001d2a <HAL_RCC_ClockConfig+0x32>
 8001e12:	4905      	ldr	r1, [pc, #20]	; (8001e28 <HAL_RCC_ClockConfig+0x130>)
 8001e14:	68e0      	ldr	r0, [r4, #12]
 8001e16:	688b      	ldr	r3, [r1, #8]
 8001e18:	f423 53e0 	bic.w	r3, r3, #7168	; 0x1c00
 8001e1c:	4303      	orrs	r3, r0
 8001e1e:	608b      	str	r3, [r1, #8]
 8001e20:	e786      	b.n	8001d30 <HAL_RCC_ClockConfig+0x38>
 8001e22:	bf00      	nop
 8001e24:	40023c00 	.word	0x40023c00
 8001e28:	40023800 	.word	0x40023800
 8001e2c:	0800af24 	.word	0x0800af24
 8001e30:	20000000 	.word	0x20000000
 8001e34:	20000008 	.word	0x20000008

08001e38 <HAL_RCC_GetHCLKFreq>:
 8001e38:	4b01      	ldr	r3, [pc, #4]	; (8001e40 <HAL_RCC_GetHCLKFreq+0x8>)
 8001e3a:	6818      	ldr	r0, [r3, #0]
 8001e3c:	4770      	bx	lr
 8001e3e:	bf00      	nop
 8001e40:	20000000 	.word	0x20000000

08001e44 <HAL_RCC_GetPCLK1Freq>:
 8001e44:	4b04      	ldr	r3, [pc, #16]	; (8001e58 <HAL_RCC_GetPCLK1Freq+0x14>)
 8001e46:	4a05      	ldr	r2, [pc, #20]	; (8001e5c <HAL_RCC_GetPCLK1Freq+0x18>)
 8001e48:	689b      	ldr	r3, [r3, #8]
 8001e4a:	f3c3 2382 	ubfx	r3, r3, #10, #3
 8001e4e:	5cd3      	ldrb	r3, [r2, r3]
 8001e50:	4a03      	ldr	r2, [pc, #12]	; (8001e60 <HAL_RCC_GetPCLK1Freq+0x1c>)
 8001e52:	6810      	ldr	r0, [r2, #0]
 8001e54:	40d8      	lsrs	r0, r3
 8001e56:	4770      	bx	lr
 8001e58:	40023800 	.word	0x40023800
 8001e5c:	0800af34 	.word	0x0800af34
 8001e60:	20000000 	.word	0x20000000

08001e64 <HAL_RCC_GetPCLK2Freq>:
 8001e64:	4b04      	ldr	r3, [pc, #16]	; (8001e78 <HAL_RCC_GetPCLK2Freq+0x14>)
 8001e66:	4a05      	ldr	r2, [pc, #20]	; (8001e7c <HAL_RCC_GetPCLK2Freq+0x18>)
 8001e68:	689b      	ldr	r3, [r3, #8]
 8001e6a:	f3c3 3342 	ubfx	r3, r3, #13, #3
 8001e6e:	5cd3      	ldrb	r3, [r2, r3]
 8001e70:	4a03      	ldr	r2, [pc, #12]	; (8001e80 <HAL_RCC_GetPCLK2Freq+0x1c>)
 8001e72:	6810      	ldr	r0, [r2, #0]
 8001e74:	40d8      	lsrs	r0, r3
 8001e76:	4770      	bx	lr
 8001e78:	40023800 	.word	0x40023800
 8001e7c:	0800af34 	.word	0x0800af34
 8001e80:	20000000 	.word	0x20000000

08001e84 <HAL_RCCEx_PeriphCLKConfig>:
 8001e84:	6803      	ldr	r3, [r0, #0]
 8001e86:	e92d 43f7 	stmdb	sp!, {r0, r1, r2, r4, r5, r6, r7, r8, r9, lr}
 8001e8a:	f013 0601 	ands.w	r6, r3, #1
 8001e8e:	4604      	mov	r4, r0
 8001e90:	d00b      	beq.n	8001eaa <HAL_RCCEx_PeriphCLKConfig+0x26>
 8001e92:	4ab0      	ldr	r2, [pc, #704]	; (8002154 <HAL_RCCEx_PeriphCLKConfig+0x2d0>)
 8001e94:	6891      	ldr	r1, [r2, #8]
 8001e96:	f421 0100 	bic.w	r1, r1, #8388608	; 0x800000
 8001e9a:	6091      	str	r1, [r2, #8]
 8001e9c:	6b46      	ldr	r6, [r0, #52]	; 0x34
 8001e9e:	6891      	ldr	r1, [r2, #8]
 8001ea0:	4331      	orrs	r1, r6
 8001ea2:	fab6 f686 	clz	r6, r6
 8001ea6:	0976      	lsrs	r6, r6, #5
 8001ea8:	6091      	str	r1, [r2, #8]
 8001eaa:	f413 2500 	ands.w	r5, r3, #524288	; 0x80000
 8001eae:	d012      	beq.n	8001ed6 <HAL_RCCEx_PeriphCLKConfig+0x52>
 8001eb0:	49a8      	ldr	r1, [pc, #672]	; (8002154 <HAL_RCCEx_PeriphCLKConfig+0x2d0>)
 8001eb2:	6be5      	ldr	r5, [r4, #60]	; 0x3c
 8001eb4:	f8d1 208c 	ldr.w	r2, [r1, #140]	; 0x8c
 8001eb8:	f5b5 1f80 	cmp.w	r5, #1048576	; 0x100000
 8001ebc:	f422 1240 	bic.w	r2, r2, #3145728	; 0x300000
 8001ec0:	bf08      	it	eq
 8001ec2:	2601      	moveq	r6, #1
 8001ec4:	ea42 0205 	orr.w	r2, r2, r5
 8001ec8:	bf16      	itet	ne
 8001eca:	fab5 f585 	clzne	r5, r5
 8001ece:	2500      	moveq	r5, #0
 8001ed0:	096d      	lsrne	r5, r5, #5
 8001ed2:	f8c1 208c 	str.w	r2, [r1, #140]	; 0x8c
 8001ed6:	02d9      	lsls	r1, r3, #11
 8001ed8:	d510      	bpl.n	8001efc <HAL_RCCEx_PeriphCLKConfig+0x78>
 8001eda:	489e      	ldr	r0, [pc, #632]	; (8002154 <HAL_RCCEx_PeriphCLKConfig+0x2d0>)
 8001edc:	6c21      	ldr	r1, [r4, #64]	; 0x40
 8001ede:	f8d0 208c 	ldr.w	r2, [r0, #140]	; 0x8c
 8001ee2:	f5b1 0f80 	cmp.w	r1, #4194304	; 0x400000
 8001ee6:	f422 0240 	bic.w	r2, r2, #12582912	; 0xc00000
 8001eea:	ea42 0201 	orr.w	r2, r2, r1
 8001eee:	f8c0 208c 	str.w	r2, [r0, #140]	; 0x8c
 8001ef2:	f000 81a7 	beq.w	8002244 <HAL_RCCEx_PeriphCLKConfig+0x3c0>
 8001ef6:	2900      	cmp	r1, #0
 8001ef8:	bf08      	it	eq
 8001efa:	2501      	moveq	r5, #1
 8001efc:	f013 7f80 	tst.w	r3, #16777216	; 0x1000000
 8001f00:	bf18      	it	ne
 8001f02:	2601      	movne	r6, #1
 8001f04:	069a      	lsls	r2, r3, #26
 8001f06:	d531      	bpl.n	8001f6c <HAL_RCCEx_PeriphCLKConfig+0xe8>
 8001f08:	4b92      	ldr	r3, [pc, #584]	; (8002154 <HAL_RCCEx_PeriphCLKConfig+0x2d0>)
 8001f0a:	4f93      	ldr	r7, [pc, #588]	; (8002158 <HAL_RCCEx_PeriphCLKConfig+0x2d4>)
 8001f0c:	6c1a      	ldr	r2, [r3, #64]	; 0x40
 8001f0e:	f042 5280 	orr.w	r2, r2, #268435456	; 0x10000000
 8001f12:	641a      	str	r2, [r3, #64]	; 0x40
 8001f14:	6c1b      	ldr	r3, [r3, #64]	; 0x40
 8001f16:	f003 5380 	and.w	r3, r3, #268435456	; 0x10000000
 8001f1a:	9301      	str	r3, [sp, #4]
 8001f1c:	9b01      	ldr	r3, [sp, #4]
 8001f1e:	683b      	ldr	r3, [r7, #0]
 8001f20:	f443 7380 	orr.w	r3, r3, #256	; 0x100
 8001f24:	603b      	str	r3, [r7, #0]
 8001f26:	f7fe fe4b 	bl	8000bc0 <HAL_GetTick>
 8001f2a:	4680      	mov	r8, r0
 8001f2c:	683b      	ldr	r3, [r7, #0]
 8001f2e:	05db      	lsls	r3, r3, #23
 8001f30:	f140 818a 	bpl.w	8002248 <HAL_RCCEx_PeriphCLKConfig+0x3c4>
 8001f34:	4f87      	ldr	r7, [pc, #540]	; (8002154 <HAL_RCCEx_PeriphCLKConfig+0x2d0>)
 8001f36:	6f3b      	ldr	r3, [r7, #112]	; 0x70
 8001f38:	f413 7340 	ands.w	r3, r3, #768	; 0x300
 8001f3c:	f040 818f 	bne.w	800225e <HAL_RCCEx_PeriphCLKConfig+0x3da>
 8001f40:	6b23      	ldr	r3, [r4, #48]	; 0x30
 8001f42:	f403 7240 	and.w	r2, r3, #768	; 0x300
 8001f46:	f5b2 7f40 	cmp.w	r2, #768	; 0x300
 8001f4a:	4a82      	ldr	r2, [pc, #520]	; (8002154 <HAL_RCCEx_PeriphCLKConfig+0x2d0>)
 8001f4c:	f040 81ad 	bne.w	80022aa <HAL_RCCEx_PeriphCLKConfig+0x426>
 8001f50:	6891      	ldr	r1, [r2, #8]
 8001f52:	f023 4070 	bic.w	r0, r3, #4026531840	; 0xf0000000
 8001f56:	f421 11f8 	bic.w	r1, r1, #2031616	; 0x1f0000
 8001f5a:	f420 7040 	bic.w	r0, r0, #768	; 0x300
 8001f5e:	4301      	orrs	r1, r0
 8001f60:	6091      	str	r1, [r2, #8]
 8001f62:	f3c3 030b 	ubfx	r3, r3, #0, #12
 8001f66:	6f11      	ldr	r1, [r2, #112]	; 0x70
 8001f68:	430b      	orrs	r3, r1
 8001f6a:	6713      	str	r3, [r2, #112]	; 0x70
 8001f6c:	6823      	ldr	r3, [r4, #0]
 8001f6e:	06da      	lsls	r2, r3, #27
 8001f70:	d50c      	bpl.n	8001f8c <HAL_RCCEx_PeriphCLKConfig+0x108>
 8001f72:	4a78      	ldr	r2, [pc, #480]	; (8002154 <HAL_RCCEx_PeriphCLKConfig+0x2d0>)
 8001f74:	f8d2 108c 	ldr.w	r1, [r2, #140]	; 0x8c
 8001f78:	f021 7180 	bic.w	r1, r1, #16777216	; 0x1000000
 8001f7c:	f8c2 108c 	str.w	r1, [r2, #140]	; 0x8c
 8001f80:	f8d2 108c 	ldr.w	r1, [r2, #140]	; 0x8c
 8001f84:	6ba0      	ldr	r0, [r4, #56]	; 0x38
 8001f86:	4301      	orrs	r1, r0
 8001f88:	f8c2 108c 	str.w	r1, [r2, #140]	; 0x8c
 8001f8c:	045f      	lsls	r7, r3, #17
 8001f8e:	d508      	bpl.n	8001fa2 <HAL_RCCEx_PeriphCLKConfig+0x11e>
 8001f90:	4970      	ldr	r1, [pc, #448]	; (8002154 <HAL_RCCEx_PeriphCLKConfig+0x2d0>)
 8001f92:	6e60      	ldr	r0, [r4, #100]	; 0x64
 8001f94:	f8d1 2090 	ldr.w	r2, [r1, #144]	; 0x90
 8001f98:	f422 3240 	bic.w	r2, r2, #196608	; 0x30000
 8001f9c:	4302      	orrs	r2, r0
 8001f9e:	f8c1 2090 	str.w	r2, [r1, #144]	; 0x90
 8001fa2:	0418      	lsls	r0, r3, #16
 8001fa4:	d508      	bpl.n	8001fb8 <HAL_RCCEx_PeriphCLKConfig+0x134>
 8001fa6:	496b      	ldr	r1, [pc, #428]	; (8002154 <HAL_RCCEx_PeriphCLKConfig+0x2d0>)
 8001fa8:	6ea0      	ldr	r0, [r4, #104]	; 0x68
 8001faa:	f8d1 2090 	ldr.w	r2, [r1, #144]	; 0x90
 8001fae:	f422 2240 	bic.w	r2, r2, #786432	; 0xc0000
 8001fb2:	4302      	orrs	r2, r0
 8001fb4:	f8c1 2090 	str.w	r2, [r1, #144]	; 0x90
 8001fb8:	03d9      	lsls	r1, r3, #15
 8001fba:	d508      	bpl.n	8001fce <HAL_RCCEx_PeriphCLKConfig+0x14a>
 8001fbc:	4965      	ldr	r1, [pc, #404]	; (8002154 <HAL_RCCEx_PeriphCLKConfig+0x2d0>)
 8001fbe:	6ee0      	ldr	r0, [r4, #108]	; 0x6c
 8001fc0:	f8d1 2090 	ldr.w	r2, [r1, #144]	; 0x90
 8001fc4:	f422 1240 	bic.w	r2, r2, #3145728	; 0x300000
 8001fc8:	4302      	orrs	r2, r0
 8001fca:	f8c1 2090 	str.w	r2, [r1, #144]	; 0x90
 8001fce:	039a      	lsls	r2, r3, #14
 8001fd0:	d508      	bpl.n	8001fe4 <HAL_RCCEx_PeriphCLKConfig+0x160>
 8001fd2:	4960      	ldr	r1, [pc, #384]	; (8002154 <HAL_RCCEx_PeriphCLKConfig+0x2d0>)
 8001fd4:	6f20      	ldr	r0, [r4, #112]	; 0x70
 8001fd6:	f8d1 2090 	ldr.w	r2, [r1, #144]	; 0x90
 8001fda:	f422 0240 	bic.w	r2, r2, #12582912	; 0xc00000
 8001fde:	4302      	orrs	r2, r0
 8001fe0:	f8c1 2090 	str.w	r2, [r1, #144]	; 0x90
 8001fe4:	065f      	lsls	r7, r3, #25
 8001fe6:	d508      	bpl.n	8001ffa <HAL_RCCEx_PeriphCLKConfig+0x176>
 8001fe8:	495a      	ldr	r1, [pc, #360]	; (8002154 <HAL_RCCEx_PeriphCLKConfig+0x2d0>)
 8001fea:	6c60      	ldr	r0, [r4, #68]	; 0x44
 8001fec:	f8d1 2090 	ldr.w	r2, [r1, #144]	; 0x90
 8001ff0:	f022 0203 	bic.w	r2, r2, #3
 8001ff4:	4302      	orrs	r2, r0
 8001ff6:	f8c1 2090 	str.w	r2, [r1, #144]	; 0x90
 8001ffa:	0618      	lsls	r0, r3, #24
 8001ffc:	d508      	bpl.n	8002010 <HAL_RCCEx_PeriphCLKConfig+0x18c>
 8001ffe:	4955      	ldr	r1, [pc, #340]	; (8002154 <HAL_RCCEx_PeriphCLKConfig+0x2d0>)
 8002000:	6ca0      	ldr	r0, [r4, #72]	; 0x48
 8002002:	f8d1 2090 	ldr.w	r2, [r1, #144]	; 0x90
 8002006:	f022 020c 	bic.w	r2, r2, #12
 800200a:	4302      	orrs	r2, r0
 800200c:	f8c1 2090 	str.w	r2, [r1, #144]	; 0x90
 8002010:	05d9      	lsls	r1, r3, #23
 8002012:	d508      	bpl.n	8002026 <HAL_RCCEx_PeriphCLKConfig+0x1a2>
 8002014:	494f      	ldr	r1, [pc, #316]	; (8002154 <HAL_RCCEx_PeriphCLKConfig+0x2d0>)
 8002016:	6ce0      	ldr	r0, [r4, #76]	; 0x4c
 8002018:	f8d1 2090 	ldr.w	r2, [r1, #144]	; 0x90
 800201c:	f022 0230 	bic.w	r2, r2, #48	; 0x30
 8002020:	4302      	orrs	r2, r0
 8002022:	f8c1 2090 	str.w	r2, [r1, #144]	; 0x90
 8002026:	059a      	lsls	r2, r3, #22
 8002028:	d508      	bpl.n	800203c <HAL_RCCEx_PeriphCLKConfig+0x1b8>
 800202a:	494a      	ldr	r1, [pc, #296]	; (8002154 <HAL_RCCEx_PeriphCLKConfig+0x2d0>)
 800202c:	6d20      	ldr	r0, [r4, #80]	; 0x50
 800202e:	f8d1 2090 	ldr.w	r2, [r1, #144]	; 0x90
 8002032:	f022 02c0 	bic.w	r2, r2, #192	; 0xc0
 8002036:	4302      	orrs	r2, r0
 8002038:	f8c1 2090 	str.w	r2, [r1, #144]	; 0x90
 800203c:	055f      	lsls	r7, r3, #21
 800203e:	d508      	bpl.n	8002052 <HAL_RCCEx_PeriphCLKConfig+0x1ce>
 8002040:	4944      	ldr	r1, [pc, #272]	; (8002154 <HAL_RCCEx_PeriphCLKConfig+0x2d0>)
 8002042:	6d60      	ldr	r0, [r4, #84]	; 0x54
 8002044:	f8d1 2090 	ldr.w	r2, [r1, #144]	; 0x90
 8002048:	f422 7240 	bic.w	r2, r2, #768	; 0x300
 800204c:	4302      	orrs	r2, r0
 800204e:	f8c1 2090 	str.w	r2, [r1, #144]	; 0x90
 8002052:	0518      	lsls	r0, r3, #20
 8002054:	d508      	bpl.n	8002068 <HAL_RCCEx_PeriphCLKConfig+0x1e4>
 8002056:	493f      	ldr	r1, [pc, #252]	; (8002154 <HAL_RCCEx_PeriphCLKConfig+0x2d0>)
 8002058:	6da0      	ldr	r0, [r4, #88]	; 0x58
 800205a:	f8d1 2090 	ldr.w	r2, [r1, #144]	; 0x90
 800205e:	f422 6240 	bic.w	r2, r2, #3072	; 0xc00
 8002062:	4302      	orrs	r2, r0
 8002064:	f8c1 2090 	str.w	r2, [r1, #144]	; 0x90
 8002068:	04d9      	lsls	r1, r3, #19
 800206a:	d508      	bpl.n	800207e <HAL_RCCEx_PeriphCLKConfig+0x1fa>
 800206c:	4939      	ldr	r1, [pc, #228]	; (8002154 <HAL_RCCEx_PeriphCLKConfig+0x2d0>)
 800206e:	6de0      	ldr	r0, [r4, #92]	; 0x5c
 8002070:	f8d1 2090 	ldr.w	r2, [r1, #144]	; 0x90
 8002074:	f422 5240 	bic.w	r2, r2, #12288	; 0x3000
 8002078:	4302      	orrs	r2, r0
 800207a:	f8c1 2090 	str.w	r2, [r1, #144]	; 0x90
 800207e:	049a      	lsls	r2, r3, #18
 8002080:	d508      	bpl.n	8002094 <HAL_RCCEx_PeriphCLKConfig+0x210>
 8002082:	4934      	ldr	r1, [pc, #208]	; (8002154 <HAL_RCCEx_PeriphCLKConfig+0x2d0>)
 8002084:	6e20      	ldr	r0, [r4, #96]	; 0x60
 8002086:	f8d1 2090 	ldr.w	r2, [r1, #144]	; 0x90
 800208a:	f422 4240 	bic.w	r2, r2, #49152	; 0xc000
 800208e:	4302      	orrs	r2, r0
 8002090:	f8c1 2090 	str.w	r2, [r1, #144]	; 0x90
 8002094:	025f      	lsls	r7, r3, #9
 8002096:	d508      	bpl.n	80020aa <HAL_RCCEx_PeriphCLKConfig+0x226>
 8002098:	492e      	ldr	r1, [pc, #184]	; (8002154 <HAL_RCCEx_PeriphCLKConfig+0x2d0>)
 800209a:	6fa0      	ldr	r0, [r4, #120]	; 0x78
 800209c:	f8d1 2090 	ldr.w	r2, [r1, #144]	; 0x90
 80020a0:	f022 6280 	bic.w	r2, r2, #67108864	; 0x4000000
 80020a4:	4302      	orrs	r2, r0
 80020a6:	f8c1 2090 	str.w	r2, [r1, #144]	; 0x90
 80020aa:	0298      	lsls	r0, r3, #10
 80020ac:	d50c      	bpl.n	80020c8 <HAL_RCCEx_PeriphCLKConfig+0x244>
 80020ae:	4829      	ldr	r0, [pc, #164]	; (8002154 <HAL_RCCEx_PeriphCLKConfig+0x2d0>)
 80020b0:	6fe1      	ldr	r1, [r4, #124]	; 0x7c
 80020b2:	f8d0 2090 	ldr.w	r2, [r0, #144]	; 0x90
 80020b6:	f1b1 6f00 	cmp.w	r1, #134217728	; 0x8000000
 80020ba:	f022 6200 	bic.w	r2, r2, #134217728	; 0x8000000
 80020be:	bf08      	it	eq
 80020c0:	2501      	moveq	r5, #1
 80020c2:	430a      	orrs	r2, r1
 80020c4:	f8c0 2090 	str.w	r2, [r0, #144]	; 0x90
 80020c8:	f013 0f08 	tst.w	r3, #8
 80020cc:	bf18      	it	ne
 80020ce:	2501      	movne	r5, #1
 80020d0:	0359      	lsls	r1, r3, #13
 80020d2:	d508      	bpl.n	80020e6 <HAL_RCCEx_PeriphCLKConfig+0x262>
 80020d4:	491f      	ldr	r1, [pc, #124]	; (8002154 <HAL_RCCEx_PeriphCLKConfig+0x2d0>)
 80020d6:	6f60      	ldr	r0, [r4, #116]	; 0x74
 80020d8:	f8d1 2090 	ldr.w	r2, [r1, #144]	; 0x90
 80020dc:	f022 7240 	bic.w	r2, r2, #50331648	; 0x3000000
 80020e0:	4302      	orrs	r2, r0
 80020e2:	f8c1 2090 	str.w	r2, [r1, #144]	; 0x90
 80020e6:	021a      	lsls	r2, r3, #8
 80020e8:	d509      	bpl.n	80020fe <HAL_RCCEx_PeriphCLKConfig+0x27a>
 80020ea:	491a      	ldr	r1, [pc, #104]	; (8002154 <HAL_RCCEx_PeriphCLKConfig+0x2d0>)
 80020ec:	f8d4 0080 	ldr.w	r0, [r4, #128]	; 0x80
 80020f0:	f8d1 2090 	ldr.w	r2, [r1, #144]	; 0x90
 80020f4:	f022 5280 	bic.w	r2, r2, #268435456	; 0x10000000
 80020f8:	4302      	orrs	r2, r0
 80020fa:	f8c1 2090 	str.w	r2, [r1, #144]	; 0x90
 80020fe:	015f      	lsls	r7, r3, #5
 8002100:	d509      	bpl.n	8002116 <HAL_RCCEx_PeriphCLKConfig+0x292>
 8002102:	4914      	ldr	r1, [pc, #80]	; (8002154 <HAL_RCCEx_PeriphCLKConfig+0x2d0>)
 8002104:	f8d4 0084 	ldr.w	r0, [r4, #132]	; 0x84
 8002108:	f8d1 2090 	ldr.w	r2, [r1, #144]	; 0x90
 800210c:	f022 5200 	bic.w	r2, r2, #536870912	; 0x20000000
 8002110:	4302      	orrs	r2, r0
 8002112:	f8c1 2090 	str.w	r2, [r1, #144]	; 0x90
 8002116:	0118      	lsls	r0, r3, #4
 8002118:	d509      	bpl.n	800212e <HAL_RCCEx_PeriphCLKConfig+0x2aa>
 800211a:	490e      	ldr	r1, [pc, #56]	; (8002154 <HAL_RCCEx_PeriphCLKConfig+0x2d0>)
 800211c:	f8d4 0088 	ldr.w	r0, [r4, #136]	; 0x88
 8002120:	f8d1 208c 	ldr.w	r2, [r1, #140]	; 0x8c
 8002124:	f022 7200 	bic.w	r2, r2, #33554432	; 0x2000000
 8002128:	4302      	orrs	r2, r0
 800212a:	f8c1 208c 	str.w	r2, [r1, #140]	; 0x8c
 800212e:	00d9      	lsls	r1, r3, #3
 8002130:	d509      	bpl.n	8002146 <HAL_RCCEx_PeriphCLKConfig+0x2c2>
 8002132:	4908      	ldr	r1, [pc, #32]	; (8002154 <HAL_RCCEx_PeriphCLKConfig+0x2d0>)
 8002134:	f8d4 008c 	ldr.w	r0, [r4, #140]	; 0x8c
 8002138:	f8d1 208c 	ldr.w	r2, [r1, #140]	; 0x8c
 800213c:	f022 6280 	bic.w	r2, r2, #67108864	; 0x4000000
 8002140:	4302      	orrs	r2, r0
 8002142:	f8c1 208c 	str.w	r2, [r1, #140]	; 0x8c
 8002146:	2e01      	cmp	r6, #1
 8002148:	f000 80b3 	beq.w	80022b2 <HAL_RCCEx_PeriphCLKConfig+0x42e>
 800214c:	019a      	lsls	r2, r3, #6
 800214e:	f100 80b0 	bmi.w	80022b2 <HAL_RCCEx_PeriphCLKConfig+0x42e>
 8002152:	e003      	b.n	800215c <HAL_RCCEx_PeriphCLKConfig+0x2d8>
 8002154:	40023800 	.word	0x40023800
 8002158:	40007000 	.word	0x40007000
 800215c:	2d01      	cmp	r5, #1
 800215e:	d16f      	bne.n	8002240 <HAL_RCCEx_PeriphCLKConfig+0x3bc>
 8002160:	4d9d      	ldr	r5, [pc, #628]	; (80023d8 <HAL_RCCEx_PeriphCLKConfig+0x554>)
 8002162:	682b      	ldr	r3, [r5, #0]
 8002164:	f023 5380 	bic.w	r3, r3, #268435456	; 0x10000000
 8002168:	602b      	str	r3, [r5, #0]
 800216a:	f7fe fd29 	bl	8000bc0 <HAL_GetTick>
 800216e:	4606      	mov	r6, r0
 8002170:	682b      	ldr	r3, [r5, #0]
 8002172:	009f      	lsls	r7, r3, #2
 8002174:	f100 8121 	bmi.w	80023ba <HAL_RCCEx_PeriphCLKConfig+0x536>
 8002178:	6822      	ldr	r2, [r4, #0]
 800217a:	0316      	lsls	r6, r2, #12
 800217c:	d501      	bpl.n	8002182 <HAL_RCCEx_PeriphCLKConfig+0x2fe>
 800217e:	6be3      	ldr	r3, [r4, #60]	; 0x3c
 8002180:	b11b      	cbz	r3, 800218a <HAL_RCCEx_PeriphCLKConfig+0x306>
 8002182:	02d0      	lsls	r0, r2, #11
 8002184:	d51c      	bpl.n	80021c0 <HAL_RCCEx_PeriphCLKConfig+0x33c>
 8002186:	6c23      	ldr	r3, [r4, #64]	; 0x40
 8002188:	b9d3      	cbnz	r3, 80021c0 <HAL_RCCEx_PeriphCLKConfig+0x33c>
 800218a:	f8d5 3088 	ldr.w	r3, [r5, #136]	; 0x88
 800218e:	f8d5 1088 	ldr.w	r1, [r5, #136]	; 0x88
 8002192:	f403 3340 	and.w	r3, r3, #196608	; 0x30000
 8002196:	f001 41e0 	and.w	r1, r1, #1879048192	; 0x70000000
 800219a:	430b      	orrs	r3, r1
 800219c:	6961      	ldr	r1, [r4, #20]
 800219e:	ea43 1381 	orr.w	r3, r3, r1, lsl #6
 80021a2:	69a1      	ldr	r1, [r4, #24]
 80021a4:	ea43 6301 	orr.w	r3, r3, r1, lsl #24
 80021a8:	f8c5 3088 	str.w	r3, [r5, #136]	; 0x88
 80021ac:	f8d5 308c 	ldr.w	r3, [r5, #140]	; 0x8c
 80021b0:	6aa1      	ldr	r1, [r4, #40]	; 0x28
 80021b2:	f423 53f8 	bic.w	r3, r3, #7936	; 0x1f00
 80021b6:	3901      	subs	r1, #1
 80021b8:	ea43 2301 	orr.w	r3, r3, r1, lsl #8
 80021bc:	f8c5 308c 	str.w	r3, [r5, #140]	; 0x8c
 80021c0:	0291      	lsls	r1, r2, #10
 80021c2:	d515      	bpl.n	80021f0 <HAL_RCCEx_PeriphCLKConfig+0x36c>
 80021c4:	6fe3      	ldr	r3, [r4, #124]	; 0x7c
 80021c6:	f1b3 6f00 	cmp.w	r3, #134217728	; 0x8000000
 80021ca:	d111      	bne.n	80021f0 <HAL_RCCEx_PeriphCLKConfig+0x36c>
 80021cc:	4982      	ldr	r1, [pc, #520]	; (80023d8 <HAL_RCCEx_PeriphCLKConfig+0x554>)
 80021ce:	f8d1 3088 	ldr.w	r3, [r1, #136]	; 0x88
 80021d2:	f8d1 0088 	ldr.w	r0, [r1, #136]	; 0x88
 80021d6:	f003 6370 	and.w	r3, r3, #251658240	; 0xf000000
 80021da:	f000 40e0 	and.w	r0, r0, #1879048192	; 0x70000000
 80021de:	4303      	orrs	r3, r0
 80021e0:	6960      	ldr	r0, [r4, #20]
 80021e2:	ea43 1380 	orr.w	r3, r3, r0, lsl #6
 80021e6:	6a20      	ldr	r0, [r4, #32]
 80021e8:	ea43 4300 	orr.w	r3, r3, r0, lsl #16
 80021ec:	f8c1 3088 	str.w	r3, [r1, #136]	; 0x88
 80021f0:	0712      	lsls	r2, r2, #28
 80021f2:	d519      	bpl.n	8002228 <HAL_RCCEx_PeriphCLKConfig+0x3a4>
 80021f4:	4a78      	ldr	r2, [pc, #480]	; (80023d8 <HAL_RCCEx_PeriphCLKConfig+0x554>)
 80021f6:	f8d2 1088 	ldr.w	r1, [r2, #136]	; 0x88
 80021fa:	f8d2 3088 	ldr.w	r3, [r2, #136]	; 0x88
 80021fe:	f001 6170 	and.w	r1, r1, #251658240	; 0xf000000
 8002202:	f403 3340 	and.w	r3, r3, #196608	; 0x30000
 8002206:	430b      	orrs	r3, r1
 8002208:	6961      	ldr	r1, [r4, #20]
 800220a:	ea43 1381 	orr.w	r3, r3, r1, lsl #6
 800220e:	69e1      	ldr	r1, [r4, #28]
 8002210:	ea43 7301 	orr.w	r3, r3, r1, lsl #28
 8002214:	f8c2 3088 	str.w	r3, [r2, #136]	; 0x88
 8002218:	f8d2 308c 	ldr.w	r3, [r2, #140]	; 0x8c
 800221c:	6ae1      	ldr	r1, [r4, #44]	; 0x2c
 800221e:	f423 3340 	bic.w	r3, r3, #196608	; 0x30000
 8002222:	430b      	orrs	r3, r1
 8002224:	f8c2 308c 	str.w	r3, [r2, #140]	; 0x8c
 8002228:	4c6b      	ldr	r4, [pc, #428]	; (80023d8 <HAL_RCCEx_PeriphCLKConfig+0x554>)
 800222a:	6823      	ldr	r3, [r4, #0]
 800222c:	f043 5380 	orr.w	r3, r3, #268435456	; 0x10000000
 8002230:	6023      	str	r3, [r4, #0]
 8002232:	f7fe fcc5 	bl	8000bc0 <HAL_GetTick>
 8002236:	4605      	mov	r5, r0
 8002238:	6823      	ldr	r3, [r4, #0]
 800223a:	009b      	lsls	r3, r3, #2
 800223c:	f140 80c4 	bpl.w	80023c8 <HAL_RCCEx_PeriphCLKConfig+0x544>
 8002240:	2000      	movs	r0, #0
 8002242:	e009      	b.n	8002258 <HAL_RCCEx_PeriphCLKConfig+0x3d4>
 8002244:	2601      	movs	r6, #1
 8002246:	e659      	b.n	8001efc <HAL_RCCEx_PeriphCLKConfig+0x78>
 8002248:	f7fe fcba 	bl	8000bc0 <HAL_GetTick>
 800224c:	eba0 0008 	sub.w	r0, r0, r8
 8002250:	2864      	cmp	r0, #100	; 0x64
 8002252:	f67f ae6b 	bls.w	8001f2c <HAL_RCCEx_PeriphCLKConfig+0xa8>
 8002256:	2003      	movs	r0, #3
 8002258:	b003      	add	sp, #12
 800225a:	e8bd 83f0 	ldmia.w	sp!, {r4, r5, r6, r7, r8, r9, pc}
 800225e:	6b22      	ldr	r2, [r4, #48]	; 0x30
 8002260:	f402 7240 	and.w	r2, r2, #768	; 0x300
 8002264:	4293      	cmp	r3, r2
 8002266:	f43f ae6b 	beq.w	8001f40 <HAL_RCCEx_PeriphCLKConfig+0xbc>
 800226a:	6f3b      	ldr	r3, [r7, #112]	; 0x70
 800226c:	6f3a      	ldr	r2, [r7, #112]	; 0x70
 800226e:	f423 7340 	bic.w	r3, r3, #768	; 0x300
 8002272:	f442 3280 	orr.w	r2, r2, #65536	; 0x10000
 8002276:	673a      	str	r2, [r7, #112]	; 0x70
 8002278:	6f3a      	ldr	r2, [r7, #112]	; 0x70
 800227a:	f422 3280 	bic.w	r2, r2, #65536	; 0x10000
 800227e:	673a      	str	r2, [r7, #112]	; 0x70
 8002280:	673b      	str	r3, [r7, #112]	; 0x70
 8002282:	6f3b      	ldr	r3, [r7, #112]	; 0x70
 8002284:	07d8      	lsls	r0, r3, #31
 8002286:	f57f ae5b 	bpl.w	8001f40 <HAL_RCCEx_PeriphCLKConfig+0xbc>
 800228a:	f7fe fc99 	bl	8000bc0 <HAL_GetTick>
 800228e:	f241 3988 	movw	r9, #5000	; 0x1388
 8002292:	4680      	mov	r8, r0
 8002294:	6f3b      	ldr	r3, [r7, #112]	; 0x70
 8002296:	0799      	lsls	r1, r3, #30
 8002298:	f53f ae52 	bmi.w	8001f40 <HAL_RCCEx_PeriphCLKConfig+0xbc>
 800229c:	f7fe fc90 	bl	8000bc0 <HAL_GetTick>
 80022a0:	eba0 0008 	sub.w	r0, r0, r8
 80022a4:	4548      	cmp	r0, r9
 80022a6:	d9f5      	bls.n	8002294 <HAL_RCCEx_PeriphCLKConfig+0x410>
 80022a8:	e7d5      	b.n	8002256 <HAL_RCCEx_PeriphCLKConfig+0x3d2>
 80022aa:	6891      	ldr	r1, [r2, #8]
 80022ac:	f421 11f8 	bic.w	r1, r1, #2031616	; 0x1f0000
 80022b0:	e656      	b.n	8001f60 <HAL_RCCEx_PeriphCLKConfig+0xdc>
 80022b2:	4e49      	ldr	r6, [pc, #292]	; (80023d8 <HAL_RCCEx_PeriphCLKConfig+0x554>)
 80022b4:	6833      	ldr	r3, [r6, #0]
 80022b6:	f023 6380 	bic.w	r3, r3, #67108864	; 0x4000000
 80022ba:	6033      	str	r3, [r6, #0]
 80022bc:	f7fe fc80 	bl	8000bc0 <HAL_GetTick>
 80022c0:	4607      	mov	r7, r0
 80022c2:	6833      	ldr	r3, [r6, #0]
 80022c4:	011b      	lsls	r3, r3, #4
 80022c6:	d472      	bmi.n	80023ae <HAL_RCCEx_PeriphCLKConfig+0x52a>
 80022c8:	6822      	ldr	r2, [r4, #0]
 80022ca:	07d7      	lsls	r7, r2, #31
 80022cc:	d512      	bpl.n	80022f4 <HAL_RCCEx_PeriphCLKConfig+0x470>
 80022ce:	6b63      	ldr	r3, [r4, #52]	; 0x34
 80022d0:	b983      	cbnz	r3, 80022f4 <HAL_RCCEx_PeriphCLKConfig+0x470>
 80022d2:	f8d6 3084 	ldr.w	r3, [r6, #132]	; 0x84
 80022d6:	f8d6 1084 	ldr.w	r1, [r6, #132]	; 0x84
 80022da:	f403 3340 	and.w	r3, r3, #196608	; 0x30000
 80022de:	f001 6170 	and.w	r1, r1, #251658240	; 0xf000000
 80022e2:	430b      	orrs	r3, r1
 80022e4:	6861      	ldr	r1, [r4, #4]
 80022e6:	ea43 1381 	orr.w	r3, r3, r1, lsl #6
 80022ea:	68a1      	ldr	r1, [r4, #8]
 80022ec:	ea43 7301 	orr.w	r3, r3, r1, lsl #28
 80022f0:	f8c6 3084 	str.w	r3, [r6, #132]	; 0x84
 80022f4:	0316      	lsls	r6, r2, #12
 80022f6:	d503      	bpl.n	8002300 <HAL_RCCEx_PeriphCLKConfig+0x47c>
 80022f8:	6be3      	ldr	r3, [r4, #60]	; 0x3c
 80022fa:	f5b3 1f80 	cmp.w	r3, #1048576	; 0x100000
 80022fe:	d005      	beq.n	800230c <HAL_RCCEx_PeriphCLKConfig+0x488>
 8002300:	02d0      	lsls	r0, r2, #11
 8002302:	d51e      	bpl.n	8002342 <HAL_RCCEx_PeriphCLKConfig+0x4be>
 8002304:	6c23      	ldr	r3, [r4, #64]	; 0x40
 8002306:	f5b3 0f80 	cmp.w	r3, #4194304	; 0x400000
 800230a:	d11a      	bne.n	8002342 <HAL_RCCEx_PeriphCLKConfig+0x4be>
 800230c:	4932      	ldr	r1, [pc, #200]	; (80023d8 <HAL_RCCEx_PeriphCLKConfig+0x554>)
 800230e:	f8d1 3084 	ldr.w	r3, [r1, #132]	; 0x84
 8002312:	f8d1 0084 	ldr.w	r0, [r1, #132]	; 0x84
 8002316:	f403 3340 	and.w	r3, r3, #196608	; 0x30000
 800231a:	f000 40e0 	and.w	r0, r0, #1879048192	; 0x70000000
 800231e:	4303      	orrs	r3, r0
 8002320:	6860      	ldr	r0, [r4, #4]
 8002322:	ea43 1380 	orr.w	r3, r3, r0, lsl #6
 8002326:	68e0      	ldr	r0, [r4, #12]
 8002328:	ea43 6300 	orr.w	r3, r3, r0, lsl #24
 800232c:	f8c1 3084 	str.w	r3, [r1, #132]	; 0x84
 8002330:	f8d1 008c 	ldr.w	r0, [r1, #140]	; 0x8c
 8002334:	6a63      	ldr	r3, [r4, #36]	; 0x24
 8002336:	f020 001f 	bic.w	r0, r0, #31
 800233a:	3b01      	subs	r3, #1
 800233c:	4303      	orrs	r3, r0
 800233e:	f8c1 308c 	str.w	r3, [r1, #140]	; 0x8c
 8002342:	01d1      	lsls	r1, r2, #7
 8002344:	d511      	bpl.n	800236a <HAL_RCCEx_PeriphCLKConfig+0x4e6>
 8002346:	4924      	ldr	r1, [pc, #144]	; (80023d8 <HAL_RCCEx_PeriphCLKConfig+0x554>)
 8002348:	f8d1 3084 	ldr.w	r3, [r1, #132]	; 0x84
 800234c:	f8d1 0084 	ldr.w	r0, [r1, #132]	; 0x84
 8002350:	f003 6370 	and.w	r3, r3, #251658240	; 0xf000000
 8002354:	f000 40e0 	and.w	r0, r0, #1879048192	; 0x70000000
 8002358:	4303      	orrs	r3, r0
 800235a:	6860      	ldr	r0, [r4, #4]
 800235c:	ea43 1380 	orr.w	r3, r3, r0, lsl #6
 8002360:	6920      	ldr	r0, [r4, #16]
 8002362:	ea43 4300 	orr.w	r3, r3, r0, lsl #16
 8002366:	f8c1 3084 	str.w	r3, [r1, #132]	; 0x84
 800236a:	0192      	lsls	r2, r2, #6
 800236c:	d50d      	bpl.n	800238a <HAL_RCCEx_PeriphCLKConfig+0x506>
 800236e:	6923      	ldr	r3, [r4, #16]
 8002370:	6862      	ldr	r2, [r4, #4]
 8002372:	041b      	lsls	r3, r3, #16
 8002374:	ea43 1382 	orr.w	r3, r3, r2, lsl #6
 8002378:	68e2      	ldr	r2, [r4, #12]
 800237a:	ea43 6302 	orr.w	r3, r3, r2, lsl #24
 800237e:	68a2      	ldr	r2, [r4, #8]
 8002380:	ea43 7302 	orr.w	r3, r3, r2, lsl #28
 8002384:	4a14      	ldr	r2, [pc, #80]	; (80023d8 <HAL_RCCEx_PeriphCLKConfig+0x554>)
 8002386:	f8c2 3084 	str.w	r3, [r2, #132]	; 0x84
 800238a:	4e13      	ldr	r6, [pc, #76]	; (80023d8 <HAL_RCCEx_PeriphCLKConfig+0x554>)
 800238c:	6833      	ldr	r3, [r6, #0]
 800238e:	f043 6380 	orr.w	r3, r3, #67108864	; 0x4000000
 8002392:	6033      	str	r3, [r6, #0]
 8002394:	f7fe fc14 	bl	8000bc0 <HAL_GetTick>
 8002398:	4607      	mov	r7, r0
 800239a:	6833      	ldr	r3, [r6, #0]
 800239c:	011b      	lsls	r3, r3, #4
 800239e:	f53f aedd 	bmi.w	800215c <HAL_RCCEx_PeriphCLKConfig+0x2d8>
 80023a2:	f7fe fc0d 	bl	8000bc0 <HAL_GetTick>
 80023a6:	1bc0      	subs	r0, r0, r7
 80023a8:	2864      	cmp	r0, #100	; 0x64
 80023aa:	d9f6      	bls.n	800239a <HAL_RCCEx_PeriphCLKConfig+0x516>
 80023ac:	e753      	b.n	8002256 <HAL_RCCEx_PeriphCLKConfig+0x3d2>
 80023ae:	f7fe fc07 	bl	8000bc0 <HAL_GetTick>
 80023b2:	1bc0      	subs	r0, r0, r7
 80023b4:	2864      	cmp	r0, #100	; 0x64
 80023b6:	d984      	bls.n	80022c2 <HAL_RCCEx_PeriphCLKConfig+0x43e>
 80023b8:	e74d      	b.n	8002256 <HAL_RCCEx_PeriphCLKConfig+0x3d2>
 80023ba:	f7fe fc01 	bl	8000bc0 <HAL_GetTick>
 80023be:	1b80      	subs	r0, r0, r6
 80023c0:	2864      	cmp	r0, #100	; 0x64
 80023c2:	f67f aed5 	bls.w	8002170 <HAL_RCCEx_PeriphCLKConfig+0x2ec>
 80023c6:	e746      	b.n	8002256 <HAL_RCCEx_PeriphCLKConfig+0x3d2>
 80023c8:	f7fe fbfa 	bl	8000bc0 <HAL_GetTick>
 80023cc:	1b40      	subs	r0, r0, r5
 80023ce:	2864      	cmp	r0, #100	; 0x64
 80023d0:	f67f af32 	bls.w	8002238 <HAL_RCCEx_PeriphCLKConfig+0x3b4>
 80023d4:	e73f      	b.n	8002256 <HAL_RCCEx_PeriphCLKConfig+0x3d2>
 80023d6:	bf00      	nop
 80023d8:	40023800 	.word	0x40023800

080023dc <UART_SetConfig>:
 80023dc:	b538      	push	{r3, r4, r5, lr}
 80023de:	4604      	mov	r4, r0
 80023e0:	69c0      	ldr	r0, [r0, #28]
 80023e2:	6921      	ldr	r1, [r4, #16]
 80023e4:	68a2      	ldr	r2, [r4, #8]
 80023e6:	6823      	ldr	r3, [r4, #0]
 80023e8:	430a      	orrs	r2, r1
 80023ea:	6961      	ldr	r1, [r4, #20]
 80023ec:	681d      	ldr	r5, [r3, #0]
 80023ee:	430a      	orrs	r2, r1
 80023f0:	498e      	ldr	r1, [pc, #568]	; (800262c <UART_SetConfig+0x250>)
 80023f2:	4302      	orrs	r2, r0
 80023f4:	4029      	ands	r1, r5
 80023f6:	6a25      	ldr	r5, [r4, #32]
 80023f8:	430a      	orrs	r2, r1
 80023fa:	68e1      	ldr	r1, [r4, #12]
 80023fc:	601a      	str	r2, [r3, #0]
 80023fe:	685a      	ldr	r2, [r3, #4]
 8002400:	f422 5240 	bic.w	r2, r2, #12288	; 0x3000
 8002404:	430a      	orrs	r2, r1
 8002406:	605a      	str	r2, [r3, #4]
 8002408:	69a2      	ldr	r2, [r4, #24]
 800240a:	6899      	ldr	r1, [r3, #8]
 800240c:	432a      	orrs	r2, r5
 800240e:	f421 6130 	bic.w	r1, r1, #2816	; 0xb00
 8002412:	430a      	orrs	r2, r1
 8002414:	609a      	str	r2, [r3, #8]
 8002416:	4a86      	ldr	r2, [pc, #536]	; (8002630 <UART_SetConfig+0x254>)
 8002418:	4293      	cmp	r3, r2
 800241a:	d117      	bne.n	800244c <UART_SetConfig+0x70>
 800241c:	4b85      	ldr	r3, [pc, #532]	; (8002634 <UART_SetConfig+0x258>)
 800241e:	f8d3 3090 	ldr.w	r3, [r3, #144]	; 0x90
 8002422:	f003 0303 	and.w	r3, r3, #3
 8002426:	3b01      	subs	r3, #1
 8002428:	2b02      	cmp	r3, #2
 800242a:	f200 80e2 	bhi.w	80025f2 <UART_SetConfig+0x216>
 800242e:	4a82      	ldr	r2, [pc, #520]	; (8002638 <UART_SetConfig+0x25c>)
 8002430:	f5b0 4f00 	cmp.w	r0, #32768	; 0x8000
 8002434:	5cd3      	ldrb	r3, [r2, r3]
 8002436:	f040 80b3 	bne.w	80025a0 <UART_SetConfig+0x1c4>
 800243a:	2b08      	cmp	r3, #8
 800243c:	d822      	bhi.n	8002484 <UART_SetConfig+0xa8>
 800243e:	e8df f003 	tbb	[pc, r3]
 8002442:	db90      	.short	0xdb90
 8002444:	21d52198 	.word	0x21d52198
 8002448:	2121      	.short	0x2121
 800244a:	99          	.byte	0x99
 800244b:	00          	.byte	0x00
 800244c:	4a7b      	ldr	r2, [pc, #492]	; (800263c <UART_SetConfig+0x260>)
 800244e:	4293      	cmp	r3, r2
 8002450:	d106      	bne.n	8002460 <UART_SetConfig+0x84>
 8002452:	4b78      	ldr	r3, [pc, #480]	; (8002634 <UART_SetConfig+0x258>)
 8002454:	4a7a      	ldr	r2, [pc, #488]	; (8002640 <UART_SetConfig+0x264>)
 8002456:	f8d3 3090 	ldr.w	r3, [r3, #144]	; 0x90
 800245a:	f003 030c 	and.w	r3, r3, #12
 800245e:	e7e7      	b.n	8002430 <UART_SetConfig+0x54>
 8002460:	4a78      	ldr	r2, [pc, #480]	; (8002644 <UART_SetConfig+0x268>)
 8002462:	4293      	cmp	r3, r2
 8002464:	d118      	bne.n	8002498 <UART_SetConfig+0xbc>
 8002466:	4b73      	ldr	r3, [pc, #460]	; (8002634 <UART_SetConfig+0x258>)
 8002468:	f8d3 3090 	ldr.w	r3, [r3, #144]	; 0x90
 800246c:	f003 0330 	and.w	r3, r3, #48	; 0x30
 8002470:	2b20      	cmp	r3, #32
 8002472:	f000 80b3 	beq.w	80025dc <UART_SetConfig+0x200>
 8002476:	d807      	bhi.n	8002488 <UART_SetConfig+0xac>
 8002478:	2b00      	cmp	r3, #0
 800247a:	f000 80c0 	beq.w	80025fe <UART_SetConfig+0x222>
 800247e:	2b10      	cmp	r3, #16
 8002480:	f000 80b1 	beq.w	80025e6 <UART_SetConfig+0x20a>
 8002484:	2001      	movs	r0, #1
 8002486:	e070      	b.n	800256a <UART_SetConfig+0x18e>
 8002488:	2b30      	cmp	r3, #48	; 0x30
 800248a:	d1fb      	bne.n	8002484 <UART_SetConfig+0xa8>
 800248c:	f5b0 4f00 	cmp.w	r0, #32768	; 0x8000
 8002490:	d070      	beq.n	8002574 <UART_SetConfig+0x198>
 8002492:	f44f 4000 	mov.w	r0, #32768	; 0x8000
 8002496:	e0b9      	b.n	800260c <UART_SetConfig+0x230>
 8002498:	4a6b      	ldr	r2, [pc, #428]	; (8002648 <UART_SetConfig+0x26c>)
 800249a:	4293      	cmp	r3, r2
 800249c:	d10f      	bne.n	80024be <UART_SetConfig+0xe2>
 800249e:	4b65      	ldr	r3, [pc, #404]	; (8002634 <UART_SetConfig+0x258>)
 80024a0:	f8d3 3090 	ldr.w	r3, [r3, #144]	; 0x90
 80024a4:	f003 03c0 	and.w	r3, r3, #192	; 0xc0
 80024a8:	2b80      	cmp	r3, #128	; 0x80
 80024aa:	f000 8097 	beq.w	80025dc <UART_SetConfig+0x200>
 80024ae:	d804      	bhi.n	80024ba <UART_SetConfig+0xde>
 80024b0:	2b00      	cmp	r3, #0
 80024b2:	f000 80a4 	beq.w	80025fe <UART_SetConfig+0x222>
 80024b6:	2b40      	cmp	r3, #64	; 0x40
 80024b8:	e7e2      	b.n	8002480 <UART_SetConfig+0xa4>
 80024ba:	2bc0      	cmp	r3, #192	; 0xc0
 80024bc:	e7e5      	b.n	800248a <UART_SetConfig+0xae>
 80024be:	4a63      	ldr	r2, [pc, #396]	; (800264c <UART_SetConfig+0x270>)
 80024c0:	4293      	cmp	r3, r2
 80024c2:	d112      	bne.n	80024ea <UART_SetConfig+0x10e>
 80024c4:	4b5b      	ldr	r3, [pc, #364]	; (8002634 <UART_SetConfig+0x258>)
 80024c6:	f8d3 3090 	ldr.w	r3, [r3, #144]	; 0x90
 80024ca:	f403 7340 	and.w	r3, r3, #768	; 0x300
 80024ce:	f5b3 7f00 	cmp.w	r3, #512	; 0x200
 80024d2:	f000 8083 	beq.w	80025dc <UART_SetConfig+0x200>
 80024d6:	d805      	bhi.n	80024e4 <UART_SetConfig+0x108>
 80024d8:	2b00      	cmp	r3, #0
 80024da:	f000 8090 	beq.w	80025fe <UART_SetConfig+0x222>
 80024de:	f5b3 7f80 	cmp.w	r3, #256	; 0x100
 80024e2:	e7cd      	b.n	8002480 <UART_SetConfig+0xa4>
 80024e4:	f5b3 7f40 	cmp.w	r3, #768	; 0x300
 80024e8:	e7cf      	b.n	800248a <UART_SetConfig+0xae>
 80024ea:	4a59      	ldr	r2, [pc, #356]	; (8002650 <UART_SetConfig+0x274>)
 80024ec:	4293      	cmp	r3, r2
 80024ee:	d110      	bne.n	8002512 <UART_SetConfig+0x136>
 80024f0:	4b50      	ldr	r3, [pc, #320]	; (8002634 <UART_SetConfig+0x258>)
 80024f2:	f8d3 3090 	ldr.w	r3, [r3, #144]	; 0x90
 80024f6:	f403 6340 	and.w	r3, r3, #3072	; 0xc00
 80024fa:	f5b3 6f00 	cmp.w	r3, #2048	; 0x800
 80024fe:	d06d      	beq.n	80025dc <UART_SetConfig+0x200>
 8002500:	d804      	bhi.n	800250c <UART_SetConfig+0x130>
 8002502:	2b00      	cmp	r3, #0
 8002504:	d075      	beq.n	80025f2 <UART_SetConfig+0x216>
 8002506:	f5b3 6f80 	cmp.w	r3, #1024	; 0x400
 800250a:	e7b9      	b.n	8002480 <UART_SetConfig+0xa4>
 800250c:	f5b3 6f40 	cmp.w	r3, #3072	; 0xc00
 8002510:	e7bb      	b.n	800248a <UART_SetConfig+0xae>
 8002512:	4a50      	ldr	r2, [pc, #320]	; (8002654 <UART_SetConfig+0x278>)
 8002514:	4293      	cmp	r3, r2
 8002516:	d110      	bne.n	800253a <UART_SetConfig+0x15e>
 8002518:	4b46      	ldr	r3, [pc, #280]	; (8002634 <UART_SetConfig+0x258>)
 800251a:	f8d3 3090 	ldr.w	r3, [r3, #144]	; 0x90
 800251e:	f403 5340 	and.w	r3, r3, #12288	; 0x3000
 8002522:	f5b3 5f00 	cmp.w	r3, #8192	; 0x2000
 8002526:	d059      	beq.n	80025dc <UART_SetConfig+0x200>
 8002528:	d804      	bhi.n	8002534 <UART_SetConfig+0x158>
 800252a:	2b00      	cmp	r3, #0
 800252c:	d067      	beq.n	80025fe <UART_SetConfig+0x222>
 800252e:	f5b3 5f80 	cmp.w	r3, #4096	; 0x1000
 8002532:	e7a5      	b.n	8002480 <UART_SetConfig+0xa4>
 8002534:	f5b3 5f40 	cmp.w	r3, #12288	; 0x3000
 8002538:	e7a7      	b.n	800248a <UART_SetConfig+0xae>
 800253a:	4a47      	ldr	r2, [pc, #284]	; (8002658 <UART_SetConfig+0x27c>)
 800253c:	4293      	cmp	r3, r2
 800253e:	d1a1      	bne.n	8002484 <UART_SetConfig+0xa8>
 8002540:	4b3c      	ldr	r3, [pc, #240]	; (8002634 <UART_SetConfig+0x258>)
 8002542:	f8d3 3090 	ldr.w	r3, [r3, #144]	; 0x90
 8002546:	f403 4340 	and.w	r3, r3, #49152	; 0xc000
 800254a:	f5b3 4f00 	cmp.w	r3, #32768	; 0x8000
 800254e:	d045      	beq.n	80025dc <UART_SetConfig+0x200>
 8002550:	d804      	bhi.n	800255c <UART_SetConfig+0x180>
 8002552:	2b00      	cmp	r3, #0
 8002554:	d053      	beq.n	80025fe <UART_SetConfig+0x222>
 8002556:	f5b3 4f80 	cmp.w	r3, #16384	; 0x4000
 800255a:	e791      	b.n	8002480 <UART_SetConfig+0xa4>
 800255c:	f5b3 4f40 	cmp.w	r3, #49152	; 0xc000
 8002560:	e793      	b.n	800248a <UART_SetConfig+0xae>
 8002562:	f7ff fc6f 	bl	8001e44 <HAL_RCC_GetPCLK1Freq>
 8002566:	b928      	cbnz	r0, 8002574 <UART_SetConfig+0x198>
 8002568:	2000      	movs	r0, #0
 800256a:	2300      	movs	r3, #0
 800256c:	e9c4 3319 	strd	r3, r3, [r4, #100]	; 0x64
 8002570:	bd38      	pop	{r3, r4, r5, pc}
 8002572:	483a      	ldr	r0, [pc, #232]	; (800265c <UART_SetConfig+0x280>)
 8002574:	6862      	ldr	r2, [r4, #4]
 8002576:	0853      	lsrs	r3, r2, #1
 8002578:	eb03 0040 	add.w	r0, r3, r0, lsl #1
 800257c:	f64f 73ef 	movw	r3, #65519	; 0xffef
 8002580:	fbb0 f0f2 	udiv	r0, r0, r2
 8002584:	f1a0 0210 	sub.w	r2, r0, #16
 8002588:	429a      	cmp	r2, r3
 800258a:	f63f af7b 	bhi.w	8002484 <UART_SetConfig+0xa8>
 800258e:	f020 030f 	bic.w	r3, r0, #15
 8002592:	f3c0 0042 	ubfx	r0, r0, #1, #3
 8002596:	6822      	ldr	r2, [r4, #0]
 8002598:	b29b      	uxth	r3, r3
 800259a:	4318      	orrs	r0, r3
 800259c:	60d0      	str	r0, [r2, #12]
 800259e:	e7e3      	b.n	8002568 <UART_SetConfig+0x18c>
 80025a0:	2b08      	cmp	r3, #8
 80025a2:	f63f af6f 	bhi.w	8002484 <UART_SetConfig+0xa8>
 80025a6:	a201      	add	r2, pc, #4	; (adr r2, 80025ac <UART_SetConfig+0x1d0>)
 80025a8:	f852 f023 	ldr.w	pc, [r2, r3, lsl #2]
 80025ac:	08002605 	.word	0x08002605
 80025b0:	080025d1 	.word	0x080025d1
 80025b4:	080025e3 	.word	0x080025e3
 80025b8:	08002485 	.word	0x08002485
 80025bc:	080025d7 	.word	0x080025d7
 80025c0:	08002485 	.word	0x08002485
 80025c4:	08002485 	.word	0x08002485
 80025c8:	08002485 	.word	0x08002485
 80025cc:	08002493 	.word	0x08002493
 80025d0:	f7ff fc48 	bl	8001e64 <HAL_RCC_GetPCLK2Freq>
 80025d4:	e018      	b.n	8002608 <UART_SetConfig+0x22c>
 80025d6:	f7ff fb61 	bl	8001c9c <HAL_RCC_GetSysClockFreq>
 80025da:	e015      	b.n	8002608 <UART_SetConfig+0x22c>
 80025dc:	f5b0 4f00 	cmp.w	r0, #32768	; 0x8000
 80025e0:	d0c7      	beq.n	8002572 <UART_SetConfig+0x196>
 80025e2:	481e      	ldr	r0, [pc, #120]	; (800265c <UART_SetConfig+0x280>)
 80025e4:	e012      	b.n	800260c <UART_SetConfig+0x230>
 80025e6:	f5b0 4f00 	cmp.w	r0, #32768	; 0x8000
 80025ea:	d1f4      	bne.n	80025d6 <UART_SetConfig+0x1fa>
 80025ec:	f7ff fb56 	bl	8001c9c <HAL_RCC_GetSysClockFreq>
 80025f0:	e7b9      	b.n	8002566 <UART_SetConfig+0x18a>
 80025f2:	f5b0 4f00 	cmp.w	r0, #32768	; 0x8000
 80025f6:	d1eb      	bne.n	80025d0 <UART_SetConfig+0x1f4>
 80025f8:	f7ff fc34 	bl	8001e64 <HAL_RCC_GetPCLK2Freq>
 80025fc:	e7b3      	b.n	8002566 <UART_SetConfig+0x18a>
 80025fe:	f5b0 4f00 	cmp.w	r0, #32768	; 0x8000
 8002602:	d0ae      	beq.n	8002562 <UART_SetConfig+0x186>
 8002604:	f7ff fc1e 	bl	8001e44 <HAL_RCC_GetPCLK1Freq>
 8002608:	2800      	cmp	r0, #0
 800260a:	d0ad      	beq.n	8002568 <UART_SetConfig+0x18c>
 800260c:	6862      	ldr	r2, [r4, #4]
 800260e:	eb00 0352 	add.w	r3, r0, r2, lsr #1
 8002612:	fbb3 f3f2 	udiv	r3, r3, r2
 8002616:	f64f 72ef 	movw	r2, #65519	; 0xffef
 800261a:	f1a3 0110 	sub.w	r1, r3, #16
 800261e:	4291      	cmp	r1, r2
 8002620:	f63f af30 	bhi.w	8002484 <UART_SetConfig+0xa8>
 8002624:	6822      	ldr	r2, [r4, #0]
 8002626:	60d3      	str	r3, [r2, #12]
 8002628:	e79e      	b.n	8002568 <UART_SetConfig+0x18c>
 800262a:	bf00      	nop
 800262c:	efff69f3 	.word	0xefff69f3
 8002630:	40011000 	.word	0x40011000
 8002634:	40023800 	.word	0x40023800
 8002638:	0800af3c 	.word	0x0800af3c
 800263c:	40004400 	.word	0x40004400
 8002640:	0800af3f 	.word	0x0800af3f
 8002644:	40004800 	.word	0x40004800
 8002648:	40004c00 	.word	0x40004c00
 800264c:	40005000 	.word	0x40005000
 8002650:	40011400 	.word	0x40011400
 8002654:	40007800 	.word	0x40007800
 8002658:	40007c00 	.word	0x40007c00
 800265c:	00f42400 	.word	0x00f42400

08002660 <UART_AdvFeatureConfig>:
 8002660:	6a43      	ldr	r3, [r0, #36]	; 0x24
 8002662:	07da      	lsls	r2, r3, #31
 8002664:	b510      	push	{r4, lr}
 8002666:	d506      	bpl.n	8002676 <UART_AdvFeatureConfig+0x16>
 8002668:	6801      	ldr	r1, [r0, #0]
 800266a:	6a84      	ldr	r4, [r0, #40]	; 0x28
 800266c:	684a      	ldr	r2, [r1, #4]
 800266e:	f422 3200 	bic.w	r2, r2, #131072	; 0x20000
 8002672:	4322      	orrs	r2, r4
 8002674:	604a      	str	r2, [r1, #4]
 8002676:	079c      	lsls	r4, r3, #30
 8002678:	d506      	bpl.n	8002688 <UART_AdvFeatureConfig+0x28>
 800267a:	6801      	ldr	r1, [r0, #0]
 800267c:	6ac4      	ldr	r4, [r0, #44]	; 0x2c
 800267e:	684a      	ldr	r2, [r1, #4]
 8002680:	f422 3280 	bic.w	r2, r2, #65536	; 0x10000
 8002684:	4322      	orrs	r2, r4
 8002686:	604a      	str	r2, [r1, #4]
 8002688:	0759      	lsls	r1, r3, #29
 800268a:	d506      	bpl.n	800269a <UART_AdvFeatureConfig+0x3a>
 800268c:	6801      	ldr	r1, [r0, #0]
 800268e:	6b04      	ldr	r4, [r0, #48]	; 0x30
 8002690:	684a      	ldr	r2, [r1, #4]
 8002692:	f422 2280 	bic.w	r2, r2, #262144	; 0x40000
 8002696:	4322      	orrs	r2, r4
 8002698:	604a      	str	r2, [r1, #4]
 800269a:	071a      	lsls	r2, r3, #28
 800269c:	d506      	bpl.n	80026ac <UART_AdvFeatureConfig+0x4c>
 800269e:	6801      	ldr	r1, [r0, #0]
 80026a0:	6b44      	ldr	r4, [r0, #52]	; 0x34
 80026a2:	684a      	ldr	r2, [r1, #4]
 80026a4:	f422 4200 	bic.w	r2, r2, #32768	; 0x8000
 80026a8:	4322      	orrs	r2, r4
 80026aa:	604a      	str	r2, [r1, #4]
 80026ac:	06dc      	lsls	r4, r3, #27
 80026ae:	d506      	bpl.n	80026be <UART_AdvFeatureConfig+0x5e>
 80026b0:	6801      	ldr	r1, [r0, #0]
 80026b2:	6b84      	ldr	r4, [r0, #56]	; 0x38
 80026b4:	688a      	ldr	r2, [r1, #8]
 80026b6:	f422 5280 	bic.w	r2, r2, #4096	; 0x1000
 80026ba:	4322      	orrs	r2, r4
 80026bc:	608a      	str	r2, [r1, #8]
 80026be:	0699      	lsls	r1, r3, #26
 80026c0:	d506      	bpl.n	80026d0 <UART_AdvFeatureConfig+0x70>
 80026c2:	6801      	ldr	r1, [r0, #0]
 80026c4:	6bc4      	ldr	r4, [r0, #60]	; 0x3c
 80026c6:	688a      	ldr	r2, [r1, #8]
 80026c8:	f422 5200 	bic.w	r2, r2, #8192	; 0x2000
 80026cc:	4322      	orrs	r2, r4
 80026ce:	608a      	str	r2, [r1, #8]
 80026d0:	065a      	lsls	r2, r3, #25
 80026d2:	d510      	bpl.n	80026f6 <UART_AdvFeatureConfig+0x96>
 80026d4:	6801      	ldr	r1, [r0, #0]
 80026d6:	6c04      	ldr	r4, [r0, #64]	; 0x40
 80026d8:	684a      	ldr	r2, [r1, #4]
 80026da:	f5b4 1f80 	cmp.w	r4, #1048576	; 0x100000
 80026de:	f422 1280 	bic.w	r2, r2, #1048576	; 0x100000
 80026e2:	ea42 0204 	orr.w	r2, r2, r4
 80026e6:	604a      	str	r2, [r1, #4]
 80026e8:	d105      	bne.n	80026f6 <UART_AdvFeatureConfig+0x96>
 80026ea:	684a      	ldr	r2, [r1, #4]
 80026ec:	6c44      	ldr	r4, [r0, #68]	; 0x44
 80026ee:	f422 02c0 	bic.w	r2, r2, #6291456	; 0x600000
 80026f2:	4322      	orrs	r2, r4
 80026f4:	604a      	str	r2, [r1, #4]
 80026f6:	061b      	lsls	r3, r3, #24
 80026f8:	d506      	bpl.n	8002708 <UART_AdvFeatureConfig+0xa8>
 80026fa:	6802      	ldr	r2, [r0, #0]
 80026fc:	6c81      	ldr	r1, [r0, #72]	; 0x48
 80026fe:	6853      	ldr	r3, [r2, #4]
 8002700:	f423 2300 	bic.w	r3, r3, #524288	; 0x80000
 8002704:	430b      	orrs	r3, r1
 8002706:	6053      	str	r3, [r2, #4]
 8002708:	bd10      	pop	{r4, pc}

0800270a <UART_WaitOnFlagUntilTimeout>:
 800270a:	e92d 41f0 	stmdb	sp!, {r4, r5, r6, r7, r8, lr}
 800270e:	f8dd 8018 	ldr.w	r8, [sp, #24]
 8002712:	4604      	mov	r4, r0
 8002714:	460e      	mov	r6, r1
 8002716:	4615      	mov	r5, r2
 8002718:	461f      	mov	r7, r3
 800271a:	6822      	ldr	r2, [r4, #0]
 800271c:	69d3      	ldr	r3, [r2, #28]
 800271e:	ea36 0303 	bics.w	r3, r6, r3
 8002722:	bf0c      	ite	eq
 8002724:	2301      	moveq	r3, #1
 8002726:	2300      	movne	r3, #0
 8002728:	42ab      	cmp	r3, r5
 800272a:	d001      	beq.n	8002730 <UART_WaitOnFlagUntilTimeout+0x26>
 800272c:	2000      	movs	r0, #0
 800272e:	e025      	b.n	800277c <UART_WaitOnFlagUntilTimeout+0x72>
 8002730:	f1b8 3fff 	cmp.w	r8, #4294967295
 8002734:	d0f2      	beq.n	800271c <UART_WaitOnFlagUntilTimeout+0x12>
 8002736:	f7fe fa43 	bl	8000bc0 <HAL_GetTick>
 800273a:	1bc0      	subs	r0, r0, r7
 800273c:	4540      	cmp	r0, r8
 800273e:	6820      	ldr	r0, [r4, #0]
 8002740:	d802      	bhi.n	8002748 <UART_WaitOnFlagUntilTimeout+0x3e>
 8002742:	f1b8 0f00 	cmp.w	r8, #0
 8002746:	d11b      	bne.n	8002780 <UART_WaitOnFlagUntilTimeout+0x76>
 8002748:	e850 3f00 	ldrex	r3, [r0]
 800274c:	f423 73d0 	bic.w	r3, r3, #416	; 0x1a0
 8002750:	e840 3200 	strex	r2, r3, [r0]
 8002754:	2a00      	cmp	r2, #0
 8002756:	d1f7      	bne.n	8002748 <UART_WaitOnFlagUntilTimeout+0x3e>
 8002758:	f100 0308 	add.w	r3, r0, #8
 800275c:	e853 3f00 	ldrex	r3, [r3]
 8002760:	f023 0301 	bic.w	r3, r3, #1
 8002764:	f100 0108 	add.w	r1, r0, #8
 8002768:	e841 3200 	strex	r2, r3, [r1]
 800276c:	2a00      	cmp	r2, #0
 800276e:	d1f3      	bne.n	8002758 <UART_WaitOnFlagUntilTimeout+0x4e>
 8002770:	2320      	movs	r3, #32
 8002772:	67a3      	str	r3, [r4, #120]	; 0x78
 8002774:	67e3      	str	r3, [r4, #124]	; 0x7c
 8002776:	2003      	movs	r0, #3
 8002778:	f884 2074 	strb.w	r2, [r4, #116]	; 0x74
 800277c:	e8bd 81f0 	ldmia.w	sp!, {r4, r5, r6, r7, r8, pc}
 8002780:	6803      	ldr	r3, [r0, #0]
 8002782:	075a      	lsls	r2, r3, #29
 8002784:	d5c9      	bpl.n	800271a <UART_WaitOnFlagUntilTimeout+0x10>
 8002786:	69c3      	ldr	r3, [r0, #28]
 8002788:	051b      	lsls	r3, r3, #20
 800278a:	d5c6      	bpl.n	800271a <UART_WaitOnFlagUntilTimeout+0x10>
 800278c:	f44f 6300 	mov.w	r3, #2048	; 0x800
 8002790:	6203      	str	r3, [r0, #32]
 8002792:	e850 3f00 	ldrex	r3, [r0]
 8002796:	f423 73d0 	bic.w	r3, r3, #416	; 0x1a0
 800279a:	e840 3200 	strex	r2, r3, [r0]
 800279e:	2a00      	cmp	r2, #0
 80027a0:	d1f7      	bne.n	8002792 <UART_WaitOnFlagUntilTimeout+0x88>
 80027a2:	f100 0308 	add.w	r3, r0, #8
 80027a6:	e853 3f00 	ldrex	r3, [r3]
 80027aa:	f023 0301 	bic.w	r3, r3, #1
 80027ae:	f100 0108 	add.w	r1, r0, #8
 80027b2:	e841 3200 	strex	r2, r3, [r1]
 80027b6:	2a00      	cmp	r2, #0
 80027b8:	d1f3      	bne.n	80027a2 <UART_WaitOnFlagUntilTimeout+0x98>
 80027ba:	2320      	movs	r3, #32
 80027bc:	67a3      	str	r3, [r4, #120]	; 0x78
 80027be:	67e3      	str	r3, [r4, #124]	; 0x7c
 80027c0:	f8c4 3080 	str.w	r3, [r4, #128]	; 0x80
 80027c4:	e7d7      	b.n	8002776 <UART_WaitOnFlagUntilTimeout+0x6c>

080027c6 <UART_CheckIdleState>:
 80027c6:	b530      	push	{r4, r5, lr}
 80027c8:	2500      	movs	r5, #0
 80027ca:	4604      	mov	r4, r0
 80027cc:	b085      	sub	sp, #20
 80027ce:	f8c0 5080 	str.w	r5, [r0, #128]	; 0x80
 80027d2:	f7fe f9f5 	bl	8000bc0 <HAL_GetTick>
 80027d6:	6822      	ldr	r2, [r4, #0]
 80027d8:	4603      	mov	r3, r0
 80027da:	6812      	ldr	r2, [r2, #0]
 80027dc:	0711      	lsls	r1, r2, #28
 80027de:	d415      	bmi.n	800280c <UART_CheckIdleState+0x46>
 80027e0:	6822      	ldr	r2, [r4, #0]
 80027e2:	6812      	ldr	r2, [r2, #0]
 80027e4:	0752      	lsls	r2, r2, #29
 80027e6:	d509      	bpl.n	80027fc <UART_CheckIdleState+0x36>
 80027e8:	f06f 427e 	mvn.w	r2, #4261412864	; 0xfe000000
 80027ec:	f44f 0180 	mov.w	r1, #4194304	; 0x400000
 80027f0:	4620      	mov	r0, r4
 80027f2:	9200      	str	r2, [sp, #0]
 80027f4:	2200      	movs	r2, #0
 80027f6:	f7ff ff88 	bl	800270a <UART_WaitOnFlagUntilTimeout>
 80027fa:	b9a0      	cbnz	r0, 8002826 <UART_CheckIdleState+0x60>
 80027fc:	2320      	movs	r3, #32
 80027fe:	2000      	movs	r0, #0
 8002800:	67a3      	str	r3, [r4, #120]	; 0x78
 8002802:	f884 0074 	strb.w	r0, [r4, #116]	; 0x74
 8002806:	67e3      	str	r3, [r4, #124]	; 0x7c
 8002808:	6620      	str	r0, [r4, #96]	; 0x60
 800280a:	e00d      	b.n	8002828 <UART_CheckIdleState+0x62>
 800280c:	f06f 427e 	mvn.w	r2, #4261412864	; 0xfe000000
 8002810:	9003      	str	r0, [sp, #12]
 8002812:	f44f 1100 	mov.w	r1, #2097152	; 0x200000
 8002816:	4620      	mov	r0, r4
 8002818:	9200      	str	r2, [sp, #0]
 800281a:	462a      	mov	r2, r5
 800281c:	f7ff ff75 	bl	800270a <UART_WaitOnFlagUntilTimeout>
 8002820:	9b03      	ldr	r3, [sp, #12]
 8002822:	2800      	cmp	r0, #0
 8002824:	d0dc      	beq.n	80027e0 <UART_CheckIdleState+0x1a>
 8002826:	2003      	movs	r0, #3
 8002828:	b005      	add	sp, #20
 800282a:	bd30      	pop	{r4, r5, pc}

0800282c <HAL_UART_Init>:
 800282c:	b510      	push	{r4, lr}
 800282e:	4604      	mov	r4, r0
 8002830:	b340      	cbz	r0, 8002884 <HAL_UART_Init+0x58>
 8002832:	6f83      	ldr	r3, [r0, #120]	; 0x78
 8002834:	b91b      	cbnz	r3, 800283e <HAL_UART_Init+0x12>
 8002836:	f880 3074 	strb.w	r3, [r0, #116]	; 0x74
 800283a:	f7fe f851 	bl	80008e0 <HAL_UART_MspInit>
 800283e:	6822      	ldr	r2, [r4, #0]
 8002840:	2324      	movs	r3, #36	; 0x24
 8002842:	4620      	mov	r0, r4
 8002844:	67a3      	str	r3, [r4, #120]	; 0x78
 8002846:	6813      	ldr	r3, [r2, #0]
 8002848:	f023 0301 	bic.w	r3, r3, #1
 800284c:	6013      	str	r3, [r2, #0]
 800284e:	f7ff fdc5 	bl	80023dc <UART_SetConfig>
 8002852:	2801      	cmp	r0, #1
 8002854:	d016      	beq.n	8002884 <HAL_UART_Init+0x58>
 8002856:	6a63      	ldr	r3, [r4, #36]	; 0x24
 8002858:	b113      	cbz	r3, 8002860 <HAL_UART_Init+0x34>
 800285a:	4620      	mov	r0, r4
 800285c:	f7ff ff00 	bl	8002660 <UART_AdvFeatureConfig>
 8002860:	6823      	ldr	r3, [r4, #0]
 8002862:	4620      	mov	r0, r4
 8002864:	685a      	ldr	r2, [r3, #4]
 8002866:	f422 4290 	bic.w	r2, r2, #18432	; 0x4800
 800286a:	605a      	str	r2, [r3, #4]
 800286c:	689a      	ldr	r2, [r3, #8]
 800286e:	f022 022a 	bic.w	r2, r2, #42	; 0x2a
 8002872:	609a      	str	r2, [r3, #8]
 8002874:	681a      	ldr	r2, [r3, #0]
 8002876:	f042 0201 	orr.w	r2, r2, #1
 800287a:	e8bd 4010 	ldmia.w	sp!, {r4, lr}
 800287e:	601a      	str	r2, [r3, #0]
 8002880:	f7ff bfa1 	b.w	80027c6 <UART_CheckIdleState>
 8002884:	2001      	movs	r0, #1
 8002886:	bd10      	pop	{r4, pc}

08002888 <USB_CoreReset>:
 8002888:	b082      	sub	sp, #8
 800288a:	2300      	movs	r3, #0
 800288c:	4a0f      	ldr	r2, [pc, #60]	; (80028cc <USB_CoreReset+0x44>)
 800288e:	9301      	str	r3, [sp, #4]
 8002890:	9b01      	ldr	r3, [sp, #4]
 8002892:	3301      	adds	r3, #1
 8002894:	4293      	cmp	r3, r2
 8002896:	9301      	str	r3, [sp, #4]
 8002898:	d815      	bhi.n	80028c6 <USB_CoreReset+0x3e>
 800289a:	6903      	ldr	r3, [r0, #16]
 800289c:	2b00      	cmp	r3, #0
 800289e:	daf7      	bge.n	8002890 <USB_CoreReset+0x8>
 80028a0:	2300      	movs	r3, #0
 80028a2:	4a0a      	ldr	r2, [pc, #40]	; (80028cc <USB_CoreReset+0x44>)
 80028a4:	9301      	str	r3, [sp, #4]
 80028a6:	6903      	ldr	r3, [r0, #16]
 80028a8:	f043 0301 	orr.w	r3, r3, #1
 80028ac:	6103      	str	r3, [r0, #16]
 80028ae:	9b01      	ldr	r3, [sp, #4]
 80028b0:	3301      	adds	r3, #1
 80028b2:	4293      	cmp	r3, r2
 80028b4:	9301      	str	r3, [sp, #4]
 80028b6:	d806      	bhi.n	80028c6 <USB_CoreReset+0x3e>
 80028b8:	6903      	ldr	r3, [r0, #16]
 80028ba:	f013 0301 	ands.w	r3, r3, #1
 80028be:	d1f6      	bne.n	80028ae <USB_CoreReset+0x26>
 80028c0:	4618      	mov	r0, r3
 80028c2:	b002      	add	sp, #8
 80028c4:	4770      	bx	lr
 80028c6:	2003      	movs	r0, #3
 80028c8:	e7fb      	b.n	80028c2 <USB_CoreReset+0x3a>
 80028ca:	bf00      	nop
 80028cc:	00030d40 	.word	0x00030d40

080028d0 <USB_CoreInit>:
 80028d0:	b084      	sub	sp, #16
 80028d2:	b538      	push	{r3, r4, r5, lr}
 80028d4:	ad05      	add	r5, sp, #20
 80028d6:	4604      	mov	r4, r0
 80028d8:	e885 000e 	stmia.w	r5, {r1, r2, r3}
 80028dc:	9b0a      	ldr	r3, [sp, #40]	; 0x28
 80028de:	2b01      	cmp	r3, #1
 80028e0:	d126      	bne.n	8002930 <USB_CoreInit+0x60>
 80028e2:	6b83      	ldr	r3, [r0, #56]	; 0x38
 80028e4:	f423 3380 	bic.w	r3, r3, #65536	; 0x10000
 80028e8:	6383      	str	r3, [r0, #56]	; 0x38
 80028ea:	68c3      	ldr	r3, [r0, #12]
 80028ec:	f423 0384 	bic.w	r3, r3, #4325376	; 0x420000
 80028f0:	f023 0340 	bic.w	r3, r3, #64	; 0x40
 80028f4:	60c3      	str	r3, [r0, #12]
 80028f6:	68c3      	ldr	r3, [r0, #12]
 80028f8:	f423 1340 	bic.w	r3, r3, #3145728	; 0x300000
 80028fc:	60c3      	str	r3, [r0, #12]
 80028fe:	9b11      	ldr	r3, [sp, #68]	; 0x44
 8002900:	2b01      	cmp	r3, #1
 8002902:	d103      	bne.n	800290c <USB_CoreInit+0x3c>
 8002904:	68c3      	ldr	r3, [r0, #12]
 8002906:	f443 1380 	orr.w	r3, r3, #1048576	; 0x100000
 800290a:	60c3      	str	r3, [r0, #12]
 800290c:	4620      	mov	r0, r4
 800290e:	f7ff ffbb 	bl	8002888 <USB_CoreReset>
 8002912:	9b08      	ldr	r3, [sp, #32]
 8002914:	2b01      	cmp	r3, #1
 8002916:	d107      	bne.n	8002928 <USB_CoreInit+0x58>
 8002918:	68a3      	ldr	r3, [r4, #8]
 800291a:	f043 0306 	orr.w	r3, r3, #6
 800291e:	60a3      	str	r3, [r4, #8]
 8002920:	68a3      	ldr	r3, [r4, #8]
 8002922:	f043 0320 	orr.w	r3, r3, #32
 8002926:	60a3      	str	r3, [r4, #8]
 8002928:	e8bd 4038 	ldmia.w	sp!, {r3, r4, r5, lr}
 800292c:	b004      	add	sp, #16
 800292e:	4770      	bx	lr
 8002930:	68c3      	ldr	r3, [r0, #12]
 8002932:	f043 0340 	orr.w	r3, r3, #64	; 0x40
 8002936:	60c3      	str	r3, [r0, #12]
 8002938:	f7ff ffa6 	bl	8002888 <USB_CoreReset>
 800293c:	6ba3      	ldr	r3, [r4, #56]	; 0x38
 800293e:	f443 3380 	orr.w	r3, r3, #65536	; 0x10000
 8002942:	63a3      	str	r3, [r4, #56]	; 0x38
 8002944:	e7e5      	b.n	8002912 <USB_CoreInit+0x42>

08002946 <USB_DisableGlobalInt>:
 8002946:	6883      	ldr	r3, [r0, #8]
 8002948:	f023 0301 	bic.w	r3, r3, #1
 800294c:	6083      	str	r3, [r0, #8]
 800294e:	2000      	movs	r0, #0
 8002950:	4770      	bx	lr

08002952 <USB_SetCurrentMode>:
 8002952:	b538      	push	{r3, r4, r5, lr}
 8002954:	68c3      	ldr	r3, [r0, #12]
 8002956:	2901      	cmp	r1, #1
 8002958:	4605      	mov	r5, r0
 800295a:	f023 43c0 	bic.w	r3, r3, #1610612736	; 0x60000000
 800295e:	60c3      	str	r3, [r0, #12]
 8002960:	d10f      	bne.n	8002982 <USB_SetCurrentMode+0x30>
 8002962:	68c3      	ldr	r3, [r0, #12]
 8002964:	2400      	movs	r4, #0
 8002966:	f043 5300 	orr.w	r3, r3, #536870912	; 0x20000000
 800296a:	60c3      	str	r3, [r0, #12]
 800296c:	2001      	movs	r0, #1
 800296e:	3401      	adds	r4, #1
 8002970:	f7fe f92c 	bl	8000bcc <HAL_Delay>
 8002974:	696b      	ldr	r3, [r5, #20]
 8002976:	07d9      	lsls	r1, r3, #31
 8002978:	d414      	bmi.n	80029a4 <USB_SetCurrentMode+0x52>
 800297a:	2c32      	cmp	r4, #50	; 0x32
 800297c:	d1f6      	bne.n	800296c <USB_SetCurrentMode+0x1a>
 800297e:	2001      	movs	r0, #1
 8002980:	bd38      	pop	{r3, r4, r5, pc}
 8002982:	2900      	cmp	r1, #0
 8002984:	d1fb      	bne.n	800297e <USB_SetCurrentMode+0x2c>
 8002986:	68c3      	ldr	r3, [r0, #12]
 8002988:	460c      	mov	r4, r1
 800298a:	f043 4380 	orr.w	r3, r3, #1073741824	; 0x40000000
 800298e:	60c3      	str	r3, [r0, #12]
 8002990:	2001      	movs	r0, #1
 8002992:	3401      	adds	r4, #1
 8002994:	f7fe f91a 	bl	8000bcc <HAL_Delay>
 8002998:	696b      	ldr	r3, [r5, #20]
 800299a:	07da      	lsls	r2, r3, #31
 800299c:	d502      	bpl.n	80029a4 <USB_SetCurrentMode+0x52>
 800299e:	2c32      	cmp	r4, #50	; 0x32
 80029a0:	d1f6      	bne.n	8002990 <USB_SetCurrentMode+0x3e>
 80029a2:	e7ec      	b.n	800297e <USB_SetCurrentMode+0x2c>
 80029a4:	f1a4 0332 	sub.w	r3, r4, #50	; 0x32
 80029a8:	4258      	negs	r0, r3
 80029aa:	4158      	adcs	r0, r3
 80029ac:	e7e8      	b.n	8002980 <USB_SetCurrentMode+0x2e>
	...

080029b0 <USB_FlushTxFifo>:
 80029b0:	b082      	sub	sp, #8
 80029b2:	2300      	movs	r3, #0
 80029b4:	4a0f      	ldr	r2, [pc, #60]	; (80029f4 <USB_FlushTxFifo+0x44>)
 80029b6:	9301      	str	r3, [sp, #4]
 80029b8:	9b01      	ldr	r3, [sp, #4]
 80029ba:	3301      	adds	r3, #1
 80029bc:	4293      	cmp	r3, r2
 80029be:	9301      	str	r3, [sp, #4]
 80029c0:	d815      	bhi.n	80029ee <USB_FlushTxFifo+0x3e>
 80029c2:	6903      	ldr	r3, [r0, #16]
 80029c4:	2b00      	cmp	r3, #0
 80029c6:	daf7      	bge.n	80029b8 <USB_FlushTxFifo+0x8>
 80029c8:	0189      	lsls	r1, r1, #6
 80029ca:	2300      	movs	r3, #0
 80029cc:	4a09      	ldr	r2, [pc, #36]	; (80029f4 <USB_FlushTxFifo+0x44>)
 80029ce:	f041 0120 	orr.w	r1, r1, #32
 80029d2:	9301      	str	r3, [sp, #4]
 80029d4:	6101      	str	r1, [r0, #16]
 80029d6:	9b01      	ldr	r3, [sp, #4]
 80029d8:	3301      	adds	r3, #1
 80029da:	4293      	cmp	r3, r2
 80029dc:	9301      	str	r3, [sp, #4]
 80029de:	d806      	bhi.n	80029ee <USB_FlushTxFifo+0x3e>
 80029e0:	6903      	ldr	r3, [r0, #16]
 80029e2:	f013 0320 	ands.w	r3, r3, #32
 80029e6:	d1f6      	bne.n	80029d6 <USB_FlushTxFifo+0x26>
 80029e8:	4618      	mov	r0, r3
 80029ea:	b002      	add	sp, #8
 80029ec:	4770      	bx	lr
 80029ee:	2003      	movs	r0, #3
 80029f0:	e7fb      	b.n	80029ea <USB_FlushTxFifo+0x3a>
 80029f2:	bf00      	nop
 80029f4:	00030d40 	.word	0x00030d40

080029f8 <USB_FlushRxFifo>:
 80029f8:	b082      	sub	sp, #8
 80029fa:	2300      	movs	r3, #0
 80029fc:	4a0e      	ldr	r2, [pc, #56]	; (8002a38 <USB_FlushRxFifo+0x40>)
 80029fe:	9301      	str	r3, [sp, #4]
 8002a00:	9b01      	ldr	r3, [sp, #4]
 8002a02:	3301      	adds	r3, #1
 8002a04:	4293      	cmp	r3, r2
 8002a06:	9301      	str	r3, [sp, #4]
 8002a08:	d813      	bhi.n	8002a32 <USB_FlushRxFifo+0x3a>
 8002a0a:	6903      	ldr	r3, [r0, #16]
 8002a0c:	2b00      	cmp	r3, #0
 8002a0e:	daf7      	bge.n	8002a00 <USB_FlushRxFifo+0x8>
 8002a10:	2300      	movs	r3, #0
 8002a12:	4a09      	ldr	r2, [pc, #36]	; (8002a38 <USB_FlushRxFifo+0x40>)
 8002a14:	9301      	str	r3, [sp, #4]
 8002a16:	2310      	movs	r3, #16
 8002a18:	6103      	str	r3, [r0, #16]
 8002a1a:	9b01      	ldr	r3, [sp, #4]
 8002a1c:	3301      	adds	r3, #1
 8002a1e:	4293      	cmp	r3, r2
 8002a20:	9301      	str	r3, [sp, #4]
 8002a22:	d806      	bhi.n	8002a32 <USB_FlushRxFifo+0x3a>
 8002a24:	6903      	ldr	r3, [r0, #16]
 8002a26:	f013 0310 	ands.w	r3, r3, #16
 8002a2a:	d1f6      	bne.n	8002a1a <USB_FlushRxFifo+0x22>
 8002a2c:	4618      	mov	r0, r3
 8002a2e:	b002      	add	sp, #8
 8002a30:	4770      	bx	lr
 8002a32:	2003      	movs	r0, #3
 8002a34:	e7fb      	b.n	8002a2e <USB_FlushRxFifo+0x36>
 8002a36:	bf00      	nop
 8002a38:	00030d40 	.word	0x00030d40

08002a3c <USB_SetDevSpeed>:
 8002a3c:	f8d0 3800 	ldr.w	r3, [r0, #2048]	; 0x800
 8002a40:	4319      	orrs	r1, r3
 8002a42:	f8c0 1800 	str.w	r1, [r0, #2048]	; 0x800
 8002a46:	2000      	movs	r0, #0
 8002a48:	4770      	bx	lr
	...

08002a4c <USB_DevInit>:
 8002a4c:	b084      	sub	sp, #16
 8002a4e:	e92d 43f8 	stmdb	sp!, {r3, r4, r5, r6, r7, r8, r9, lr}
 8002a52:	4604      	mov	r4, r0
 8002a54:	a809      	add	r0, sp, #36	; 0x24
 8002a56:	460e      	mov	r6, r1
 8002a58:	9d13      	ldr	r5, [sp, #76]	; 0x4c
 8002a5a:	e880 000e 	stmia.w	r0, {r1, r2, r3}
 8002a5e:	2300      	movs	r3, #0
 8002a60:	4619      	mov	r1, r3
 8002a62:	f103 0240 	add.w	r2, r3, #64	; 0x40
 8002a66:	3301      	adds	r3, #1
 8002a68:	eb04 0282 	add.w	r2, r4, r2, lsl #2
 8002a6c:	2b0f      	cmp	r3, #15
 8002a6e:	6051      	str	r1, [r2, #4]
 8002a70:	d1f7      	bne.n	8002a62 <USB_DevInit+0x16>
 8002a72:	f504 6700 	add.w	r7, r4, #2048	; 0x800
 8002a76:	2d00      	cmp	r5, #0
 8002a78:	d16c      	bne.n	8002b54 <USB_DevInit+0x108>
 8002a7a:	687b      	ldr	r3, [r7, #4]
 8002a7c:	f043 0302 	orr.w	r3, r3, #2
 8002a80:	607b      	str	r3, [r7, #4]
 8002a82:	6ba3      	ldr	r3, [r4, #56]	; 0x38
 8002a84:	f423 1300 	bic.w	r3, r3, #2097152	; 0x200000
 8002a88:	63a3      	str	r3, [r4, #56]	; 0x38
 8002a8a:	6823      	ldr	r3, [r4, #0]
 8002a8c:	f043 0340 	orr.w	r3, r3, #64	; 0x40
 8002a90:	6023      	str	r3, [r4, #0]
 8002a92:	6823      	ldr	r3, [r4, #0]
 8002a94:	f043 0380 	orr.w	r3, r3, #128	; 0x80
 8002a98:	6023      	str	r3, [r4, #0]
 8002a9a:	2300      	movs	r3, #0
 8002a9c:	f8c4 3e00 	str.w	r3, [r4, #3584]	; 0xe00
 8002aa0:	f8d4 3800 	ldr.w	r3, [r4, #2048]	; 0x800
 8002aa4:	f8c4 3800 	str.w	r3, [r4, #2048]	; 0x800
 8002aa8:	9b0e      	ldr	r3, [sp, #56]	; 0x38
 8002aaa:	2b01      	cmp	r3, #1
 8002aac:	d159      	bne.n	8002b62 <USB_DevInit+0x116>
 8002aae:	990b      	ldr	r1, [sp, #44]	; 0x2c
 8002ab0:	2900      	cmp	r1, #0
 8002ab2:	d154      	bne.n	8002b5e <USB_DevInit+0x112>
 8002ab4:	4620      	mov	r0, r4
 8002ab6:	f64f 387f 	movw	r8, #64383	; 0xfb7f
 8002aba:	f7ff ffbf 	bl	8002a3c <USB_SetDevSpeed>
 8002abe:	2110      	movs	r1, #16
 8002ac0:	4620      	mov	r0, r4
 8002ac2:	f7ff ff75 	bl	80029b0 <USB_FlushTxFifo>
 8002ac6:	4601      	mov	r1, r0
 8002ac8:	4620      	mov	r0, r4
 8002aca:	f7ff ff95 	bl	80029f8 <USB_FlushRxFifo>
 8002ace:	4308      	orrs	r0, r1
 8002ad0:	2300      	movs	r3, #0
 8002ad2:	f504 6210 	add.w	r2, r4, #2304	; 0x900
 8002ad6:	b2c0      	uxtb	r0, r0
 8002ad8:	f04f 4c90 	mov.w	ip, #1207959552	; 0x48000000
 8002adc:	4619      	mov	r1, r3
 8002ade:	f04f 6e00 	mov.w	lr, #134217728	; 0x8000000
 8002ae2:	3800      	subs	r0, #0
 8002ae4:	613b      	str	r3, [r7, #16]
 8002ae6:	617b      	str	r3, [r7, #20]
 8002ae8:	bf18      	it	ne
 8002aea:	2001      	movne	r0, #1
 8002aec:	61fb      	str	r3, [r7, #28]
 8002aee:	42b3      	cmp	r3, r6
 8002af0:	d139      	bne.n	8002b66 <USB_DevInit+0x11a>
 8002af2:	2200      	movs	r2, #0
 8002af4:	f504 6330 	add.w	r3, r4, #2816	; 0xb00
 8002af8:	f04f 4c90 	mov.w	ip, #1207959552	; 0x48000000
 8002afc:	f04f 6e00 	mov.w	lr, #134217728	; 0x8000000
 8002b00:	4611      	mov	r1, r2
 8002b02:	f64f 387f 	movw	r8, #64383	; 0xfb7f
 8002b06:	42b2      	cmp	r2, r6
 8002b08:	d140      	bne.n	8002b8c <USB_DevInit+0x140>
 8002b0a:	693b      	ldr	r3, [r7, #16]
 8002b0c:	f423 7380 	bic.w	r3, r3, #256	; 0x100
 8002b10:	613b      	str	r3, [r7, #16]
 8002b12:	2300      	movs	r3, #0
 8002b14:	61a3      	str	r3, [r4, #24]
 8002b16:	f06f 4380 	mvn.w	r3, #1073741824	; 0x40000000
 8002b1a:	6163      	str	r3, [r4, #20]
 8002b1c:	9b0c      	ldr	r3, [sp, #48]	; 0x30
 8002b1e:	b91b      	cbnz	r3, 8002b28 <USB_DevInit+0xdc>
 8002b20:	69a3      	ldr	r3, [r4, #24]
 8002b22:	f043 0310 	orr.w	r3, r3, #16
 8002b26:	61a3      	str	r3, [r4, #24]
 8002b28:	69a2      	ldr	r2, [r4, #24]
 8002b2a:	4b22      	ldr	r3, [pc, #136]	; (8002bb4 <USB_DevInit+0x168>)
 8002b2c:	4313      	orrs	r3, r2
 8002b2e:	61a3      	str	r3, [r4, #24]
 8002b30:	9b0f      	ldr	r3, [sp, #60]	; 0x3c
 8002b32:	b11b      	cbz	r3, 8002b3c <USB_DevInit+0xf0>
 8002b34:	69a3      	ldr	r3, [r4, #24]
 8002b36:	f043 0308 	orr.w	r3, r3, #8
 8002b3a:	61a3      	str	r3, [r4, #24]
 8002b3c:	2d01      	cmp	r5, #1
 8002b3e:	d105      	bne.n	8002b4c <USB_DevInit+0x100>
 8002b40:	69a3      	ldr	r3, [r4, #24]
 8002b42:	f043 4380 	orr.w	r3, r3, #1073741824	; 0x40000000
 8002b46:	f043 0304 	orr.w	r3, r3, #4
 8002b4a:	61a3      	str	r3, [r4, #24]
 8002b4c:	e8bd 43f8 	ldmia.w	sp!, {r3, r4, r5, r6, r7, r8, r9, lr}
 8002b50:	b004      	add	sp, #16
 8002b52:	4770      	bx	lr
 8002b54:	6ba3      	ldr	r3, [r4, #56]	; 0x38
 8002b56:	f443 1300 	orr.w	r3, r3, #2097152	; 0x200000
 8002b5a:	63a3      	str	r3, [r4, #56]	; 0x38
 8002b5c:	e79d      	b.n	8002a9a <USB_DevInit+0x4e>
 8002b5e:	4619      	mov	r1, r3
 8002b60:	e7a8      	b.n	8002ab4 <USB_DevInit+0x68>
 8002b62:	2103      	movs	r1, #3
 8002b64:	e7a6      	b.n	8002ab4 <USB_DevInit+0x68>
 8002b66:	f8d2 9000 	ldr.w	r9, [r2]
 8002b6a:	f1b9 0f00 	cmp.w	r9, #0
 8002b6e:	da0b      	bge.n	8002b88 <USB_DevInit+0x13c>
 8002b70:	b93b      	cbnz	r3, 8002b82 <USB_DevInit+0x136>
 8002b72:	f8c2 e000 	str.w	lr, [r2]
 8002b76:	6111      	str	r1, [r2, #16]
 8002b78:	3301      	adds	r3, #1
 8002b7a:	f8c2 8008 	str.w	r8, [r2, #8]
 8002b7e:	3220      	adds	r2, #32
 8002b80:	e7b5      	b.n	8002aee <USB_DevInit+0xa2>
 8002b82:	f8c2 c000 	str.w	ip, [r2]
 8002b86:	e7f6      	b.n	8002b76 <USB_DevInit+0x12a>
 8002b88:	6011      	str	r1, [r2, #0]
 8002b8a:	e7f4      	b.n	8002b76 <USB_DevInit+0x12a>
 8002b8c:	f8d3 9000 	ldr.w	r9, [r3]
 8002b90:	f1b9 0f00 	cmp.w	r9, #0
 8002b94:	da0b      	bge.n	8002bae <USB_DevInit+0x162>
 8002b96:	b93a      	cbnz	r2, 8002ba8 <USB_DevInit+0x15c>
 8002b98:	f8c3 e000 	str.w	lr, [r3]
 8002b9c:	6119      	str	r1, [r3, #16]
 8002b9e:	3201      	adds	r2, #1
 8002ba0:	f8c3 8008 	str.w	r8, [r3, #8]
 8002ba4:	3320      	adds	r3, #32
 8002ba6:	e7ae      	b.n	8002b06 <USB_DevInit+0xba>
 8002ba8:	f8c3 c000 	str.w	ip, [r3]
 8002bac:	e7f6      	b.n	8002b9c <USB_DevInit+0x150>
 8002bae:	6019      	str	r1, [r3, #0]
 8002bb0:	e7f4      	b.n	8002b9c <USB_DevInit+0x150>
 8002bb2:	bf00      	nop
 8002bb4:	803c3800 	.word	0x803c3800

08002bb8 <USB_DevDisconnect>:
 8002bb8:	f8d0 3e00 	ldr.w	r3, [r0, #3584]	; 0xe00
 8002bbc:	f023 0303 	bic.w	r3, r3, #3
 8002bc0:	f8c0 3e00 	str.w	r3, [r0, #3584]	; 0xe00
 8002bc4:	f8d0 3804 	ldr.w	r3, [r0, #2052]	; 0x804
 8002bc8:	f043 0302 	orr.w	r3, r3, #2
 8002bcc:	f8c0 3804 	str.w	r3, [r0, #2052]	; 0x804
 8002bd0:	2000      	movs	r0, #0
 8002bd2:	4770      	bx	lr

08002bd4 <MX_LWIP_Init>:
 8002bd4:	b530      	push	{r4, r5, lr}
 8002bd6:	b085      	sub	sp, #20
 8002bd8:	4d14      	ldr	r5, [pc, #80]	; (8002c2c <MX_LWIP_Init+0x58>)
 8002bda:	f000 fa6a 	bl	80030b2 <lwip_init>
 8002bde:	2000      	movs	r0, #0
 8002be0:	4b13      	ldr	r3, [pc, #76]	; (8002c30 <MX_LWIP_Init+0x5c>)
 8002be2:	4914      	ldr	r1, [pc, #80]	; (8002c34 <MX_LWIP_Init+0x60>)
 8002be4:	4a14      	ldr	r2, [pc, #80]	; (8002c38 <MX_LWIP_Init+0x64>)
 8002be6:	6018      	str	r0, [r3, #0]
 8002be8:	6008      	str	r0, [r1, #0]
 8002bea:	6010      	str	r0, [r2, #0]
 8002bec:	4c13      	ldr	r4, [pc, #76]	; (8002c3c <MX_LWIP_Init+0x68>)
 8002bee:	9502      	str	r5, [sp, #8]
 8002bf0:	4d13      	ldr	r5, [pc, #76]	; (8002c40 <MX_LWIP_Init+0x6c>)
 8002bf2:	e9cd 0500 	strd	r0, r5, [sp]
 8002bf6:	4620      	mov	r0, r4
 8002bf8:	f000 fd90 	bl	800371c <netif_add>
 8002bfc:	4620      	mov	r0, r4
 8002bfe:	f000 fe23 	bl	8003848 <netif_set_default>
 8002c02:	f894 3031 	ldrb.w	r3, [r4, #49]	; 0x31
 8002c06:	4620      	mov	r0, r4
 8002c08:	075b      	lsls	r3, r3, #29
 8002c0a:	d50b      	bpl.n	8002c24 <MX_LWIP_Init+0x50>
 8002c0c:	f000 fe22 	bl	8003854 <netif_set_up>
 8002c10:	490c      	ldr	r1, [pc, #48]	; (8002c44 <MX_LWIP_Init+0x70>)
 8002c12:	480a      	ldr	r0, [pc, #40]	; (8002c3c <MX_LWIP_Init+0x68>)
 8002c14:	f000 fe54 	bl	80038c0 <netif_set_link_callback>
 8002c18:	4808      	ldr	r0, [pc, #32]	; (8002c3c <MX_LWIP_Init+0x68>)
 8002c1a:	b005      	add	sp, #20
 8002c1c:	e8bd 4030 	ldmia.w	sp!, {r4, r5, lr}
 8002c20:	f005 bce8 	b.w	80085f4 <dhcp_start>
 8002c24:	f000 fe30 	bl	8003888 <netif_set_down>
 8002c28:	e7f2      	b.n	8002c10 <MX_LWIP_Init+0x3c>
 8002c2a:	bf00      	nop
 8002c2c:	08009cc9 	.word	0x08009cc9
 8002c30:	2000055c 	.word	0x2000055c
 8002c34:	20000560 	.word	0x20000560
 8002c38:	20000564 	.word	0x20000564
 8002c3c:	20000524 	.word	0x20000524
 8002c40:	08002ec9 	.word	0x08002ec9
 8002c44:	08003001 	.word	0x08003001

08002c48 <low_level_output>:
 8002c48:	e92d 4ff7 	stmdb	sp!, {r0, r1, r2, r4, r5, r6, r7, r8, r9, sl, fp, lr}
 8002c4c:	f8df a090 	ldr.w	sl, [pc, #144]	; 8002ce0 <low_level_output+0x98>
 8002c50:	f04f 0800 	mov.w	r8, #0
 8002c54:	460c      	mov	r4, r1
 8002c56:	f240 5bf4 	movw	fp, #1524	; 0x5f4
 8002c5a:	f8da 602c 	ldr.w	r6, [sl, #44]	; 0x2c
 8002c5e:	4647      	mov	r7, r8
 8002c60:	68b3      	ldr	r3, [r6, #8]
 8002c62:	b92c      	cbnz	r4, 8002c70 <low_level_output+0x28>
 8002c64:	4639      	mov	r1, r7
 8002c66:	481e      	ldr	r0, [pc, #120]	; (8002ce0 <low_level_output+0x98>)
 8002c68:	f7fe f96a 	bl	8000f40 <HAL_ETH_TransmitFrame>
 8002c6c:	4620      	mov	r0, r4
 8002c6e:	e004      	b.n	8002c7a <low_level_output+0x32>
 8002c70:	6832      	ldr	r2, [r6, #0]
 8002c72:	2a00      	cmp	r2, #0
 8002c74:	da0f      	bge.n	8002c96 <low_level_output+0x4e>
 8002c76:	f06f 0007 	mvn.w	r0, #7
 8002c7a:	f8da 3000 	ldr.w	r3, [sl]
 8002c7e:	f503 5380 	add.w	r3, r3, #4096	; 0x1000
 8002c82:	695a      	ldr	r2, [r3, #20]
 8002c84:	0692      	lsls	r2, r2, #26
 8002c86:	d503      	bpl.n	8002c90 <low_level_output+0x48>
 8002c88:	2220      	movs	r2, #32
 8002c8a:	615a      	str	r2, [r3, #20]
 8002c8c:	2200      	movs	r2, #0
 8002c8e:	605a      	str	r2, [r3, #4]
 8002c90:	b003      	add	sp, #12
 8002c92:	e8bd 8ff0 	ldmia.w	sp!, {r4, r5, r6, r7, r8, r9, sl, fp, pc}
 8002c96:	8962      	ldrh	r2, [r4, #10]
 8002c98:	4645      	mov	r5, r8
 8002c9a:	f04f 0900 	mov.w	r9, #0
 8002c9e:	eb05 0802 	add.w	r8, r5, r2
 8002ca2:	6861      	ldr	r1, [r4, #4]
 8002ca4:	1958      	adds	r0, r3, r5
 8002ca6:	45d8      	cmp	r8, fp
 8002ca8:	4449      	add	r1, r9
 8002caa:	d808      	bhi.n	8002cbe <low_level_output+0x76>
 8002cac:	e9cd 2300 	strd	r2, r3, [sp]
 8002cb0:	f007 f8c6 	bl	8009e40 <memcpy>
 8002cb4:	9a00      	ldr	r2, [sp, #0]
 8002cb6:	6824      	ldr	r4, [r4, #0]
 8002cb8:	4417      	add	r7, r2
 8002cba:	9b01      	ldr	r3, [sp, #4]
 8002cbc:	e7d1      	b.n	8002c62 <low_level_output+0x1a>
 8002cbe:	ebab 0505 	sub.w	r5, fp, r5
 8002cc2:	462a      	mov	r2, r5
 8002cc4:	f007 f8bc 	bl	8009e40 <memcpy>
 8002cc8:	68f6      	ldr	r6, [r6, #12]
 8002cca:	6833      	ldr	r3, [r6, #0]
 8002ccc:	2b00      	cmp	r3, #0
 8002cce:	dbd2      	blt.n	8002c76 <low_level_output+0x2e>
 8002cd0:	44a9      	add	r9, r5
 8002cd2:	442f      	add	r7, r5
 8002cd4:	68b3      	ldr	r3, [r6, #8]
 8002cd6:	f2a8 52f4 	subw	r2, r8, #1524	; 0x5f4
 8002cda:	2500      	movs	r5, #0
 8002cdc:	e7df      	b.n	8002c9e <low_level_output+0x56>
 8002cde:	bf00      	nop
 8002ce0:	20000568 	.word	0x20000568

08002ce4 <HAL_ETH_MspInit>:
 8002ce4:	b5f0      	push	{r4, r5, r6, r7, lr}
 8002ce6:	b08d      	sub	sp, #52	; 0x34
 8002ce8:	4604      	mov	r4, r0
 8002cea:	2214      	movs	r2, #20
 8002cec:	2100      	movs	r1, #0
 8002cee:	a807      	add	r0, sp, #28
 8002cf0:	f007 f8b4 	bl	8009e5c <memset>
 8002cf4:	6822      	ldr	r2, [r4, #0]
 8002cf6:	4b39      	ldr	r3, [pc, #228]	; (8002ddc <HAL_ETH_MspInit+0xf8>)
 8002cf8:	429a      	cmp	r2, r3
 8002cfa:	d16d      	bne.n	8002dd8 <HAL_ETH_MspInit+0xf4>
 8002cfc:	f5a3 4390 	sub.w	r3, r3, #18432	; 0x4800
 8002d00:	2602      	movs	r6, #2
 8002d02:	2503      	movs	r5, #3
 8002d04:	240b      	movs	r4, #11
 8002d06:	6b1a      	ldr	r2, [r3, #48]	; 0x30
 8002d08:	a907      	add	r1, sp, #28
 8002d0a:	4835      	ldr	r0, [pc, #212]	; (8002de0 <HAL_ETH_MspInit+0xfc>)
 8002d0c:	2700      	movs	r7, #0
 8002d0e:	f042 7200 	orr.w	r2, r2, #33554432	; 0x2000000
 8002d12:	631a      	str	r2, [r3, #48]	; 0x30
 8002d14:	6b1a      	ldr	r2, [r3, #48]	; 0x30
 8002d16:	f002 7200 	and.w	r2, r2, #33554432	; 0x2000000
 8002d1a:	9200      	str	r2, [sp, #0]
 8002d1c:	9a00      	ldr	r2, [sp, #0]
 8002d1e:	6b1a      	ldr	r2, [r3, #48]	; 0x30
 8002d20:	f042 6280 	orr.w	r2, r2, #67108864	; 0x4000000
 8002d24:	631a      	str	r2, [r3, #48]	; 0x30
 8002d26:	6b1a      	ldr	r2, [r3, #48]	; 0x30
 8002d28:	f002 6280 	and.w	r2, r2, #67108864	; 0x4000000
 8002d2c:	9201      	str	r2, [sp, #4]
 8002d2e:	9a01      	ldr	r2, [sp, #4]
 8002d30:	6b1a      	ldr	r2, [r3, #48]	; 0x30
 8002d32:	f042 6200 	orr.w	r2, r2, #134217728	; 0x8000000
 8002d36:	631a      	str	r2, [r3, #48]	; 0x30
 8002d38:	6b1a      	ldr	r2, [r3, #48]	; 0x30
 8002d3a:	f002 6200 	and.w	r2, r2, #134217728	; 0x8000000
 8002d3e:	9202      	str	r2, [sp, #8]
 8002d40:	9a02      	ldr	r2, [sp, #8]
 8002d42:	6b1a      	ldr	r2, [r3, #48]	; 0x30
 8002d44:	f042 0204 	orr.w	r2, r2, #4
 8002d48:	631a      	str	r2, [r3, #48]	; 0x30
 8002d4a:	6b1a      	ldr	r2, [r3, #48]	; 0x30
 8002d4c:	f002 0204 	and.w	r2, r2, #4
 8002d50:	9203      	str	r2, [sp, #12]
 8002d52:	9a03      	ldr	r2, [sp, #12]
 8002d54:	6b1a      	ldr	r2, [r3, #48]	; 0x30
 8002d56:	f042 0201 	orr.w	r2, r2, #1
 8002d5a:	631a      	str	r2, [r3, #48]	; 0x30
 8002d5c:	6b1a      	ldr	r2, [r3, #48]	; 0x30
 8002d5e:	f002 0201 	and.w	r2, r2, #1
 8002d62:	9204      	str	r2, [sp, #16]
 8002d64:	9a04      	ldr	r2, [sp, #16]
 8002d66:	6b1a      	ldr	r2, [r3, #48]	; 0x30
 8002d68:	f042 0202 	orr.w	r2, r2, #2
 8002d6c:	631a      	str	r2, [r3, #48]	; 0x30
 8002d6e:	6b1a      	ldr	r2, [r3, #48]	; 0x30
 8002d70:	f002 0202 	and.w	r2, r2, #2
 8002d74:	9205      	str	r2, [sp, #20]
 8002d76:	9a05      	ldr	r2, [sp, #20]
 8002d78:	6b1a      	ldr	r2, [r3, #48]	; 0x30
 8002d7a:	f042 0240 	orr.w	r2, r2, #64	; 0x40
 8002d7e:	631a      	str	r2, [r3, #48]	; 0x30
 8002d80:	6b1b      	ldr	r3, [r3, #48]	; 0x30
 8002d82:	f003 0340 	and.w	r3, r3, #64	; 0x40
 8002d86:	9306      	str	r3, [sp, #24]
 8002d88:	9b06      	ldr	r3, [sp, #24]
 8002d8a:	2332      	movs	r3, #50	; 0x32
 8002d8c:	e9cd 540a 	strd	r5, r4, [sp, #40]	; 0x28
 8002d90:	e9cd 3607 	strd	r3, r6, [sp, #28]
 8002d94:	f7fe fbf6 	bl	8001584 <HAL_GPIO_Init>
 8002d98:	2386      	movs	r3, #134	; 0x86
 8002d9a:	a907      	add	r1, sp, #28
 8002d9c:	4811      	ldr	r0, [pc, #68]	; (8002de4 <HAL_ETH_MspInit+0x100>)
 8002d9e:	940b      	str	r4, [sp, #44]	; 0x2c
 8002da0:	e9cd 3607 	strd	r3, r6, [sp, #28]
 8002da4:	e9cd 7509 	strd	r7, r5, [sp, #36]	; 0x24
 8002da8:	f7fe fbec 	bl	8001584 <HAL_GPIO_Init>
 8002dac:	f44f 5300 	mov.w	r3, #8192	; 0x2000
 8002db0:	a907      	add	r1, sp, #28
 8002db2:	480d      	ldr	r0, [pc, #52]	; (8002de8 <HAL_ETH_MspInit+0x104>)
 8002db4:	940b      	str	r4, [sp, #44]	; 0x2c
 8002db6:	e9cd 3607 	strd	r3, r6, [sp, #28]
 8002dba:	e9cd 7509 	strd	r7, r5, [sp, #36]	; 0x24
 8002dbe:	f7fe fbe1 	bl	8001584 <HAL_GPIO_Init>
 8002dc2:	f44f 5320 	mov.w	r3, #10240	; 0x2800
 8002dc6:	a907      	add	r1, sp, #28
 8002dc8:	4808      	ldr	r0, [pc, #32]	; (8002dec <HAL_ETH_MspInit+0x108>)
 8002dca:	940b      	str	r4, [sp, #44]	; 0x2c
 8002dcc:	e9cd 3607 	strd	r3, r6, [sp, #28]
 8002dd0:	e9cd 7509 	strd	r7, r5, [sp, #36]	; 0x24
 8002dd4:	f7fe fbd6 	bl	8001584 <HAL_GPIO_Init>
 8002dd8:	b00d      	add	sp, #52	; 0x34
 8002dda:	bdf0      	pop	{r4, r5, r6, r7, pc}
 8002ddc:	40028000 	.word	0x40028000
 8002de0:	40020800 	.word	0x40020800
 8002de4:	40020000 	.word	0x40020000
 8002de8:	40020400 	.word	0x40020400
 8002dec:	40021800 	.word	0x40021800

08002df0 <ethernetif_input>:
 8002df0:	e92d 4ff7 	stmdb	sp!, {r0, r1, r2, r4, r5, r6, r7, r8, r9, sl, fp, lr}
 8002df4:	4e33      	ldr	r6, [pc, #204]	; (8002ec4 <ethernetif_input+0xd4>)
 8002df6:	4680      	mov	r8, r0
 8002df8:	4630      	mov	r0, r6
 8002dfa:	f7fe f911 	bl	8001020 <HAL_ETH_GetReceivedFrame>
 8002dfe:	4604      	mov	r4, r0
 8002e00:	2800      	cmp	r0, #0
 8002e02:	d15b      	bne.n	8002ebc <ethernetif_input+0xcc>
 8002e04:	8fb1      	ldrh	r1, [r6, #60]	; 0x3c
 8002e06:	b9f9      	cbnz	r1, 8002e48 <ethernetif_input+0x58>
 8002e08:	2500      	movs	r5, #0
 8002e0a:	6b33      	ldr	r3, [r6, #48]	; 0x30
 8002e0c:	2200      	movs	r2, #0
 8002e0e:	6bb0      	ldr	r0, [r6, #56]	; 0x38
 8002e10:	4282      	cmp	r2, r0
 8002e12:	d14c      	bne.n	8002eae <ethernetif_input+0xbe>
 8002e14:	6833      	ldr	r3, [r6, #0]
 8002e16:	2200      	movs	r2, #0
 8002e18:	f503 5380 	add.w	r3, r3, #4096	; 0x1000
 8002e1c:	63b2      	str	r2, [r6, #56]	; 0x38
 8002e1e:	6959      	ldr	r1, [r3, #20]
 8002e20:	0609      	lsls	r1, r1, #24
 8002e22:	d502      	bpl.n	8002e2a <ethernetif_input+0x3a>
 8002e24:	2180      	movs	r1, #128	; 0x80
 8002e26:	6159      	str	r1, [r3, #20]
 8002e28:	609a      	str	r2, [r3, #8]
 8002e2a:	2d00      	cmp	r5, #0
 8002e2c:	d046      	beq.n	8002ebc <ethernetif_input+0xcc>
 8002e2e:	f8d8 3010 	ldr.w	r3, [r8, #16]
 8002e32:	4641      	mov	r1, r8
 8002e34:	4628      	mov	r0, r5
 8002e36:	4798      	blx	r3
 8002e38:	2800      	cmp	r0, #0
 8002e3a:	d03f      	beq.n	8002ebc <ethernetif_input+0xcc>
 8002e3c:	4628      	mov	r0, r5
 8002e3e:	b003      	add	sp, #12
 8002e40:	e8bd 4ff0 	ldmia.w	sp!, {r4, r5, r6, r7, r8, r9, sl, fp, lr}
 8002e44:	f000 be0c 	b.w	8003a60 <pbuf_free>
 8002e48:	f44f 72c1 	mov.w	r2, #386	; 0x182
 8002e4c:	6c37      	ldr	r7, [r6, #64]	; 0x40
 8002e4e:	f000 fe6b 	bl	8003b28 <pbuf_alloc>
 8002e52:	4605      	mov	r5, r0
 8002e54:	2800      	cmp	r0, #0
 8002e56:	d0d7      	beq.n	8002e08 <ethernetif_input+0x18>
 8002e58:	46b9      	mov	r9, r7
 8002e5a:	f8d6 a030 	ldr.w	sl, [r6, #48]	; 0x30
 8002e5e:	4607      	mov	r7, r0
 8002e60:	f240 5bf4 	movw	fp, #1524	; 0x5f4
 8002e64:	f8b7 e00a 	ldrh.w	lr, [r7, #10]
 8002e68:	46a4      	mov	ip, r4
 8002e6a:	2300      	movs	r3, #0
 8002e6c:	eb0c 040e 	add.w	r4, ip, lr
 8002e70:	6878      	ldr	r0, [r7, #4]
 8002e72:	eb09 010c 	add.w	r1, r9, ip
 8002e76:	455c      	cmp	r4, fp
 8002e78:	4418      	add	r0, r3
 8002e7a:	d806      	bhi.n	8002e8a <ethernetif_input+0x9a>
 8002e7c:	4672      	mov	r2, lr
 8002e7e:	f006 ffdf 	bl	8009e40 <memcpy>
 8002e82:	683f      	ldr	r7, [r7, #0]
 8002e84:	2f00      	cmp	r7, #0
 8002e86:	d1ed      	bne.n	8002e64 <ethernetif_input+0x74>
 8002e88:	e7bf      	b.n	8002e0a <ethernetif_input+0x1a>
 8002e8a:	ebab 020c 	sub.w	r2, fp, ip
 8002e8e:	9301      	str	r3, [sp, #4]
 8002e90:	9200      	str	r2, [sp, #0]
 8002e92:	f006 ffd5 	bl	8009e40 <memcpy>
 8002e96:	f8da a00c 	ldr.w	sl, [sl, #12]
 8002e9a:	f2a4 5ef4 	subw	lr, r4, #1524	; 0x5f4
 8002e9e:	f04f 0c00 	mov.w	ip, #0
 8002ea2:	f8da 9008 	ldr.w	r9, [sl, #8]
 8002ea6:	e9dd 2300 	ldrd	r2, r3, [sp]
 8002eaa:	4413      	add	r3, r2
 8002eac:	e7de      	b.n	8002e6c <ethernetif_input+0x7c>
 8002eae:	6819      	ldr	r1, [r3, #0]
 8002eb0:	3201      	adds	r2, #1
 8002eb2:	f041 4100 	orr.w	r1, r1, #2147483648	; 0x80000000
 8002eb6:	6019      	str	r1, [r3, #0]
 8002eb8:	68db      	ldr	r3, [r3, #12]
 8002eba:	e7a9      	b.n	8002e10 <ethernetif_input+0x20>
 8002ebc:	b003      	add	sp, #12
 8002ebe:	e8bd 8ff0 	ldmia.w	sp!, {r4, r5, r6, r7, r8, r9, sl, fp, pc}
 8002ec2:	bf00      	nop
 8002ec4:	20000568 	.word	0x20000568

08002ec8 <ethernetif_init>:
 8002ec8:	b530      	push	{r4, r5, lr}
 8002eca:	4604      	mov	r4, r0
 8002ecc:	b085      	sub	sp, #20
 8002ece:	b930      	cbnz	r0, 8002ede <ethernetif_init+0x16>
 8002ed0:	4b3e      	ldr	r3, [pc, #248]	; (8002fcc <ethernetif_init+0x104>)
 8002ed2:	f240 2215 	movw	r2, #533	; 0x215
 8002ed6:	493e      	ldr	r1, [pc, #248]	; (8002fd0 <ethernetif_init+0x108>)
 8002ed8:	483e      	ldr	r0, [pc, #248]	; (8002fd4 <ethernetif_init+0x10c>)
 8002eda:	f006 ffc7 	bl	8009e6c <iprintf>
 8002ede:	4d3e      	ldr	r5, [pc, #248]	; (8002fd8 <ethernetif_init+0x110>)
 8002ee0:	2201      	movs	r2, #1
 8002ee2:	f247 4373 	movw	r3, #29811	; 0x7473
 8002ee6:	493d      	ldr	r1, [pc, #244]	; (8002fdc <ethernetif_init+0x114>)
 8002ee8:	822a      	strh	r2, [r5, #16]
 8002eea:	f44f 4080 	mov.w	r0, #16384	; 0x4000
 8002eee:	8663      	strh	r3, [r4, #50]	; 0x32
 8002ef0:	4b3b      	ldr	r3, [pc, #236]	; (8002fe0 <ethernetif_init+0x118>)
 8002ef2:	e9c5 1200 	strd	r1, r2, [r5]
 8002ef6:	2280      	movs	r2, #128	; 0x80
 8002ef8:	6163      	str	r3, [r4, #20]
 8002efa:	4b3a      	ldr	r3, [pc, #232]	; (8002fe4 <ethernetif_init+0x11c>)
 8002efc:	f44f 6100 	mov.w	r1, #2048	; 0x800
 8002f00:	f88d 2009 	strb.w	r2, [sp, #9]
 8002f04:	22e1      	movs	r2, #225	; 0xe1
 8002f06:	61a3      	str	r3, [r4, #24]
 8002f08:	2300      	movs	r3, #0
 8002f0a:	f88d 200a 	strb.w	r2, [sp, #10]
 8002f0e:	aa02      	add	r2, sp, #8
 8002f10:	9301      	str	r3, [sp, #4]
 8002f12:	f88d 3008 	strb.w	r3, [sp, #8]
 8002f16:	f88d 300b 	strb.w	r3, [sp, #11]
 8002f1a:	f88d 300c 	strb.w	r3, [sp, #12]
 8002f1e:	f88d 300d 	strb.w	r3, [sp, #13]
 8002f22:	61eb      	str	r3, [r5, #28]
 8002f24:	e9c5 2305 	strd	r2, r3, [r5, #20]
 8002f28:	f44f 0300 	mov.w	r3, #8388608	; 0x800000
 8002f2c:	e9c5 0102 	strd	r0, r1, [r5, #8]
 8002f30:	4628      	mov	r0, r5
 8002f32:	622b      	str	r3, [r5, #32]
 8002f34:	f7fe f926 	bl	8001184 <HAL_ETH_Init>
 8002f38:	b928      	cbnz	r0, 8002f46 <ethernetif_init+0x7e>
 8002f3a:	f894 3031 	ldrb.w	r3, [r4, #49]	; 0x31
 8002f3e:	f043 0304 	orr.w	r3, r3, #4
 8002f42:	f884 3031 	strb.w	r3, [r4, #49]	; 0x31
 8002f46:	2304      	movs	r3, #4
 8002f48:	4a27      	ldr	r2, [pc, #156]	; (8002fe8 <ethernetif_init+0x120>)
 8002f4a:	4928      	ldr	r1, [pc, #160]	; (8002fec <ethernetif_init+0x124>)
 8002f4c:	4822      	ldr	r0, [pc, #136]	; (8002fd8 <ethernetif_init+0x110>)
 8002f4e:	f7fd ff7f 	bl	8000e50 <HAL_ETH_DMATxDescListInit>
 8002f52:	4927      	ldr	r1, [pc, #156]	; (8002ff0 <ethernetif_init+0x128>)
 8002f54:	2304      	movs	r3, #4
 8002f56:	4a27      	ldr	r2, [pc, #156]	; (8002ff4 <ethernetif_init+0x12c>)
 8002f58:	481f      	ldr	r0, [pc, #124]	; (8002fd8 <ethernetif_init+0x110>)
 8002f5a:	f7fd ffb6 	bl	8000eca <HAL_ETH_DMARxDescListInit>
 8002f5e:	2306      	movs	r3, #6
 8002f60:	481d      	ldr	r0, [pc, #116]	; (8002fd8 <ethernetif_init+0x110>)
 8002f62:	f884 3030 	strb.w	r3, [r4, #48]	; 0x30
 8002f66:	696b      	ldr	r3, [r5, #20]
 8002f68:	781a      	ldrb	r2, [r3, #0]
 8002f6a:	f884 202a 	strb.w	r2, [r4, #42]	; 0x2a
 8002f6e:	785a      	ldrb	r2, [r3, #1]
 8002f70:	f884 202b 	strb.w	r2, [r4, #43]	; 0x2b
 8002f74:	789a      	ldrb	r2, [r3, #2]
 8002f76:	f884 202c 	strb.w	r2, [r4, #44]	; 0x2c
 8002f7a:	78da      	ldrb	r2, [r3, #3]
 8002f7c:	f884 202d 	strb.w	r2, [r4, #45]	; 0x2d
 8002f80:	791a      	ldrb	r2, [r3, #4]
 8002f82:	f884 202e 	strb.w	r2, [r4, #46]	; 0x2e
 8002f86:	795b      	ldrb	r3, [r3, #5]
 8002f88:	f884 302f 	strb.w	r3, [r4, #47]	; 0x2f
 8002f8c:	f240 53dc 	movw	r3, #1500	; 0x5dc
 8002f90:	8523      	strh	r3, [r4, #40]	; 0x28
 8002f92:	f894 3031 	ldrb.w	r3, [r4, #49]	; 0x31
 8002f96:	f043 030a 	orr.w	r3, r3, #10
 8002f9a:	f884 3031 	strb.w	r3, [r4, #49]	; 0x31
 8002f9e:	f7fe f9eb 	bl	8001378 <HAL_ETH_Start>
 8002fa2:	aa01      	add	r2, sp, #4
 8002fa4:	211d      	movs	r1, #29
 8002fa6:	480c      	ldr	r0, [pc, #48]	; (8002fd8 <ethernetif_init+0x110>)
 8002fa8:	f7fe f879 	bl	800109e <HAL_ETH_ReadPHYRegister>
 8002fac:	9a01      	ldr	r2, [sp, #4]
 8002fae:	211d      	movs	r1, #29
 8002fb0:	4809      	ldr	r0, [pc, #36]	; (8002fd8 <ethernetif_init+0x110>)
 8002fb2:	f042 020b 	orr.w	r2, r2, #11
 8002fb6:	9201      	str	r2, [sp, #4]
 8002fb8:	f7fe f8ac 	bl	8001114 <HAL_ETH_WritePHYRegister>
 8002fbc:	aa01      	add	r2, sp, #4
 8002fbe:	211d      	movs	r1, #29
 8002fc0:	4805      	ldr	r0, [pc, #20]	; (8002fd8 <ethernetif_init+0x110>)
 8002fc2:	f7fe f86c 	bl	800109e <HAL_ETH_ReadPHYRegister>
 8002fc6:	2000      	movs	r0, #0
 8002fc8:	b005      	add	sp, #20
 8002fca:	bd30      	pop	{r4, r5, pc}
 8002fcc:	0800af4c 	.word	0x0800af4c
 8002fd0:	0800c83e 	.word	0x0800c83e
 8002fd4:	0800af68 	.word	0x0800af68
 8002fd8:	20000568 	.word	0x20000568
 8002fdc:	40028000 	.word	0x40028000
 8002fe0:	08008e99 	.word	0x08008e99
 8002fe4:	08002c49 	.word	0x08002c49
 8002fe8:	200218d0 	.word	0x200218d0
 8002fec:	20020080 	.word	0x20020080
 8002ff0:	20020000 	.word	0x20020000
 8002ff4:	20020100 	.word	0x20020100

08002ff8 <sys_now>:
 8002ff8:	f7fd bde2 	b.w	8000bc0 <HAL_GetTick>

08002ffc <ethernetif_notify_conn_changed>:
 8002ffc:	4770      	bx	lr
	...

08003000 <ethernetif_update_config>:
 8003000:	b537      	push	{r0, r1, r2, r4, r5, lr}
 8003002:	f890 3031 	ldrb.w	r3, [r0, #49]	; 0x31
 8003006:	2100      	movs	r1, #0
 8003008:	4605      	mov	r5, r0
 800300a:	0758      	lsls	r0, r3, #29
 800300c:	9100      	str	r1, [sp, #0]
 800300e:	9101      	str	r1, [sp, #4]
 8003010:	d543      	bpl.n	800309a <ethernetif_update_config+0x9a>
 8003012:	4c24      	ldr	r4, [pc, #144]	; (80030a4 <ethernetif_update_config+0xa4>)
 8003014:	6863      	ldr	r3, [r4, #4]
 8003016:	2b00      	cmp	r3, #0
 8003018:	d034      	beq.n	8003084 <ethernetif_update_config+0x84>
 800301a:	f44f 5280 	mov.w	r2, #4096	; 0x1000
 800301e:	4620      	mov	r0, r4
 8003020:	f7fe f878 	bl	8001114 <HAL_ETH_WritePHYRegister>
 8003024:	f7fd fdcc 	bl	8000bc0 <HAL_GetTick>
 8003028:	9000      	str	r0, [sp, #0]
 800302a:	aa01      	add	r2, sp, #4
 800302c:	2101      	movs	r1, #1
 800302e:	4620      	mov	r0, r4
 8003030:	f7fe f835 	bl	800109e <HAL_ETH_ReadPHYRegister>
 8003034:	f7fd fdc4 	bl	8000bc0 <HAL_GetTick>
 8003038:	9b00      	ldr	r3, [sp, #0]
 800303a:	1ac0      	subs	r0, r0, r3
 800303c:	f5b0 7f7a 	cmp.w	r0, #1000	; 0x3e8
 8003040:	d820      	bhi.n	8003084 <ethernetif_update_config+0x84>
 8003042:	9b01      	ldr	r3, [sp, #4]
 8003044:	069a      	lsls	r2, r3, #26
 8003046:	d5f0      	bpl.n	800302a <ethernetif_update_config+0x2a>
 8003048:	aa01      	add	r2, sp, #4
 800304a:	2110      	movs	r1, #16
 800304c:	4815      	ldr	r0, [pc, #84]	; (80030a4 <ethernetif_update_config+0xa4>)
 800304e:	f7fe f826 	bl	800109e <HAL_ETH_ReadPHYRegister>
 8003052:	9b01      	ldr	r3, [sp, #4]
 8003054:	f013 0204 	ands.w	r2, r3, #4
 8003058:	bf18      	it	ne
 800305a:	f44f 6200 	movne.w	r2, #2048	; 0x800
 800305e:	079b      	lsls	r3, r3, #30
 8003060:	bf4c      	ite	mi
 8003062:	2300      	movmi	r3, #0
 8003064:	f44f 4380 	movpl.w	r3, #16384	; 0x4000
 8003068:	60e2      	str	r2, [r4, #12]
 800306a:	60a3      	str	r3, [r4, #8]
 800306c:	2100      	movs	r1, #0
 800306e:	480d      	ldr	r0, [pc, #52]	; (80030a4 <ethernetif_update_config+0xa4>)
 8003070:	f7fe f9fc 	bl	800146c <HAL_ETH_ConfigMAC>
 8003074:	480b      	ldr	r0, [pc, #44]	; (80030a4 <ethernetif_update_config+0xa4>)
 8003076:	f7fe f97f 	bl	8001378 <HAL_ETH_Start>
 800307a:	4628      	mov	r0, r5
 800307c:	f7ff ffbe 	bl	8002ffc <ethernetif_notify_conn_changed>
 8003080:	b003      	add	sp, #12
 8003082:	bd30      	pop	{r4, r5, pc}
 8003084:	e9d4 2302 	ldrd	r2, r3, [r4, #8]
 8003088:	2100      	movs	r1, #0
 800308a:	4806      	ldr	r0, [pc, #24]	; (80030a4 <ethernetif_update_config+0xa4>)
 800308c:	0852      	lsrs	r2, r2, #1
 800308e:	ea42 02d3 	orr.w	r2, r2, r3, lsr #3
 8003092:	b292      	uxth	r2, r2
 8003094:	f7fe f83e 	bl	8001114 <HAL_ETH_WritePHYRegister>
 8003098:	e7e8      	b.n	800306c <ethernetif_update_config+0x6c>
 800309a:	4802      	ldr	r0, [pc, #8]	; (80030a4 <ethernetif_update_config+0xa4>)
 800309c:	f7fe f9a9 	bl	80013f2 <HAL_ETH_Stop>
 80030a0:	e7eb      	b.n	800307a <ethernetif_update_config+0x7a>
 80030a2:	bf00      	nop
 80030a4:	20000568 	.word	0x20000568

080030a8 <lwip_htons>:
 80030a8:	ba40      	rev16	r0, r0
 80030aa:	b280      	uxth	r0, r0
 80030ac:	4770      	bx	lr

080030ae <lwip_htonl>:
 80030ae:	ba00      	rev	r0, r0
 80030b0:	4770      	bx	lr

080030b2 <lwip_init>:
 80030b2:	b508      	push	{r3, lr}
 80030b4:	f000 f80c 	bl	80030d0 <mem_init>
 80030b8:	f000 fa72 	bl	80035a0 <memp_init>
 80030bc:	f000 fb00 	bl	80036c0 <netif_init>
 80030c0:	f004 f884 	bl	80071cc <udp_init>
 80030c4:	f000 ff7c 	bl	8003fc0 <tcp_init>
 80030c8:	e8bd 4008 	ldmia.w	sp!, {r3, lr}
 80030cc:	f004 b840 	b.w	8007150 <sys_timeouts_init>

080030d0 <mem_init>:
 80030d0:	4b0c      	ldr	r3, [pc, #48]	; (8003104 <mem_init+0x34>)
 80030d2:	4a0d      	ldr	r2, [pc, #52]	; (8003108 <mem_init+0x38>)
 80030d4:	f023 0303 	bic.w	r3, r3, #3
 80030d8:	6013      	str	r3, [r2, #0]
 80030da:	f44f 5220 	mov.w	r2, #10240	; 0x2800
 80030de:	f503 5120 	add.w	r1, r3, #10240	; 0x2800
 80030e2:	601a      	str	r2, [r3, #0]
 80030e4:	2200      	movs	r2, #0
 80030e6:	711a      	strb	r2, [r3, #4]
 80030e8:	4a08      	ldr	r2, [pc, #32]	; (800310c <mem_init+0x3c>)
 80030ea:	6011      	str	r1, [r2, #0]
 80030ec:	f503 5200 	add.w	r2, r3, #8192	; 0x2000
 80030f0:	f04f 2128 	mov.w	r1, #671098880	; 0x28002800
 80030f4:	f8c2 1800 	str.w	r1, [r2, #2048]	; 0x800
 80030f8:	2101      	movs	r1, #1
 80030fa:	f882 1804 	strb.w	r1, [r2, #2052]	; 0x804
 80030fe:	4a04      	ldr	r2, [pc, #16]	; (8003110 <mem_init+0x40>)
 8003100:	6013      	str	r3, [r2, #0]
 8003102:	4770      	bx	lr
 8003104:	200005d7 	.word	0x200005d7
 8003108:	200005cc 	.word	0x200005cc
 800310c:	200005d0 	.word	0x200005d0
 8003110:	200005c8 	.word	0x200005c8

08003114 <mem_free>:
 8003114:	e92d 41f0 	stmdb	sp!, {r4, r5, r6, r7, r8, lr}
 8003118:	4604      	mov	r4, r0
 800311a:	2800      	cmp	r0, #0
 800311c:	f000 8098 	beq.w	8003250 <mem_free+0x13c>
 8003120:	0783      	lsls	r3, r0, #30
 8003122:	d008      	beq.n	8003136 <mem_free+0x22>
 8003124:	4b4b      	ldr	r3, [pc, #300]	; (8003254 <mem_free+0x140>)
 8003126:	f240 2273 	movw	r2, #627	; 0x273
 800312a:	494b      	ldr	r1, [pc, #300]	; (8003258 <mem_free+0x144>)
 800312c:	484b      	ldr	r0, [pc, #300]	; (800325c <mem_free+0x148>)
 800312e:	e8bd 41f0 	ldmia.w	sp!, {r4, r5, r6, r7, r8, lr}
 8003132:	f006 be9b 	b.w	8009e6c <iprintf>
 8003136:	f8df 8148 	ldr.w	r8, [pc, #328]	; 8003280 <mem_free+0x16c>
 800313a:	f1a0 0508 	sub.w	r5, r0, #8
 800313e:	f8d8 3000 	ldr.w	r3, [r8]
 8003142:	42ab      	cmp	r3, r5
 8003144:	d805      	bhi.n	8003152 <mem_free+0x3e>
 8003146:	4f46      	ldr	r7, [pc, #280]	; (8003260 <mem_free+0x14c>)
 8003148:	f100 020c 	add.w	r2, r0, #12
 800314c:	6839      	ldr	r1, [r7, #0]
 800314e:	4291      	cmp	r1, r2
 8003150:	d204      	bcs.n	800315c <mem_free+0x48>
 8003152:	4b40      	ldr	r3, [pc, #256]	; (8003254 <mem_free+0x140>)
 8003154:	f240 227f 	movw	r2, #639	; 0x27f
 8003158:	4942      	ldr	r1, [pc, #264]	; (8003264 <mem_free+0x150>)
 800315a:	e7e7      	b.n	800312c <mem_free+0x18>
 800315c:	f810 2c04 	ldrb.w	r2, [r0, #-4]
 8003160:	b922      	cbnz	r2, 800316c <mem_free+0x58>
 8003162:	4b3c      	ldr	r3, [pc, #240]	; (8003254 <mem_free+0x140>)
 8003164:	f44f 7223 	mov.w	r2, #652	; 0x28c
 8003168:	493f      	ldr	r1, [pc, #252]	; (8003268 <mem_free+0x154>)
 800316a:	e7df      	b.n	800312c <mem_free+0x18>
 800316c:	f830 6c08 	ldrh.w	r6, [r0, #-8]
 8003170:	f5b6 5f20 	cmp.w	r6, #10240	; 0x2800
 8003174:	d811      	bhi.n	800319a <mem_free+0x86>
 8003176:	f830 0c06 	ldrh.w	r0, [r0, #-6]
 800317a:	f5b0 5f20 	cmp.w	r0, #10240	; 0x2800
 800317e:	d80c      	bhi.n	800319a <mem_free+0x86>
 8003180:	1aea      	subs	r2, r5, r3
 8003182:	b292      	uxth	r2, r2
 8003184:	4282      	cmp	r2, r0
 8003186:	d002      	beq.n	800318e <mem_free+0x7a>
 8003188:	5a18      	ldrh	r0, [r3, r0]
 800318a:	4290      	cmp	r0, r2
 800318c:	d105      	bne.n	800319a <mem_free+0x86>
 800318e:	4433      	add	r3, r6
 8003190:	4299      	cmp	r1, r3
 8003192:	d007      	beq.n	80031a4 <mem_free+0x90>
 8003194:	885b      	ldrh	r3, [r3, #2]
 8003196:	4293      	cmp	r3, r2
 8003198:	d004      	beq.n	80031a4 <mem_free+0x90>
 800319a:	4b2e      	ldr	r3, [pc, #184]	; (8003254 <mem_free+0x140>)
 800319c:	f240 2295 	movw	r2, #661	; 0x295
 80031a0:	4932      	ldr	r1, [pc, #200]	; (800326c <mem_free+0x158>)
 80031a2:	e7c3      	b.n	800312c <mem_free+0x18>
 80031a4:	2300      	movs	r3, #0
 80031a6:	4e32      	ldr	r6, [pc, #200]	; (8003270 <mem_free+0x15c>)
 80031a8:	f804 3c04 	strb.w	r3, [r4, #-4]
 80031ac:	6833      	ldr	r3, [r6, #0]
 80031ae:	42ab      	cmp	r3, r5
 80031b0:	bf88      	it	hi
 80031b2:	6035      	strhi	r5, [r6, #0]
 80031b4:	42a9      	cmp	r1, r5
 80031b6:	d81c      	bhi.n	80031f2 <mem_free+0xde>
 80031b8:	4b26      	ldr	r3, [pc, #152]	; (8003254 <mem_free+0x140>)
 80031ba:	f44f 72f0 	mov.w	r2, #480	; 0x1e0
 80031be:	492d      	ldr	r1, [pc, #180]	; (8003274 <mem_free+0x160>)
 80031c0:	4826      	ldr	r0, [pc, #152]	; (800325c <mem_free+0x148>)
 80031c2:	f006 fe53 	bl	8009e6c <iprintf>
 80031c6:	f814 3c04 	ldrb.w	r3, [r4, #-4]
 80031ca:	b133      	cbz	r3, 80031da <mem_free+0xc6>
 80031cc:	4b21      	ldr	r3, [pc, #132]	; (8003254 <mem_free+0x140>)
 80031ce:	f240 12e1 	movw	r2, #481	; 0x1e1
 80031d2:	4929      	ldr	r1, [pc, #164]	; (8003278 <mem_free+0x164>)
 80031d4:	4821      	ldr	r0, [pc, #132]	; (800325c <mem_free+0x148>)
 80031d6:	f006 fe49 	bl	8009e6c <iprintf>
 80031da:	f834 3c08 	ldrh.w	r3, [r4, #-8]
 80031de:	f5b3 5f20 	cmp.w	r3, #10240	; 0x2800
 80031e2:	d906      	bls.n	80031f2 <mem_free+0xde>
 80031e4:	4b1b      	ldr	r3, [pc, #108]	; (8003254 <mem_free+0x140>)
 80031e6:	f44f 72f2 	mov.w	r2, #484	; 0x1e4
 80031ea:	4924      	ldr	r1, [pc, #144]	; (800327c <mem_free+0x168>)
 80031ec:	481b      	ldr	r0, [pc, #108]	; (800325c <mem_free+0x148>)
 80031ee:	f006 fe3d 	bl	8009e6c <iprintf>
 80031f2:	f8d8 3000 	ldr.w	r3, [r8]
 80031f6:	f834 1c08 	ldrh.w	r1, [r4, #-8]
 80031fa:	185a      	adds	r2, r3, r1
 80031fc:	4295      	cmp	r5, r2
 80031fe:	d012      	beq.n	8003226 <mem_free+0x112>
 8003200:	7910      	ldrb	r0, [r2, #4]
 8003202:	b980      	cbnz	r0, 8003226 <mem_free+0x112>
 8003204:	6838      	ldr	r0, [r7, #0]
 8003206:	4282      	cmp	r2, r0
 8003208:	d00d      	beq.n	8003226 <mem_free+0x112>
 800320a:	6830      	ldr	r0, [r6, #0]
 800320c:	4282      	cmp	r2, r0
 800320e:	5a5a      	ldrh	r2, [r3, r1]
 8003210:	f824 2c08 	strh.w	r2, [r4, #-8]
 8003214:	5a5a      	ldrh	r2, [r3, r1]
 8003216:	bf08      	it	eq
 8003218:	6035      	streq	r5, [r6, #0]
 800321a:	f5b2 5f20 	cmp.w	r2, #10240	; 0x2800
 800321e:	bf1e      	ittt	ne
 8003220:	18d2      	addne	r2, r2, r3
 8003222:	1ae9      	subne	r1, r5, r3
 8003224:	8051      	strhne	r1, [r2, #2]
 8003226:	f834 2c06 	ldrh.w	r2, [r4, #-6]
 800322a:	1899      	adds	r1, r3, r2
 800322c:	428d      	cmp	r5, r1
 800322e:	d00f      	beq.n	8003250 <mem_free+0x13c>
 8003230:	7908      	ldrb	r0, [r1, #4]
 8003232:	b968      	cbnz	r0, 8003250 <mem_free+0x13c>
 8003234:	6830      	ldr	r0, [r6, #0]
 8003236:	4285      	cmp	r5, r0
 8003238:	bf08      	it	eq
 800323a:	6031      	streq	r1, [r6, #0]
 800323c:	f834 1c08 	ldrh.w	r1, [r4, #-8]
 8003240:	5299      	strh	r1, [r3, r2]
 8003242:	f834 1c08 	ldrh.w	r1, [r4, #-8]
 8003246:	f5b1 5f20 	cmp.w	r1, #10240	; 0x2800
 800324a:	bf1c      	itt	ne
 800324c:	185b      	addne	r3, r3, r1
 800324e:	805a      	strhne	r2, [r3, #2]
 8003250:	e8bd 81f0 	ldmia.w	sp!, {r4, r5, r6, r7, r8, pc}
 8003254:	0800af90 	.word	0x0800af90
 8003258:	0800afbf 	.word	0x0800afbf
 800325c:	0800af68 	.word	0x0800af68
 8003260:	200005d0 	.word	0x200005d0
 8003264:	0800afe0 	.word	0x0800afe0
 8003268:	0800aff9 	.word	0x0800aff9
 800326c:	0800b01f 	.word	0x0800b01f
 8003270:	200005c8 	.word	0x200005c8
 8003274:	0800b051 	.word	0x0800b051
 8003278:	0800b06b 	.word	0x0800b06b
 800327c:	0800b086 	.word	0x0800b086
 8003280:	200005cc 	.word	0x200005cc

08003284 <mem_trim>:
 8003284:	e92d 47f0 	stmdb	sp!, {r4, r5, r6, r7, r8, r9, sl, lr}
 8003288:	1ccc      	adds	r4, r1, #3
 800328a:	4605      	mov	r5, r0
 800328c:	f024 0403 	bic.w	r4, r4, #3
 8003290:	b2a4      	uxth	r4, r4
 8003292:	2c0b      	cmp	r4, #11
 8003294:	d904      	bls.n	80032a0 <mem_trim+0x1c>
 8003296:	f5b4 5f20 	cmp.w	r4, #10240	; 0x2800
 800329a:	d902      	bls.n	80032a2 <mem_trim+0x1e>
 800329c:	2500      	movs	r5, #0
 800329e:	e059      	b.n	8003354 <mem_trim+0xd0>
 80032a0:	240c      	movs	r4, #12
 80032a2:	42a1      	cmp	r1, r4
 80032a4:	d8fa      	bhi.n	800329c <mem_trim+0x18>
 80032a6:	4f41      	ldr	r7, [pc, #260]	; (80033ac <mem_trim+0x128>)
 80032a8:	683b      	ldr	r3, [r7, #0]
 80032aa:	42ab      	cmp	r3, r5
 80032ac:	d803      	bhi.n	80032b6 <mem_trim+0x32>
 80032ae:	4b40      	ldr	r3, [pc, #256]	; (80033b0 <mem_trim+0x12c>)
 80032b0:	681b      	ldr	r3, [r3, #0]
 80032b2:	42ab      	cmp	r3, r5
 80032b4:	d806      	bhi.n	80032c4 <mem_trim+0x40>
 80032b6:	4b3f      	ldr	r3, [pc, #252]	; (80033b4 <mem_trim+0x130>)
 80032b8:	f240 22d1 	movw	r2, #721	; 0x2d1
 80032bc:	493e      	ldr	r1, [pc, #248]	; (80033b8 <mem_trim+0x134>)
 80032be:	483f      	ldr	r0, [pc, #252]	; (80033bc <mem_trim+0x138>)
 80032c0:	f006 fdd4 	bl	8009e6c <iprintf>
 80032c4:	f8d7 a000 	ldr.w	sl, [r7]
 80032c8:	45aa      	cmp	sl, r5
 80032ca:	d843      	bhi.n	8003354 <mem_trim+0xd0>
 80032cc:	4b38      	ldr	r3, [pc, #224]	; (80033b0 <mem_trim+0x12c>)
 80032ce:	681b      	ldr	r3, [r3, #0]
 80032d0:	42ab      	cmp	r3, r5
 80032d2:	d93f      	bls.n	8003354 <mem_trim+0xd0>
 80032d4:	f1a5 0608 	sub.w	r6, r5, #8
 80032d8:	f835 9c08 	ldrh.w	r9, [r5, #-8]
 80032dc:	eba6 060a 	sub.w	r6, r6, sl
 80032e0:	f1a9 0308 	sub.w	r3, r9, #8
 80032e4:	b2b6      	uxth	r6, r6
 80032e6:	1b9b      	subs	r3, r3, r6
 80032e8:	b29b      	uxth	r3, r3
 80032ea:	42a3      	cmp	r3, r4
 80032ec:	d207      	bcs.n	80032fe <mem_trim+0x7a>
 80032ee:	4b31      	ldr	r3, [pc, #196]	; (80033b4 <mem_trim+0x130>)
 80032f0:	f44f 7239 	mov.w	r2, #740	; 0x2e4
 80032f4:	4932      	ldr	r1, [pc, #200]	; (80033c0 <mem_trim+0x13c>)
 80032f6:	4831      	ldr	r0, [pc, #196]	; (80033bc <mem_trim+0x138>)
 80032f8:	f006 fdb8 	bl	8009e6c <iprintf>
 80032fc:	e7ce      	b.n	800329c <mem_trim+0x18>
 80032fe:	d029      	beq.n	8003354 <mem_trim+0xd0>
 8003300:	eb0a 0809 	add.w	r8, sl, r9
 8003304:	f898 2004 	ldrb.w	r2, [r8, #4]
 8003308:	bb3a      	cbnz	r2, 800335a <mem_trim+0xd6>
 800330a:	f5b9 5f20 	cmp.w	r9, #10240	; 0x2800
 800330e:	d106      	bne.n	800331e <mem_trim+0x9a>
 8003310:	4b28      	ldr	r3, [pc, #160]	; (80033b4 <mem_trim+0x130>)
 8003312:	f240 22f5 	movw	r2, #757	; 0x2f5
 8003316:	492b      	ldr	r1, [pc, #172]	; (80033c4 <mem_trim+0x140>)
 8003318:	4828      	ldr	r0, [pc, #160]	; (80033bc <mem_trim+0x138>)
 800331a:	f006 fda7 	bl	8009e6c <iprintf>
 800331e:	492a      	ldr	r1, [pc, #168]	; (80033c8 <mem_trim+0x144>)
 8003320:	f106 0308 	add.w	r3, r6, #8
 8003324:	f83a c009 	ldrh.w	ip, [sl, r9]
 8003328:	441c      	add	r4, r3
 800332a:	6808      	ldr	r0, [r1, #0]
 800332c:	683b      	ldr	r3, [r7, #0]
 800332e:	b2a2      	uxth	r2, r4
 8003330:	4540      	cmp	r0, r8
 8003332:	fa13 f484 	uxtah	r4, r3, r4
 8003336:	bf08      	it	eq
 8003338:	600c      	streq	r4, [r1, #0]
 800333a:	2100      	movs	r1, #0
 800333c:	7121      	strb	r1, [r4, #4]
 800333e:	f823 c002 	strh.w	ip, [r3, r2]
 8003342:	8066      	strh	r6, [r4, #2]
 8003344:	f825 2c08 	strh.w	r2, [r5, #-8]
 8003348:	5a99      	ldrh	r1, [r3, r2]
 800334a:	f5b1 5f20 	cmp.w	r1, #10240	; 0x2800
 800334e:	d001      	beq.n	8003354 <mem_trim+0xd0>
 8003350:	440b      	add	r3, r1
 8003352:	805a      	strh	r2, [r3, #2]
 8003354:	4628      	mov	r0, r5
 8003356:	e8bd 87f0 	ldmia.w	sp!, {r4, r5, r6, r7, r8, r9, sl, pc}
 800335a:	f104 0214 	add.w	r2, r4, #20
 800335e:	b292      	uxth	r2, r2
 8003360:	429a      	cmp	r2, r3
 8003362:	d8f7      	bhi.n	8003354 <mem_trim+0xd0>
 8003364:	f106 0308 	add.w	r3, r6, #8
 8003368:	f5b9 5f20 	cmp.w	r9, #10240	; 0x2800
 800336c:	441c      	add	r4, r3
 800336e:	b2a4      	uxth	r4, r4
 8003370:	d106      	bne.n	8003380 <mem_trim+0xfc>
 8003372:	4b10      	ldr	r3, [pc, #64]	; (80033b4 <mem_trim+0x130>)
 8003374:	f240 3216 	movw	r2, #790	; 0x316
 8003378:	4912      	ldr	r1, [pc, #72]	; (80033c4 <mem_trim+0x140>)
 800337a:	4810      	ldr	r0, [pc, #64]	; (80033bc <mem_trim+0x138>)
 800337c:	f006 fd76 	bl	8009e6c <iprintf>
 8003380:	683b      	ldr	r3, [r7, #0]
 8003382:	4911      	ldr	r1, [pc, #68]	; (80033c8 <mem_trim+0x144>)
 8003384:	191a      	adds	r2, r3, r4
 8003386:	6808      	ldr	r0, [r1, #0]
 8003388:	4290      	cmp	r0, r2
 800338a:	bf88      	it	hi
 800338c:	600a      	strhi	r2, [r1, #0]
 800338e:	2100      	movs	r1, #0
 8003390:	7111      	strb	r1, [r2, #4]
 8003392:	f835 1c08 	ldrh.w	r1, [r5, #-8]
 8003396:	5319      	strh	r1, [r3, r4]
 8003398:	8056      	strh	r6, [r2, #2]
 800339a:	f825 4c08 	strh.w	r4, [r5, #-8]
 800339e:	5b1a      	ldrh	r2, [r3, r4]
 80033a0:	f5b2 5f20 	cmp.w	r2, #10240	; 0x2800
 80033a4:	d0d6      	beq.n	8003354 <mem_trim+0xd0>
 80033a6:	4413      	add	r3, r2
 80033a8:	805c      	strh	r4, [r3, #2]
 80033aa:	e7d3      	b.n	8003354 <mem_trim+0xd0>
 80033ac:	200005cc 	.word	0x200005cc
 80033b0:	200005d0 	.word	0x200005d0
 80033b4:	0800af90 	.word	0x0800af90
 80033b8:	0800b0b0 	.word	0x0800b0b0
 80033bc:	0800af68 	.word	0x0800af68
 80033c0:	0800b0c7 	.word	0x0800b0c7
 80033c4:	0800b0e7 	.word	0x0800b0e7
 80033c8:	200005c8 	.word	0x200005c8

080033cc <mem_malloc>:
 80033cc:	e92d 43f8 	stmdb	sp!, {r3, r4, r5, r6, r7, r8, r9, lr}
 80033d0:	2800      	cmp	r0, #0
 80033d2:	f000 8084 	beq.w	80034de <mem_malloc+0x112>
 80033d6:	1cc3      	adds	r3, r0, #3
 80033d8:	f023 0303 	bic.w	r3, r3, #3
 80033dc:	b29b      	uxth	r3, r3
 80033de:	2b0b      	cmp	r3, #11
 80033e0:	d904      	bls.n	80033ec <mem_malloc+0x20>
 80033e2:	f5b3 5f20 	cmp.w	r3, #10240	; 0x2800
 80033e6:	d902      	bls.n	80033ee <mem_malloc+0x22>
 80033e8:	2000      	movs	r0, #0
 80033ea:	e078      	b.n	80034de <mem_malloc+0x112>
 80033ec:	230c      	movs	r3, #12
 80033ee:	4298      	cmp	r0, r3
 80033f0:	d8fa      	bhi.n	80033e8 <mem_malloc+0x1c>
 80033f2:	f8df 8124 	ldr.w	r8, [pc, #292]	; 8003518 <mem_malloc+0x14c>
 80033f6:	f5c3 5620 	rsb	r6, r3, #10240	; 0x2800
 80033fa:	4f3e      	ldr	r7, [pc, #248]	; (80034f4 <mem_malloc+0x128>)
 80033fc:	f06f 0c07 	mvn.w	ip, #7
 8003400:	f8d8 1000 	ldr.w	r1, [r8]
 8003404:	683d      	ldr	r5, [r7, #0]
 8003406:	1a6d      	subs	r5, r5, r1
 8003408:	b2ad      	uxth	r5, r5
 800340a:	42b5      	cmp	r5, r6
 800340c:	d2ec      	bcs.n	80033e8 <mem_malloc+0x1c>
 800340e:	194c      	adds	r4, r1, r5
 8003410:	5b48      	ldrh	r0, [r1, r5]
 8003412:	7922      	ldrb	r2, [r4, #4]
 8003414:	2a00      	cmp	r2, #0
 8003416:	d16a      	bne.n	80034ee <mem_malloc+0x122>
 8003418:	ebac 0205 	sub.w	r2, ip, r5
 800341c:	4402      	add	r2, r0
 800341e:	429a      	cmp	r2, r3
 8003420:	d365      	bcc.n	80034ee <mem_malloc+0x122>
 8003422:	f103 0608 	add.w	r6, r3, #8
 8003426:	3314      	adds	r3, #20
 8003428:	b29b      	uxth	r3, r3
 800342a:	b2b6      	uxth	r6, r6
 800342c:	429a      	cmp	r2, r3
 800342e:	d358      	bcc.n	80034e2 <mem_malloc+0x116>
 8003430:	eb06 0905 	add.w	r9, r6, r5
 8003434:	fa1f f989 	uxth.w	r9, r9
 8003438:	f5b9 5f20 	cmp.w	r9, #10240	; 0x2800
 800343c:	d106      	bne.n	800344c <mem_malloc+0x80>
 800343e:	4b2e      	ldr	r3, [pc, #184]	; (80034f8 <mem_malloc+0x12c>)
 8003440:	f240 3287 	movw	r2, #903	; 0x387
 8003444:	492d      	ldr	r1, [pc, #180]	; (80034fc <mem_malloc+0x130>)
 8003446:	482e      	ldr	r0, [pc, #184]	; (8003500 <mem_malloc+0x134>)
 8003448:	f006 fd10 	bl	8009e6c <iprintf>
 800344c:	f8d8 3000 	ldr.w	r3, [r8]
 8003450:	2100      	movs	r1, #0
 8003452:	eb03 0209 	add.w	r2, r3, r9
 8003456:	7111      	strb	r1, [r2, #4]
 8003458:	8821      	ldrh	r1, [r4, #0]
 800345a:	f823 1009 	strh.w	r1, [r3, r9]
 800345e:	8055      	strh	r5, [r2, #2]
 8003460:	2201      	movs	r2, #1
 8003462:	f8a4 9000 	strh.w	r9, [r4]
 8003466:	7122      	strb	r2, [r4, #4]
 8003468:	f833 2009 	ldrh.w	r2, [r3, r9]
 800346c:	f5b2 5f20 	cmp.w	r2, #10240	; 0x2800
 8003470:	d002      	beq.n	8003478 <mem_malloc+0xac>
 8003472:	4413      	add	r3, r2
 8003474:	f8a3 9002 	strh.w	r9, [r3, #2]
 8003478:	683b      	ldr	r3, [r7, #0]
 800347a:	4d22      	ldr	r5, [pc, #136]	; (8003504 <mem_malloc+0x138>)
 800347c:	42a3      	cmp	r3, r4
 800347e:	d111      	bne.n	80034a4 <mem_malloc+0xd8>
 8003480:	6829      	ldr	r1, [r5, #0]
 8003482:	f8d8 0000 	ldr.w	r0, [r8]
 8003486:	791a      	ldrb	r2, [r3, #4]
 8003488:	b10a      	cbz	r2, 800348e <mem_malloc+0xc2>
 800348a:	428b      	cmp	r3, r1
 800348c:	d12c      	bne.n	80034e8 <mem_malloc+0x11c>
 800348e:	428b      	cmp	r3, r1
 8003490:	603b      	str	r3, [r7, #0]
 8003492:	d007      	beq.n	80034a4 <mem_malloc+0xd8>
 8003494:	b132      	cbz	r2, 80034a4 <mem_malloc+0xd8>
 8003496:	4b18      	ldr	r3, [pc, #96]	; (80034f8 <mem_malloc+0x12c>)
 8003498:	f240 32b5 	movw	r2, #949	; 0x3b5
 800349c:	491a      	ldr	r1, [pc, #104]	; (8003508 <mem_malloc+0x13c>)
 800349e:	4818      	ldr	r0, [pc, #96]	; (8003500 <mem_malloc+0x134>)
 80034a0:	f006 fce4 	bl	8009e6c <iprintf>
 80034a4:	4426      	add	r6, r4
 80034a6:	682b      	ldr	r3, [r5, #0]
 80034a8:	42b3      	cmp	r3, r6
 80034aa:	d206      	bcs.n	80034ba <mem_malloc+0xee>
 80034ac:	4b12      	ldr	r3, [pc, #72]	; (80034f8 <mem_malloc+0x12c>)
 80034ae:	f240 32b9 	movw	r2, #953	; 0x3b9
 80034b2:	4916      	ldr	r1, [pc, #88]	; (800350c <mem_malloc+0x140>)
 80034b4:	4812      	ldr	r0, [pc, #72]	; (8003500 <mem_malloc+0x134>)
 80034b6:	f006 fcd9 	bl	8009e6c <iprintf>
 80034ba:	07a3      	lsls	r3, r4, #30
 80034bc:	d00d      	beq.n	80034da <mem_malloc+0x10e>
 80034be:	4b0e      	ldr	r3, [pc, #56]	; (80034f8 <mem_malloc+0x12c>)
 80034c0:	f240 32bb 	movw	r2, #955	; 0x3bb
 80034c4:	4912      	ldr	r1, [pc, #72]	; (8003510 <mem_malloc+0x144>)
 80034c6:	480e      	ldr	r0, [pc, #56]	; (8003500 <mem_malloc+0x134>)
 80034c8:	f006 fcd0 	bl	8009e6c <iprintf>
 80034cc:	4b0a      	ldr	r3, [pc, #40]	; (80034f8 <mem_malloc+0x12c>)
 80034ce:	f240 32bd 	movw	r2, #957	; 0x3bd
 80034d2:	4910      	ldr	r1, [pc, #64]	; (8003514 <mem_malloc+0x148>)
 80034d4:	480a      	ldr	r0, [pc, #40]	; (8003500 <mem_malloc+0x134>)
 80034d6:	f006 fcc9 	bl	8009e6c <iprintf>
 80034da:	f104 0008 	add.w	r0, r4, #8
 80034de:	e8bd 83f8 	ldmia.w	sp!, {r3, r4, r5, r6, r7, r8, r9, pc}
 80034e2:	2301      	movs	r3, #1
 80034e4:	7123      	strb	r3, [r4, #4]
 80034e6:	e7c7      	b.n	8003478 <mem_malloc+0xac>
 80034e8:	881b      	ldrh	r3, [r3, #0]
 80034ea:	4403      	add	r3, r0
 80034ec:	e7cb      	b.n	8003486 <mem_malloc+0xba>
 80034ee:	4605      	mov	r5, r0
 80034f0:	e78b      	b.n	800340a <mem_malloc+0x3e>
 80034f2:	bf00      	nop
 80034f4:	200005c8 	.word	0x200005c8
 80034f8:	0800af90 	.word	0x0800af90
 80034fc:	0800b0e7 	.word	0x0800b0e7
 8003500:	0800af68 	.word	0x0800af68
 8003504:	200005d0 	.word	0x200005d0
 8003508:	0800b0f8 	.word	0x0800b0f8
 800350c:	0800b111 	.word	0x0800b111
 8003510:	0800b141 	.word	0x0800b141
 8003514:	0800b170 	.word	0x0800b170
 8003518:	200005cc 	.word	0x200005cc

0800351c <do_memp_free_pool>:
 800351c:	b538      	push	{r3, r4, r5, lr}
 800351e:	078b      	lsls	r3, r1, #30
 8003520:	4605      	mov	r5, r0
 8003522:	460c      	mov	r4, r1
 8003524:	d006      	beq.n	8003534 <do_memp_free_pool+0x18>
 8003526:	4b06      	ldr	r3, [pc, #24]	; (8003540 <do_memp_free_pool+0x24>)
 8003528:	f44f 72b6 	mov.w	r2, #364	; 0x16c
 800352c:	4905      	ldr	r1, [pc, #20]	; (8003544 <do_memp_free_pool+0x28>)
 800352e:	4806      	ldr	r0, [pc, #24]	; (8003548 <do_memp_free_pool+0x2c>)
 8003530:	f006 fc9c 	bl	8009e6c <iprintf>
 8003534:	68ab      	ldr	r3, [r5, #8]
 8003536:	681a      	ldr	r2, [r3, #0]
 8003538:	6022      	str	r2, [r4, #0]
 800353a:	601c      	str	r4, [r3, #0]
 800353c:	bd38      	pop	{r3, r4, r5, pc}
 800353e:	bf00      	nop
 8003540:	0800b193 	.word	0x0800b193
 8003544:	0800b1c3 	.word	0x0800b1c3
 8003548:	0800af68 	.word	0x0800af68

0800354c <do_memp_malloc_pool.isra.0>:
 800354c:	b510      	push	{r4, lr}
 800354e:	6804      	ldr	r4, [r0, #0]
 8003550:	b154      	cbz	r4, 8003568 <do_memp_malloc_pool.isra.0+0x1c>
 8003552:	6823      	ldr	r3, [r4, #0]
 8003554:	6003      	str	r3, [r0, #0]
 8003556:	07a3      	lsls	r3, r4, #30
 8003558:	d006      	beq.n	8003568 <do_memp_malloc_pool.isra.0+0x1c>
 800355a:	4b04      	ldr	r3, [pc, #16]	; (800356c <do_memp_malloc_pool.isra.0+0x20>)
 800355c:	f44f 728c 	mov.w	r2, #280	; 0x118
 8003560:	4903      	ldr	r1, [pc, #12]	; (8003570 <do_memp_malloc_pool.isra.0+0x24>)
 8003562:	4804      	ldr	r0, [pc, #16]	; (8003574 <do_memp_malloc_pool.isra.0+0x28>)
 8003564:	f006 fc82 	bl	8009e6c <iprintf>
 8003568:	4620      	mov	r0, r4
 800356a:	bd10      	pop	{r4, pc}
 800356c:	0800b193 	.word	0x0800b193
 8003570:	0800b1e3 	.word	0x0800b1e3
 8003574:	0800af68 	.word	0x0800af68

08003578 <memp_init_pool>:
 8003578:	6843      	ldr	r3, [r0, #4]
 800357a:	2200      	movs	r2, #0
 800357c:	6881      	ldr	r1, [r0, #8]
 800357e:	3303      	adds	r3, #3
 8003580:	b530      	push	{r4, r5, lr}
 8003582:	f023 0303 	bic.w	r3, r3, #3
 8003586:	8844      	ldrh	r4, [r0, #2]
 8003588:	600a      	str	r2, [r1, #0]
 800358a:	4294      	cmp	r4, r2
 800358c:	dc00      	bgt.n	8003590 <memp_init_pool+0x18>
 800358e:	bd30      	pop	{r4, r5, pc}
 8003590:	680d      	ldr	r5, [r1, #0]
 8003592:	3201      	adds	r2, #1
 8003594:	601d      	str	r5, [r3, #0]
 8003596:	8805      	ldrh	r5, [r0, #0]
 8003598:	600b      	str	r3, [r1, #0]
 800359a:	442b      	add	r3, r5
 800359c:	e7f5      	b.n	800358a <memp_init_pool+0x12>
	...

080035a0 <memp_init>:
 80035a0:	b538      	push	{r3, r4, r5, lr}
 80035a2:	4d05      	ldr	r5, [pc, #20]	; (80035b8 <memp_init+0x18>)
 80035a4:	2409      	movs	r4, #9
 80035a6:	3c01      	subs	r4, #1
 80035a8:	f855 0b04 	ldr.w	r0, [r5], #4
 80035ac:	f7ff ffe4 	bl	8003578 <memp_init_pool>
 80035b0:	b2a4      	uxth	r4, r4
 80035b2:	2c00      	cmp	r4, #0
 80035b4:	d1f7      	bne.n	80035a6 <memp_init+0x6>
 80035b6:	bd38      	pop	{r3, r4, r5, pc}
 80035b8:	0800b2ac 	.word	0x0800b2ac

080035bc <memp_malloc>:
 80035bc:	2808      	cmp	r0, #8
 80035be:	b508      	push	{r3, lr}
 80035c0:	d807      	bhi.n	80035d2 <memp_malloc+0x16>
 80035c2:	4b08      	ldr	r3, [pc, #32]	; (80035e4 <memp_malloc+0x28>)
 80035c4:	f853 3020 	ldr.w	r3, [r3, r0, lsl #2]
 80035c8:	6898      	ldr	r0, [r3, #8]
 80035ca:	e8bd 4008 	ldmia.w	sp!, {r3, lr}
 80035ce:	f7ff bfbd 	b.w	800354c <do_memp_malloc_pool.isra.0>
 80035d2:	4b05      	ldr	r3, [pc, #20]	; (80035e8 <memp_malloc+0x2c>)
 80035d4:	f240 1257 	movw	r2, #343	; 0x157
 80035d8:	4904      	ldr	r1, [pc, #16]	; (80035ec <memp_malloc+0x30>)
 80035da:	4805      	ldr	r0, [pc, #20]	; (80035f0 <memp_malloc+0x34>)
 80035dc:	f006 fc46 	bl	8009e6c <iprintf>
 80035e0:	2000      	movs	r0, #0
 80035e2:	bd08      	pop	{r3, pc}
 80035e4:	0800b2ac 	.word	0x0800b2ac
 80035e8:	0800b193 	.word	0x0800b193
 80035ec:	0800b206 	.word	0x0800b206
 80035f0:	0800af68 	.word	0x0800af68

080035f4 <memp_free>:
 80035f4:	2808      	cmp	r0, #8
 80035f6:	d906      	bls.n	8003606 <memp_free+0x12>
 80035f8:	4b06      	ldr	r3, [pc, #24]	; (8003614 <memp_free+0x20>)
 80035fa:	f44f 72d5 	mov.w	r2, #426	; 0x1aa
 80035fe:	4906      	ldr	r1, [pc, #24]	; (8003618 <memp_free+0x24>)
 8003600:	4806      	ldr	r0, [pc, #24]	; (800361c <memp_free+0x28>)
 8003602:	f006 bc33 	b.w	8009e6c <iprintf>
 8003606:	b121      	cbz	r1, 8003612 <memp_free+0x1e>
 8003608:	4b05      	ldr	r3, [pc, #20]	; (8003620 <memp_free+0x2c>)
 800360a:	f853 0020 	ldr.w	r0, [r3, r0, lsl #2]
 800360e:	f7ff bf85 	b.w	800351c <do_memp_free_pool>
 8003612:	4770      	bx	lr
 8003614:	0800b193 	.word	0x0800b193
 8003618:	0800b223 	.word	0x0800b223
 800361c:	0800af68 	.word	0x0800af68
 8003620:	0800b2ac 	.word	0x0800b2ac

08003624 <netif_null_output_ip4>:
 8003624:	f06f 000b 	mvn.w	r0, #11
 8003628:	4770      	bx	lr
	...

0800362c <netif_issue_reports>:
 800362c:	b510      	push	{r4, lr}
 800362e:	4604      	mov	r4, r0
 8003630:	b930      	cbnz	r0, 8003640 <netif_issue_reports+0x14>
 8003632:	4b0c      	ldr	r3, [pc, #48]	; (8003664 <netif_issue_reports+0x38>)
 8003634:	f240 326d 	movw	r2, #877	; 0x36d
 8003638:	490b      	ldr	r1, [pc, #44]	; (8003668 <netif_issue_reports+0x3c>)
 800363a:	480c      	ldr	r0, [pc, #48]	; (800366c <netif_issue_reports+0x40>)
 800363c:	f006 fc16 	bl	8009e6c <iprintf>
 8003640:	f894 3031 	ldrb.w	r3, [r4, #49]	; 0x31
 8003644:	f003 0205 	and.w	r2, r3, #5
 8003648:	2a05      	cmp	r2, #5
 800364a:	d109      	bne.n	8003660 <netif_issue_reports+0x34>
 800364c:	6862      	ldr	r2, [r4, #4]
 800364e:	b13a      	cbz	r2, 8003660 <netif_issue_reports+0x34>
 8003650:	071b      	lsls	r3, r3, #28
 8003652:	d505      	bpl.n	8003660 <netif_issue_reports+0x34>
 8003654:	1d21      	adds	r1, r4, #4
 8003656:	4620      	mov	r0, r4
 8003658:	e8bd 4010 	ldmia.w	sp!, {r4, lr}
 800365c:	f005 baee 	b.w	8008c3c <etharp_request>
 8003660:	bd10      	pop	{r4, pc}
 8003662:	bf00      	nop
 8003664:	0800b2d0 	.word	0x0800b2d0
 8003668:	0800b301 	.word	0x0800b301
 800366c:	0800af68 	.word	0x0800af68

08003670 <netif_do_set_ipaddr.isra.0>:
 8003670:	b573      	push	{r0, r1, r4, r5, r6, lr}
 8003672:	4605      	mov	r5, r0
 8003674:	4616      	mov	r6, r2
 8003676:	460c      	mov	r4, r1
 8003678:	b931      	cbnz	r1, 8003688 <netif_do_set_ipaddr.isra.0+0x18>
 800367a:	4b0e      	ldr	r3, [pc, #56]	; (80036b4 <netif_do_set_ipaddr.isra.0+0x44>)
 800367c:	f240 12cb 	movw	r2, #459	; 0x1cb
 8003680:	490d      	ldr	r1, [pc, #52]	; (80036b8 <netif_do_set_ipaddr.isra.0+0x48>)
 8003682:	480e      	ldr	r0, [pc, #56]	; (80036bc <netif_do_set_ipaddr.isra.0+0x4c>)
 8003684:	f006 fbf2 	bl	8009e6c <iprintf>
 8003688:	686b      	ldr	r3, [r5, #4]
 800368a:	6822      	ldr	r2, [r4, #0]
 800368c:	429a      	cmp	r2, r3
 800368e:	d00f      	beq.n	80036b0 <netif_do_set_ipaddr.isra.0+0x40>
 8003690:	6033      	str	r3, [r6, #0]
 8003692:	a901      	add	r1, sp, #4
 8003694:	4630      	mov	r0, r6
 8003696:	9201      	str	r2, [sp, #4]
 8003698:	f000 fee2 	bl	8004460 <tcp_netif_ip_addr_changed>
 800369c:	a901      	add	r1, sp, #4
 800369e:	4630      	mov	r0, r6
 80036a0:	f004 f838 	bl	8007714 <udp_netif_ip_addr_changed>
 80036a4:	6823      	ldr	r3, [r4, #0]
 80036a6:	2101      	movs	r1, #1
 80036a8:	4628      	mov	r0, r5
 80036aa:	606b      	str	r3, [r5, #4]
 80036ac:	f7ff ffbe 	bl	800362c <netif_issue_reports>
 80036b0:	b002      	add	sp, #8
 80036b2:	bd70      	pop	{r4, r5, r6, pc}
 80036b4:	0800b2d0 	.word	0x0800b2d0
 80036b8:	0800b324 	.word	0x0800b324
 80036bc:	0800af68 	.word	0x0800af68

080036c0 <netif_init>:
 80036c0:	4770      	bx	lr
	...

080036c4 <netif_set_addr>:
 80036c4:	b5f7      	push	{r0, r1, r2, r4, r5, r6, r7, lr}
 80036c6:	4d14      	ldr	r5, [pc, #80]	; (8003718 <netif_set_addr+0x54>)
 80036c8:	4604      	mov	r4, r0
 80036ca:	2900      	cmp	r1, #0
 80036cc:	bf14      	ite	ne
 80036ce:	460e      	movne	r6, r1
 80036d0:	462e      	moveq	r6, r5
 80036d2:	2a00      	cmp	r2, #0
 80036d4:	bf14      	ite	ne
 80036d6:	4617      	movne	r7, r2
 80036d8:	462f      	moveq	r7, r5
 80036da:	2b00      	cmp	r3, #0
 80036dc:	bf18      	it	ne
 80036de:	461d      	movne	r5, r3
 80036e0:	6833      	ldr	r3, [r6, #0]
 80036e2:	b9b3      	cbnz	r3, 8003712 <netif_set_addr+0x4e>
 80036e4:	aa01      	add	r2, sp, #4
 80036e6:	4631      	mov	r1, r6
 80036e8:	f7ff ffc2 	bl	8003670 <netif_do_set_ipaddr.isra.0>
 80036ec:	2301      	movs	r3, #1
 80036ee:	683a      	ldr	r2, [r7, #0]
 80036f0:	68a1      	ldr	r1, [r4, #8]
 80036f2:	428a      	cmp	r2, r1
 80036f4:	68e1      	ldr	r1, [r4, #12]
 80036f6:	bf18      	it	ne
 80036f8:	60a2      	strne	r2, [r4, #8]
 80036fa:	682a      	ldr	r2, [r5, #0]
 80036fc:	428a      	cmp	r2, r1
 80036fe:	bf18      	it	ne
 8003700:	60e2      	strne	r2, [r4, #12]
 8003702:	b923      	cbnz	r3, 800370e <netif_set_addr+0x4a>
 8003704:	aa01      	add	r2, sp, #4
 8003706:	4631      	mov	r1, r6
 8003708:	4620      	mov	r0, r4
 800370a:	f7ff ffb1 	bl	8003670 <netif_do_set_ipaddr.isra.0>
 800370e:	b003      	add	sp, #12
 8003710:	bdf0      	pop	{r4, r5, r6, r7, pc}
 8003712:	2300      	movs	r3, #0
 8003714:	e7eb      	b.n	80036ee <netif_set_addr+0x2a>
 8003716:	bf00      	nop
 8003718:	0800cc58 	.word	0x0800cc58

0800371c <netif_add>:
 800371c:	e92d 4ff8 	stmdb	sp!, {r3, r4, r5, r6, r7, r8, r9, sl, fp, lr}
 8003720:	f8dd 802c 	ldr.w	r8, [sp, #44]	; 0x2c
 8003724:	4604      	mov	r4, r0
 8003726:	b948      	cbnz	r0, 800373c <netif_add+0x20>
 8003728:	4b3d      	ldr	r3, [pc, #244]	; (8003820 <netif_add+0x104>)
 800372a:	f240 1227 	movw	r2, #295	; 0x127
 800372e:	493d      	ldr	r1, [pc, #244]	; (8003824 <netif_add+0x108>)
 8003730:	483d      	ldr	r0, [pc, #244]	; (8003828 <netif_add+0x10c>)
 8003732:	f006 fb9b 	bl	8009e6c <iprintf>
 8003736:	4620      	mov	r0, r4
 8003738:	e8bd 8ff8 	ldmia.w	sp!, {r3, r4, r5, r6, r7, r8, r9, sl, fp, pc}
 800373c:	f1b8 0f00 	cmp.w	r8, #0
 8003740:	d108      	bne.n	8003754 <netif_add+0x38>
 8003742:	4b37      	ldr	r3, [pc, #220]	; (8003820 <netif_add+0x104>)
 8003744:	f44f 7294 	mov.w	r2, #296	; 0x128
 8003748:	4938      	ldr	r1, [pc, #224]	; (800382c <netif_add+0x110>)
 800374a:	4644      	mov	r4, r8
 800374c:	4836      	ldr	r0, [pc, #216]	; (8003828 <netif_add+0x10c>)
 800374e:	f006 fb8d 	bl	8009e6c <iprintf>
 8003752:	e7f0      	b.n	8003736 <netif_add+0x1a>
 8003754:	4e36      	ldr	r6, [pc, #216]	; (8003830 <netif_add+0x114>)
 8003756:	2500      	movs	r5, #0
 8003758:	f8df c0e4 	ldr.w	ip, [pc, #228]	; 8003840 <netif_add+0x124>
 800375c:	6146      	str	r6, [r0, #20]
 800375e:	9e0a      	ldr	r6, [sp, #40]	; 0x28
 8003760:	42ab      	cmp	r3, r5
 8003762:	bf08      	it	eq
 8003764:	4663      	moveq	r3, ip
 8003766:	60c5      	str	r5, [r0, #12]
 8003768:	42aa      	cmp	r2, r5
 800376a:	bf08      	it	eq
 800376c:	4662      	moveq	r2, ip
 800376e:	6206      	str	r6, [r0, #32]
 8003770:	42a9      	cmp	r1, r5
 8003772:	bf08      	it	eq
 8003774:	4661      	moveq	r1, ip
 8003776:	4e2f      	ldr	r6, [pc, #188]	; (8003834 <netif_add+0x118>)
 8003778:	8505      	strh	r5, [r0, #40]	; 0x28
 800377a:	7837      	ldrb	r7, [r6, #0]
 800377c:	f880 5031 	strb.w	r5, [r0, #49]	; 0x31
 8003780:	f880 7034 	strb.w	r7, [r0, #52]	; 0x34
 8003784:	9f0c      	ldr	r7, [sp, #48]	; 0x30
 8003786:	6245      	str	r5, [r0, #36]	; 0x24
 8003788:	61c5      	str	r5, [r0, #28]
 800378a:	6107      	str	r7, [r0, #16]
 800378c:	e9c0 5501 	strd	r5, r5, [r0, #4]
 8003790:	f7ff ff98 	bl	80036c4 <netif_set_addr>
 8003794:	4620      	mov	r0, r4
 8003796:	47c0      	blx	r8
 8003798:	2800      	cmp	r0, #0
 800379a:	d13f      	bne.n	800381c <netif_add+0x100>
 800379c:	4f26      	ldr	r7, [pc, #152]	; (8003838 <netif_add+0x11c>)
 800379e:	f8df b080 	ldr.w	fp, [pc, #128]	; 8003820 <netif_add+0x104>
 80037a2:	f894 3034 	ldrb.w	r3, [r4, #52]	; 0x34
 80037a6:	f04f 0800 	mov.w	r8, #0
 80037aa:	683d      	ldr	r5, [r7, #0]
 80037ac:	2bff      	cmp	r3, #255	; 0xff
 80037ae:	f8df a094 	ldr.w	sl, [pc, #148]	; 8003844 <netif_add+0x128>
 80037b2:	f8df 9074 	ldr.w	r9, [pc, #116]	; 8003828 <netif_add+0x10c>
 80037b6:	bf04      	itt	eq
 80037b8:	2300      	moveq	r3, #0
 80037ba:	f884 3034 	strbeq.w	r3, [r4, #52]	; 0x34
 80037be:	b92d      	cbnz	r5, 80037cc <netif_add+0xb0>
 80037c0:	f894 3034 	ldrb.w	r3, [r4, #52]	; 0x34
 80037c4:	2bfe      	cmp	r3, #254	; 0xfe
 80037c6:	d122      	bne.n	800380e <netif_add+0xf2>
 80037c8:	462b      	mov	r3, r5
 80037ca:	e022      	b.n	8003812 <netif_add+0xf6>
 80037cc:	42a5      	cmp	r5, r4
 80037ce:	d106      	bne.n	80037de <netif_add+0xc2>
 80037d0:	465b      	mov	r3, fp
 80037d2:	f240 128b 	movw	r2, #395	; 0x18b
 80037d6:	4651      	mov	r1, sl
 80037d8:	4648      	mov	r0, r9
 80037da:	f006 fb47 	bl	8009e6c <iprintf>
 80037de:	f108 0801 	add.w	r8, r8, #1
 80037e2:	f1b8 0fff 	cmp.w	r8, #255	; 0xff
 80037e6:	dd06      	ble.n	80037f6 <netif_add+0xda>
 80037e8:	465b      	mov	r3, fp
 80037ea:	f240 128d 	movw	r2, #397	; 0x18d
 80037ee:	4913      	ldr	r1, [pc, #76]	; (800383c <netif_add+0x120>)
 80037f0:	4648      	mov	r0, r9
 80037f2:	f006 fb3b 	bl	8009e6c <iprintf>
 80037f6:	f894 3034 	ldrb.w	r3, [r4, #52]	; 0x34
 80037fa:	f895 2034 	ldrb.w	r2, [r5, #52]	; 0x34
 80037fe:	429a      	cmp	r2, r3
 8003800:	d103      	bne.n	800380a <netif_add+0xee>
 8003802:	3201      	adds	r2, #1
 8003804:	f884 2034 	strb.w	r2, [r4, #52]	; 0x34
 8003808:	e7cb      	b.n	80037a2 <netif_add+0x86>
 800380a:	682d      	ldr	r5, [r5, #0]
 800380c:	e7d7      	b.n	80037be <netif_add+0xa2>
 800380e:	3301      	adds	r3, #1
 8003810:	b2db      	uxtb	r3, r3
 8003812:	7033      	strb	r3, [r6, #0]
 8003814:	683b      	ldr	r3, [r7, #0]
 8003816:	6023      	str	r3, [r4, #0]
 8003818:	603c      	str	r4, [r7, #0]
 800381a:	e78c      	b.n	8003736 <netif_add+0x1a>
 800381c:	462c      	mov	r4, r5
 800381e:	e78a      	b.n	8003736 <netif_add+0x1a>
 8003820:	0800b2d0 	.word	0x0800b2d0
 8003824:	0800b334 	.word	0x0800b334
 8003828:	0800af68 	.word	0x0800af68
 800382c:	0800b34d 	.word	0x0800b34d
 8003830:	08003625 	.word	0x08003625
 8003834:	20005cf4 	.word	0x20005cf4
 8003838:	20005cf0 	.word	0x20005cf0
 800383c:	0800b383 	.word	0x0800b383
 8003840:	0800cc58 	.word	0x0800cc58
 8003844:	0800b36f 	.word	0x0800b36f

08003848 <netif_set_default>:
 8003848:	4b01      	ldr	r3, [pc, #4]	; (8003850 <netif_set_default+0x8>)
 800384a:	6018      	str	r0, [r3, #0]
 800384c:	4770      	bx	lr
 800384e:	bf00      	nop
 8003850:	20005cec 	.word	0x20005cec

08003854 <netif_set_up>:
 8003854:	b930      	cbnz	r0, 8003864 <netif_set_up+0x10>
 8003856:	4b09      	ldr	r3, [pc, #36]	; (800387c <netif_set_up+0x28>)
 8003858:	f44f 7254 	mov.w	r2, #848	; 0x350
 800385c:	4908      	ldr	r1, [pc, #32]	; (8003880 <netif_set_up+0x2c>)
 800385e:	4809      	ldr	r0, [pc, #36]	; (8003884 <netif_set_up+0x30>)
 8003860:	f006 bb04 	b.w	8009e6c <iprintf>
 8003864:	f890 2031 	ldrb.w	r2, [r0, #49]	; 0x31
 8003868:	07d1      	lsls	r1, r2, #31
 800386a:	d406      	bmi.n	800387a <netif_set_up+0x26>
 800386c:	f042 0201 	orr.w	r2, r2, #1
 8003870:	2103      	movs	r1, #3
 8003872:	f880 2031 	strb.w	r2, [r0, #49]	; 0x31
 8003876:	f7ff bed9 	b.w	800362c <netif_issue_reports>
 800387a:	4770      	bx	lr
 800387c:	0800b2d0 	.word	0x0800b2d0
 8003880:	0800b3b1 	.word	0x0800b3b1
 8003884:	0800af68 	.word	0x0800af68

08003888 <netif_set_down>:
 8003888:	b930      	cbnz	r0, 8003898 <netif_set_down+0x10>
 800388a:	4b0a      	ldr	r3, [pc, #40]	; (80038b4 <netif_set_down+0x2c>)
 800388c:	f240 329b 	movw	r2, #923	; 0x39b
 8003890:	4909      	ldr	r1, [pc, #36]	; (80038b8 <netif_set_down+0x30>)
 8003892:	480a      	ldr	r0, [pc, #40]	; (80038bc <netif_set_down+0x34>)
 8003894:	f006 baea 	b.w	8009e6c <iprintf>
 8003898:	f890 2031 	ldrb.w	r2, [r0, #49]	; 0x31
 800389c:	07d1      	lsls	r1, r2, #31
 800389e:	d507      	bpl.n	80038b0 <netif_set_down+0x28>
 80038a0:	f022 0101 	bic.w	r1, r2, #1
 80038a4:	0713      	lsls	r3, r2, #28
 80038a6:	f880 1031 	strb.w	r1, [r0, #49]	; 0x31
 80038aa:	d501      	bpl.n	80038b0 <netif_set_down+0x28>
 80038ac:	f005 b902 	b.w	8008ab4 <etharp_cleanup_netif>
 80038b0:	4770      	bx	lr
 80038b2:	bf00      	nop
 80038b4:	0800b2d0 	.word	0x0800b2d0
 80038b8:	0800b3cd 	.word	0x0800b3cd
 80038bc:	0800af68 	.word	0x0800af68

080038c0 <netif_set_link_callback>:
 80038c0:	b100      	cbz	r0, 80038c4 <netif_set_link_callback+0x4>
 80038c2:	61c1      	str	r1, [r0, #28]
 80038c4:	4770      	bx	lr
	...

080038c8 <netif_get_by_index>:
 80038c8:	4603      	mov	r3, r0
 80038ca:	b158      	cbz	r0, 80038e4 <netif_get_by_index+0x1c>
 80038cc:	4a06      	ldr	r2, [pc, #24]	; (80038e8 <netif_get_by_index+0x20>)
 80038ce:	6810      	ldr	r0, [r2, #0]
 80038d0:	b900      	cbnz	r0, 80038d4 <netif_get_by_index+0xc>
 80038d2:	4770      	bx	lr
 80038d4:	f890 2034 	ldrb.w	r2, [r0, #52]	; 0x34
 80038d8:	3201      	adds	r2, #1
 80038da:	b2d2      	uxtb	r2, r2
 80038dc:	429a      	cmp	r2, r3
 80038de:	d001      	beq.n	80038e4 <netif_get_by_index+0x1c>
 80038e0:	6800      	ldr	r0, [r0, #0]
 80038e2:	e7f5      	b.n	80038d0 <netif_get_by_index+0x8>
 80038e4:	4770      	bx	lr
 80038e6:	bf00      	nop
 80038e8:	20005cf0 	.word	0x20005cf0

080038ec <pbuf_add_header_impl>:
 80038ec:	b538      	push	{r3, r4, r5, lr}
 80038ee:	b968      	cbnz	r0, 800390c <pbuf_add_header_impl+0x20>
 80038f0:	4b14      	ldr	r3, [pc, #80]	; (8003944 <pbuf_add_header_impl+0x58>)
 80038f2:	f240 12df 	movw	r2, #479	; 0x1df
 80038f6:	4914      	ldr	r1, [pc, #80]	; (8003948 <pbuf_add_header_impl+0x5c>)
 80038f8:	4814      	ldr	r0, [pc, #80]	; (800394c <pbuf_add_header_impl+0x60>)
 80038fa:	f006 fab7 	bl	8009e6c <iprintf>
 80038fe:	2001      	movs	r0, #1
 8003900:	e01f      	b.n	8003942 <pbuf_add_header_impl+0x56>
 8003902:	2a00      	cmp	r2, #0
 8003904:	d0fb      	beq.n	80038fe <pbuf_add_header_impl+0x12>
 8003906:	6842      	ldr	r2, [r0, #4]
 8003908:	1a51      	subs	r1, r2, r1
 800390a:	e014      	b.n	8003936 <pbuf_add_header_impl+0x4a>
 800390c:	f5b1 3f80 	cmp.w	r1, #65536	; 0x10000
 8003910:	d2f5      	bcs.n	80038fe <pbuf_add_header_impl+0x12>
 8003912:	b1a9      	cbz	r1, 8003940 <pbuf_add_header_impl+0x54>
 8003914:	8903      	ldrh	r3, [r0, #8]
 8003916:	b28c      	uxth	r4, r1
 8003918:	fa13 f381 	uxtah	r3, r3, r1
 800391c:	b29b      	uxth	r3, r3
 800391e:	429c      	cmp	r4, r3
 8003920:	d8ed      	bhi.n	80038fe <pbuf_add_header_impl+0x12>
 8003922:	f990 500c 	ldrsb.w	r5, [r0, #12]
 8003926:	2d00      	cmp	r5, #0
 8003928:	daeb      	bge.n	8003902 <pbuf_add_header_impl+0x16>
 800392a:	6842      	ldr	r2, [r0, #4]
 800392c:	1a51      	subs	r1, r2, r1
 800392e:	f100 0210 	add.w	r2, r0, #16
 8003932:	4291      	cmp	r1, r2
 8003934:	d3e3      	bcc.n	80038fe <pbuf_add_header_impl+0x12>
 8003936:	8942      	ldrh	r2, [r0, #10]
 8003938:	6041      	str	r1, [r0, #4]
 800393a:	4414      	add	r4, r2
 800393c:	8103      	strh	r3, [r0, #8]
 800393e:	8144      	strh	r4, [r0, #10]
 8003940:	2000      	movs	r0, #0
 8003942:	bd38      	pop	{r3, r4, r5, pc}
 8003944:	0800b3eb 	.word	0x0800b3eb
 8003948:	0800b4bd 	.word	0x0800b4bd
 800394c:	0800af68 	.word	0x0800af68

08003950 <pbuf_free_ooseq>:
 8003950:	4b06      	ldr	r3, [pc, #24]	; (800396c <pbuf_free_ooseq+0x1c>)
 8003952:	2200      	movs	r2, #0
 8003954:	701a      	strb	r2, [r3, #0]
 8003956:	4b06      	ldr	r3, [pc, #24]	; (8003970 <pbuf_free_ooseq+0x20>)
 8003958:	6818      	ldr	r0, [r3, #0]
 800395a:	b900      	cbnz	r0, 800395e <pbuf_free_ooseq+0xe>
 800395c:	4770      	bx	lr
 800395e:	6f43      	ldr	r3, [r0, #116]	; 0x74
 8003960:	b10b      	cbz	r3, 8003966 <pbuf_free_ooseq+0x16>
 8003962:	f000 bc37 	b.w	80041d4 <tcp_free_ooseq>
 8003966:	68c0      	ldr	r0, [r0, #12]
 8003968:	e7f7      	b.n	800395a <pbuf_free_ooseq+0xa>
 800396a:	bf00      	nop
 800396c:	20005cf5 	.word	0x20005cf5
 8003970:	20005cf8 	.word	0x20005cf8

08003974 <pbuf_alloc_reference>:
 8003974:	f022 0340 	bic.w	r3, r2, #64	; 0x40
 8003978:	2b01      	cmp	r3, #1
 800397a:	b570      	push	{r4, r5, r6, lr}
 800397c:	4606      	mov	r6, r0
 800397e:	460d      	mov	r5, r1
 8003980:	4614      	mov	r4, r2
 8003982:	d006      	beq.n	8003992 <pbuf_alloc_reference+0x1e>
 8003984:	4b0a      	ldr	r3, [pc, #40]	; (80039b0 <pbuf_alloc_reference+0x3c>)
 8003986:	f44f 72a5 	mov.w	r2, #330	; 0x14a
 800398a:	490a      	ldr	r1, [pc, #40]	; (80039b4 <pbuf_alloc_reference+0x40>)
 800398c:	480a      	ldr	r0, [pc, #40]	; (80039b8 <pbuf_alloc_reference+0x44>)
 800398e:	f006 fa6d 	bl	8009e6c <iprintf>
 8003992:	2007      	movs	r0, #7
 8003994:	f7ff fe12 	bl	80035bc <memp_malloc>
 8003998:	b140      	cbz	r0, 80039ac <pbuf_alloc_reference+0x38>
 800399a:	2300      	movs	r3, #0
 800399c:	8105      	strh	r5, [r0, #8]
 800399e:	8145      	strh	r5, [r0, #10]
 80039a0:	7343      	strb	r3, [r0, #13]
 80039a2:	7304      	strb	r4, [r0, #12]
 80039a4:	e9c0 3600 	strd	r3, r6, [r0]
 80039a8:	2301      	movs	r3, #1
 80039aa:	81c3      	strh	r3, [r0, #14]
 80039ac:	bd70      	pop	{r4, r5, r6, pc}
 80039ae:	bf00      	nop
 80039b0:	0800b3eb 	.word	0x0800b3eb
 80039b4:	0800b41b 	.word	0x0800b41b
 80039b8:	0800af68 	.word	0x0800af68

080039bc <pbuf_alloced_custom>:
 80039bc:	3003      	adds	r0, #3
 80039be:	f020 0003 	bic.w	r0, r0, #3
 80039c2:	b570      	push	{r4, r5, r6, lr}
 80039c4:	180e      	adds	r6, r1, r0
 80039c6:	f8bd 5014 	ldrh.w	r5, [sp, #20]
 80039ca:	9c04      	ldr	r4, [sp, #16]
 80039cc:	42ae      	cmp	r6, r5
 80039ce:	d80d      	bhi.n	80039ec <pbuf_alloced_custom+0x30>
 80039d0:	b104      	cbz	r4, 80039d4 <pbuf_alloced_custom+0x18>
 80039d2:	4404      	add	r4, r0
 80039d4:	4618      	mov	r0, r3
 80039d6:	2300      	movs	r3, #0
 80039d8:	e9c0 3400 	strd	r3, r4, [r0]
 80039dc:	2302      	movs	r3, #2
 80039de:	8101      	strh	r1, [r0, #8]
 80039e0:	8141      	strh	r1, [r0, #10]
 80039e2:	7343      	strb	r3, [r0, #13]
 80039e4:	2301      	movs	r3, #1
 80039e6:	7302      	strb	r2, [r0, #12]
 80039e8:	81c3      	strh	r3, [r0, #14]
 80039ea:	bd70      	pop	{r4, r5, r6, pc}
 80039ec:	2000      	movs	r0, #0
 80039ee:	e7fc      	b.n	80039ea <pbuf_alloced_custom+0x2e>

080039f0 <pbuf_add_header>:
 80039f0:	2200      	movs	r2, #0
 80039f2:	f7ff bf7b 	b.w	80038ec <pbuf_add_header_impl>
	...

080039f8 <pbuf_remove_header>:
 80039f8:	b510      	push	{r4, lr}
 80039fa:	b990      	cbnz	r0, 8003a22 <pbuf_remove_header+0x2a>
 80039fc:	4b10      	ldr	r3, [pc, #64]	; (8003a40 <pbuf_remove_header+0x48>)
 80039fe:	f240 224b 	movw	r2, #587	; 0x24b
 8003a02:	4910      	ldr	r1, [pc, #64]	; (8003a44 <pbuf_remove_header+0x4c>)
 8003a04:	4810      	ldr	r0, [pc, #64]	; (8003a48 <pbuf_remove_header+0x50>)
 8003a06:	f006 fa31 	bl	8009e6c <iprintf>
 8003a0a:	2001      	movs	r0, #1
 8003a0c:	e008      	b.n	8003a20 <pbuf_remove_header+0x28>
 8003a0e:	1a9b      	subs	r3, r3, r2
 8003a10:	6844      	ldr	r4, [r0, #4]
 8003a12:	8143      	strh	r3, [r0, #10]
 8003a14:	4421      	add	r1, r4
 8003a16:	8903      	ldrh	r3, [r0, #8]
 8003a18:	6041      	str	r1, [r0, #4]
 8003a1a:	1a9b      	subs	r3, r3, r2
 8003a1c:	8103      	strh	r3, [r0, #8]
 8003a1e:	2000      	movs	r0, #0
 8003a20:	bd10      	pop	{r4, pc}
 8003a22:	f5b1 3f80 	cmp.w	r1, #65536	; 0x10000
 8003a26:	d2f0      	bcs.n	8003a0a <pbuf_remove_header+0x12>
 8003a28:	2900      	cmp	r1, #0
 8003a2a:	d0f8      	beq.n	8003a1e <pbuf_remove_header+0x26>
 8003a2c:	b28a      	uxth	r2, r1
 8003a2e:	8943      	ldrh	r3, [r0, #10]
 8003a30:	429a      	cmp	r2, r3
 8003a32:	d9ec      	bls.n	8003a0e <pbuf_remove_header+0x16>
 8003a34:	4b02      	ldr	r3, [pc, #8]	; (8003a40 <pbuf_remove_header+0x48>)
 8003a36:	f240 2255 	movw	r2, #597	; 0x255
 8003a3a:	4904      	ldr	r1, [pc, #16]	; (8003a4c <pbuf_remove_header+0x54>)
 8003a3c:	e7e2      	b.n	8003a04 <pbuf_remove_header+0xc>
 8003a3e:	bf00      	nop
 8003a40:	0800b3eb 	.word	0x0800b3eb
 8003a44:	0800b4bd 	.word	0x0800b4bd
 8003a48:	0800af68 	.word	0x0800af68
 8003a4c:	0800b42d 	.word	0x0800b42d

08003a50 <pbuf_header_force>:
 8003a50:	1e0b      	subs	r3, r1, #0
 8003a52:	da02      	bge.n	8003a5a <pbuf_header_force+0xa>
 8003a54:	4259      	negs	r1, r3
 8003a56:	f7ff bfcf 	b.w	80039f8 <pbuf_remove_header>
 8003a5a:	2201      	movs	r2, #1
 8003a5c:	f7ff bf46 	b.w	80038ec <pbuf_add_header_impl>

08003a60 <pbuf_free>:
 8003a60:	e92d 43f8 	stmdb	sp!, {r3, r4, r5, r6, r7, r8, r9, lr}
 8003a64:	4604      	mov	r4, r0
 8003a66:	b950      	cbnz	r0, 8003a7e <pbuf_free+0x1e>
 8003a68:	4625      	mov	r5, r4
 8003a6a:	4b29      	ldr	r3, [pc, #164]	; (8003b10 <pbuf_free+0xb0>)
 8003a6c:	f44f 7237 	mov.w	r2, #732	; 0x2dc
 8003a70:	4928      	ldr	r1, [pc, #160]	; (8003b14 <pbuf_free+0xb4>)
 8003a72:	4829      	ldr	r0, [pc, #164]	; (8003b18 <pbuf_free+0xb8>)
 8003a74:	f006 f9fa 	bl	8009e6c <iprintf>
 8003a78:	4628      	mov	r0, r5
 8003a7a:	e8bd 83f8 	ldmia.w	sp!, {r3, r4, r5, r6, r7, r8, r9, pc}
 8003a7e:	2500      	movs	r5, #0
 8003a80:	4e23      	ldr	r6, [pc, #140]	; (8003b10 <pbuf_free+0xb0>)
 8003a82:	f8df 80a0 	ldr.w	r8, [pc, #160]	; 8003b24 <pbuf_free+0xc4>
 8003a86:	4f24      	ldr	r7, [pc, #144]	; (8003b18 <pbuf_free+0xb8>)
 8003a88:	7ba3      	ldrb	r3, [r4, #14]
 8003a8a:	b933      	cbnz	r3, 8003a9a <pbuf_free+0x3a>
 8003a8c:	4633      	mov	r3, r6
 8003a8e:	f240 22f1 	movw	r2, #753	; 0x2f1
 8003a92:	4641      	mov	r1, r8
 8003a94:	4638      	mov	r0, r7
 8003a96:	f006 f9e9 	bl	8009e6c <iprintf>
 8003a9a:	7ba3      	ldrb	r3, [r4, #14]
 8003a9c:	3b01      	subs	r3, #1
 8003a9e:	b2db      	uxtb	r3, r3
 8003aa0:	73a3      	strb	r3, [r4, #14]
 8003aa2:	2b00      	cmp	r3, #0
 8003aa4:	d1e8      	bne.n	8003a78 <pbuf_free+0x18>
 8003aa6:	7b63      	ldrb	r3, [r4, #13]
 8003aa8:	f8d4 9000 	ldr.w	r9, [r4]
 8003aac:	079b      	lsls	r3, r3, #30
 8003aae:	d512      	bpl.n	8003ad6 <pbuf_free+0x76>
 8003ab0:	6923      	ldr	r3, [r4, #16]
 8003ab2:	b933      	cbnz	r3, 8003ac2 <pbuf_free+0x62>
 8003ab4:	4633      	mov	r3, r6
 8003ab6:	f240 22ff 	movw	r2, #767	; 0x2ff
 8003aba:	4918      	ldr	r1, [pc, #96]	; (8003b1c <pbuf_free+0xbc>)
 8003abc:	4638      	mov	r0, r7
 8003abe:	f006 f9d5 	bl	8009e6c <iprintf>
 8003ac2:	6923      	ldr	r3, [r4, #16]
 8003ac4:	4620      	mov	r0, r4
 8003ac6:	4798      	blx	r3
 8003ac8:	3501      	adds	r5, #1
 8003aca:	b2ed      	uxtb	r5, r5
 8003acc:	f1b9 0f00 	cmp.w	r9, #0
 8003ad0:	d0d2      	beq.n	8003a78 <pbuf_free+0x18>
 8003ad2:	464c      	mov	r4, r9
 8003ad4:	e7d8      	b.n	8003a88 <pbuf_free+0x28>
 8003ad6:	7b23      	ldrb	r3, [r4, #12]
 8003ad8:	f003 030f 	and.w	r3, r3, #15
 8003adc:	2b02      	cmp	r3, #2
 8003ade:	d104      	bne.n	8003aea <pbuf_free+0x8a>
 8003ae0:	4621      	mov	r1, r4
 8003ae2:	2008      	movs	r0, #8
 8003ae4:	f7ff fd86 	bl	80035f4 <memp_free>
 8003ae8:	e7ee      	b.n	8003ac8 <pbuf_free+0x68>
 8003aea:	2b01      	cmp	r3, #1
 8003aec:	d102      	bne.n	8003af4 <pbuf_free+0x94>
 8003aee:	4621      	mov	r1, r4
 8003af0:	2007      	movs	r0, #7
 8003af2:	e7f7      	b.n	8003ae4 <pbuf_free+0x84>
 8003af4:	b91b      	cbnz	r3, 8003afe <pbuf_free+0x9e>
 8003af6:	4620      	mov	r0, r4
 8003af8:	f7ff fb0c 	bl	8003114 <mem_free>
 8003afc:	e7e4      	b.n	8003ac8 <pbuf_free+0x68>
 8003afe:	4633      	mov	r3, r6
 8003b00:	f240 320f 	movw	r2, #783	; 0x30f
 8003b04:	4906      	ldr	r1, [pc, #24]	; (8003b20 <pbuf_free+0xc0>)
 8003b06:	4638      	mov	r0, r7
 8003b08:	f006 f9b0 	bl	8009e6c <iprintf>
 8003b0c:	e7dc      	b.n	8003ac8 <pbuf_free+0x68>
 8003b0e:	bf00      	nop
 8003b10:	0800b3eb 	.word	0x0800b3eb
 8003b14:	0800b4bd 	.word	0x0800b4bd
 8003b18:	0800af68 	.word	0x0800af68
 8003b1c:	0800b461 	.word	0x0800b461
 8003b20:	0800b482 	.word	0x0800b482
 8003b24:	0800b44b 	.word	0x0800b44b

08003b28 <pbuf_alloc>:
 8003b28:	f5b2 7fc1 	cmp.w	r2, #386	; 0x182
 8003b2c:	e92d 47f0 	stmdb	sp!, {r4, r5, r6, r7, r8, r9, sl, lr}
 8003b30:	4606      	mov	r6, r0
 8003b32:	460f      	mov	r7, r1
 8003b34:	b284      	uxth	r4, r0
 8003b36:	d014      	beq.n	8003b62 <pbuf_alloc+0x3a>
 8003b38:	d808      	bhi.n	8003b4c <pbuf_alloc+0x24>
 8003b3a:	f022 0340 	bic.w	r3, r2, #64	; 0x40
 8003b3e:	2b01      	cmp	r3, #1
 8003b40:	d107      	bne.n	8003b52 <pbuf_alloc+0x2a>
 8003b42:	2000      	movs	r0, #0
 8003b44:	e8bd 47f0 	ldmia.w	sp!, {r4, r5, r6, r7, r8, r9, sl, lr}
 8003b48:	f7ff bf14 	b.w	8003974 <pbuf_alloc_reference>
 8003b4c:	f5b2 7f20 	cmp.w	r2, #640	; 0x280
 8003b50:	d03d      	beq.n	8003bce <pbuf_alloc+0xa6>
 8003b52:	4b2f      	ldr	r3, [pc, #188]	; (8003c10 <pbuf_alloc+0xe8>)
 8003b54:	f240 1227 	movw	r2, #295	; 0x127
 8003b58:	492e      	ldr	r1, [pc, #184]	; (8003c14 <pbuf_alloc+0xec>)
 8003b5a:	482f      	ldr	r0, [pc, #188]	; (8003c18 <pbuf_alloc+0xf0>)
 8003b5c:	f006 f986 	bl	8009e6c <iprintf>
 8003b60:	e00e      	b.n	8003b80 <pbuf_alloc+0x58>
 8003b62:	2600      	movs	r6, #0
 8003b64:	f8df 90bc 	ldr.w	r9, [pc, #188]	; 8003c24 <pbuf_alloc+0xfc>
 8003b68:	4635      	mov	r5, r6
 8003b6a:	46b0      	mov	r8, r6
 8003b6c:	2008      	movs	r0, #8
 8003b6e:	46b2      	mov	sl, r6
 8003b70:	f7ff fd24 	bl	80035bc <memp_malloc>
 8003b74:	4606      	mov	r6, r0
 8003b76:	b948      	cbnz	r0, 8003b8c <pbuf_alloc+0x64>
 8003b78:	4b28      	ldr	r3, [pc, #160]	; (8003c1c <pbuf_alloc+0xf4>)
 8003b7a:	2201      	movs	r2, #1
 8003b7c:	701a      	strb	r2, [r3, #0]
 8003b7e:	b90d      	cbnz	r5, 8003b84 <pbuf_alloc+0x5c>
 8003b80:	2500      	movs	r5, #0
 8003b82:	e01f      	b.n	8003bc4 <pbuf_alloc+0x9c>
 8003b84:	4628      	mov	r0, r5
 8003b86:	f7ff ff6b 	bl	8003a60 <pbuf_free>
 8003b8a:	e7f9      	b.n	8003b80 <pbuf_alloc+0x58>
 8003b8c:	1ce3      	adds	r3, r4, #3
 8003b8e:	4404      	add	r4, r0
 8003b90:	f8c0 8000 	str.w	r8, [r0]
 8003b94:	f023 0303 	bic.w	r3, r3, #3
 8003b98:	3413      	adds	r4, #19
 8003b9a:	8107      	strh	r7, [r0, #8]
 8003b9c:	f5c3 7314 	rsb	r3, r3, #592	; 0x250
 8003ba0:	f024 0403 	bic.w	r4, r4, #3
 8003ba4:	f8c0 900c 	str.w	r9, [r0, #12]
 8003ba8:	b29b      	uxth	r3, r3
 8003baa:	6044      	str	r4, [r0, #4]
 8003bac:	42bb      	cmp	r3, r7
 8003bae:	bf28      	it	cs
 8003bb0:	463b      	movcs	r3, r7
 8003bb2:	8143      	strh	r3, [r0, #10]
 8003bb4:	b14d      	cbz	r5, 8003bca <pbuf_alloc+0xa2>
 8003bb6:	f8ca 0000 	str.w	r0, [sl]
 8003bba:	1afb      	subs	r3, r7, r3
 8003bbc:	2400      	movs	r4, #0
 8003bbe:	b29f      	uxth	r7, r3
 8003bc0:	2f00      	cmp	r7, #0
 8003bc2:	d1d3      	bne.n	8003b6c <pbuf_alloc+0x44>
 8003bc4:	4628      	mov	r0, r5
 8003bc6:	e8bd 87f0 	ldmia.w	sp!, {r4, r5, r6, r7, r8, r9, sl, pc}
 8003bca:	4605      	mov	r5, r0
 8003bcc:	e7f5      	b.n	8003bba <pbuf_alloc+0x92>
 8003bce:	3403      	adds	r4, #3
 8003bd0:	1ccb      	adds	r3, r1, #3
 8003bd2:	f024 0403 	bic.w	r4, r4, #3
 8003bd6:	f023 0303 	bic.w	r3, r3, #3
 8003bda:	441c      	add	r4, r3
 8003bdc:	b2a4      	uxth	r4, r4
 8003bde:	f104 0010 	add.w	r0, r4, #16
 8003be2:	429c      	cmp	r4, r3
 8003be4:	b280      	uxth	r0, r0
 8003be6:	d3cb      	bcc.n	8003b80 <pbuf_alloc+0x58>
 8003be8:	4283      	cmp	r3, r0
 8003bea:	d8c9      	bhi.n	8003b80 <pbuf_alloc+0x58>
 8003bec:	f7ff fbee 	bl	80033cc <mem_malloc>
 8003bf0:	4605      	mov	r5, r0
 8003bf2:	2800      	cmp	r0, #0
 8003bf4:	d0e6      	beq.n	8003bc4 <pbuf_alloc+0x9c>
 8003bf6:	4406      	add	r6, r0
 8003bf8:	2300      	movs	r3, #0
 8003bfa:	8107      	strh	r7, [r0, #8]
 8003bfc:	3613      	adds	r6, #19
 8003bfe:	6003      	str	r3, [r0, #0]
 8003c00:	4b07      	ldr	r3, [pc, #28]	; (8003c20 <pbuf_alloc+0xf8>)
 8003c02:	f026 0603 	bic.w	r6, r6, #3
 8003c06:	8147      	strh	r7, [r0, #10]
 8003c08:	60c3      	str	r3, [r0, #12]
 8003c0a:	6046      	str	r6, [r0, #4]
 8003c0c:	e7da      	b.n	8003bc4 <pbuf_alloc+0x9c>
 8003c0e:	bf00      	nop
 8003c10:	0800b3eb 	.word	0x0800b3eb
 8003c14:	0800b494 	.word	0x0800b494
 8003c18:	0800af68 	.word	0x0800af68
 8003c1c:	20005cf5 	.word	0x20005cf5
 8003c20:	00010080 	.word	0x00010080
 8003c24:	00010082 	.word	0x00010082

08003c28 <pbuf_realloc>:
 8003c28:	e92d 47f0 	stmdb	sp!, {r4, r5, r6, r7, r8, r9, sl, lr}
 8003c2c:	460e      	mov	r6, r1
 8003c2e:	4604      	mov	r4, r0
 8003c30:	b930      	cbnz	r0, 8003c40 <pbuf_realloc+0x18>
 8003c32:	4b24      	ldr	r3, [pc, #144]	; (8003cc4 <pbuf_realloc+0x9c>)
 8003c34:	f44f 72cc 	mov.w	r2, #408	; 0x198
 8003c38:	4923      	ldr	r1, [pc, #140]	; (8003cc8 <pbuf_realloc+0xa0>)
 8003c3a:	4824      	ldr	r0, [pc, #144]	; (8003ccc <pbuf_realloc+0xa4>)
 8003c3c:	f006 f916 	bl	8009e6c <iprintf>
 8003c40:	8927      	ldrh	r7, [r4, #8]
 8003c42:	42b7      	cmp	r7, r6
 8003c44:	d93c      	bls.n	8003cc0 <pbuf_realloc+0x98>
 8003c46:	4635      	mov	r5, r6
 8003c48:	f8df 8078 	ldr.w	r8, [pc, #120]	; 8003cc4 <pbuf_realloc+0x9c>
 8003c4c:	f8df a084 	ldr.w	sl, [pc, #132]	; 8003cd4 <pbuf_realloc+0xac>
 8003c50:	f8df 9078 	ldr.w	r9, [pc, #120]	; 8003ccc <pbuf_realloc+0xa4>
 8003c54:	8962      	ldrh	r2, [r4, #10]
 8003c56:	42aa      	cmp	r2, r5
 8003c58:	d319      	bcc.n	8003c8e <pbuf_realloc+0x66>
 8003c5a:	7b23      	ldrb	r3, [r4, #12]
 8003c5c:	0719      	lsls	r1, r3, #28
 8003c5e:	d127      	bne.n	8003cb0 <pbuf_realloc+0x88>
 8003c60:	42aa      	cmp	r2, r5
 8003c62:	d025      	beq.n	8003cb0 <pbuf_realloc+0x88>
 8003c64:	7b63      	ldrb	r3, [r4, #13]
 8003c66:	079b      	lsls	r3, r3, #30
 8003c68:	d422      	bmi.n	8003cb0 <pbuf_realloc+0x88>
 8003c6a:	6861      	ldr	r1, [r4, #4]
 8003c6c:	4620      	mov	r0, r4
 8003c6e:	1b09      	subs	r1, r1, r4
 8003c70:	4429      	add	r1, r5
 8003c72:	b289      	uxth	r1, r1
 8003c74:	f7ff fb06 	bl	8003284 <mem_trim>
 8003c78:	4604      	mov	r4, r0
 8003c7a:	b9c8      	cbnz	r0, 8003cb0 <pbuf_realloc+0x88>
 8003c7c:	4b11      	ldr	r3, [pc, #68]	; (8003cc4 <pbuf_realloc+0x9c>)
 8003c7e:	f240 12bd 	movw	r2, #445	; 0x1bd
 8003c82:	4913      	ldr	r1, [pc, #76]	; (8003cd0 <pbuf_realloc+0xa8>)
 8003c84:	4811      	ldr	r0, [pc, #68]	; (8003ccc <pbuf_realloc+0xa4>)
 8003c86:	f006 f8f1 	bl	8009e6c <iprintf>
 8003c8a:	8164      	strh	r4, [r4, #10]
 8003c8c:	deff      	udf	#255	; 0xff
 8003c8e:	1aad      	subs	r5, r5, r2
 8003c90:	1bf3      	subs	r3, r6, r7
 8003c92:	8922      	ldrh	r2, [r4, #8]
 8003c94:	b2ad      	uxth	r5, r5
 8003c96:	4413      	add	r3, r2
 8003c98:	8123      	strh	r3, [r4, #8]
 8003c9a:	6824      	ldr	r4, [r4, #0]
 8003c9c:	2c00      	cmp	r4, #0
 8003c9e:	d1d9      	bne.n	8003c54 <pbuf_realloc+0x2c>
 8003ca0:	4643      	mov	r3, r8
 8003ca2:	f240 12af 	movw	r2, #431	; 0x1af
 8003ca6:	4651      	mov	r1, sl
 8003ca8:	4648      	mov	r0, r9
 8003caa:	f006 f8df 	bl	8009e6c <iprintf>
 8003cae:	e7d1      	b.n	8003c54 <pbuf_realloc+0x2c>
 8003cb0:	6820      	ldr	r0, [r4, #0]
 8003cb2:	8165      	strh	r5, [r4, #10]
 8003cb4:	8125      	strh	r5, [r4, #8]
 8003cb6:	b108      	cbz	r0, 8003cbc <pbuf_realloc+0x94>
 8003cb8:	f7ff fed2 	bl	8003a60 <pbuf_free>
 8003cbc:	2300      	movs	r3, #0
 8003cbe:	6023      	str	r3, [r4, #0]
 8003cc0:	e8bd 87f0 	ldmia.w	sp!, {r4, r5, r6, r7, r8, r9, sl, pc}
 8003cc4:	0800b3eb 	.word	0x0800b3eb
 8003cc8:	0800b4af 	.word	0x0800b4af
 8003ccc:	0800af68 	.word	0x0800af68
 8003cd0:	0800b4df 	.word	0x0800b4df
 8003cd4:	0800b4c7 	.word	0x0800b4c7

08003cd8 <pbuf_clen>:
 8003cd8:	4603      	mov	r3, r0
 8003cda:	2200      	movs	r2, #0
 8003cdc:	b290      	uxth	r0, r2
 8003cde:	3201      	adds	r2, #1
 8003ce0:	b903      	cbnz	r3, 8003ce4 <pbuf_clen+0xc>
 8003ce2:	4770      	bx	lr
 8003ce4:	681b      	ldr	r3, [r3, #0]
 8003ce6:	e7f9      	b.n	8003cdc <pbuf_clen+0x4>

08003ce8 <pbuf_ref>:
 8003ce8:	b158      	cbz	r0, 8003d02 <pbuf_ref+0x1a>
 8003cea:	7b83      	ldrb	r3, [r0, #14]
 8003cec:	3301      	adds	r3, #1
 8003cee:	b2db      	uxtb	r3, r3
 8003cf0:	7383      	strb	r3, [r0, #14]
 8003cf2:	b933      	cbnz	r3, 8003d02 <pbuf_ref+0x1a>
 8003cf4:	4b03      	ldr	r3, [pc, #12]	; (8003d04 <pbuf_ref+0x1c>)
 8003cf6:	f240 3242 	movw	r2, #834	; 0x342
 8003cfa:	4903      	ldr	r1, [pc, #12]	; (8003d08 <pbuf_ref+0x20>)
 8003cfc:	4803      	ldr	r0, [pc, #12]	; (8003d0c <pbuf_ref+0x24>)
 8003cfe:	f006 b8b5 	b.w	8009e6c <iprintf>
 8003d02:	4770      	bx	lr
 8003d04:	0800b3eb 	.word	0x0800b3eb
 8003d08:	0800b4fb 	.word	0x0800b4fb
 8003d0c:	0800af68 	.word	0x0800af68

08003d10 <pbuf_cat>:
 8003d10:	b570      	push	{r4, r5, r6, lr}
 8003d12:	460d      	mov	r5, r1
 8003d14:	4604      	mov	r4, r0
 8003d16:	b100      	cbz	r0, 8003d1a <pbuf_cat+0xa>
 8003d18:	b961      	cbnz	r1, 8003d34 <pbuf_cat+0x24>
 8003d1a:	4b15      	ldr	r3, [pc, #84]	; (8003d70 <pbuf_cat+0x60>)
 8003d1c:	f240 3259 	movw	r2, #857	; 0x359
 8003d20:	4914      	ldr	r1, [pc, #80]	; (8003d74 <pbuf_cat+0x64>)
 8003d22:	4815      	ldr	r0, [pc, #84]	; (8003d78 <pbuf_cat+0x68>)
 8003d24:	e8bd 4070 	ldmia.w	sp!, {r4, r5, r6, lr}
 8003d28:	f006 b8a0 	b.w	8009e6c <iprintf>
 8003d2c:	8929      	ldrh	r1, [r5, #8]
 8003d2e:	440b      	add	r3, r1
 8003d30:	8123      	strh	r3, [r4, #8]
 8003d32:	4614      	mov	r4, r2
 8003d34:	6822      	ldr	r2, [r4, #0]
 8003d36:	8923      	ldrh	r3, [r4, #8]
 8003d38:	2a00      	cmp	r2, #0
 8003d3a:	d1f7      	bne.n	8003d2c <pbuf_cat+0x1c>
 8003d3c:	8962      	ldrh	r2, [r4, #10]
 8003d3e:	429a      	cmp	r2, r3
 8003d40:	d00f      	beq.n	8003d62 <pbuf_cat+0x52>
 8003d42:	4b0b      	ldr	r3, [pc, #44]	; (8003d70 <pbuf_cat+0x60>)
 8003d44:	f240 3262 	movw	r2, #866	; 0x362
 8003d48:	490c      	ldr	r1, [pc, #48]	; (8003d7c <pbuf_cat+0x6c>)
 8003d4a:	480b      	ldr	r0, [pc, #44]	; (8003d78 <pbuf_cat+0x68>)
 8003d4c:	f006 f88e 	bl	8009e6c <iprintf>
 8003d50:	6823      	ldr	r3, [r4, #0]
 8003d52:	b133      	cbz	r3, 8003d62 <pbuf_cat+0x52>
 8003d54:	4b06      	ldr	r3, [pc, #24]	; (8003d70 <pbuf_cat+0x60>)
 8003d56:	f240 3263 	movw	r2, #867	; 0x363
 8003d5a:	4909      	ldr	r1, [pc, #36]	; (8003d80 <pbuf_cat+0x70>)
 8003d5c:	4806      	ldr	r0, [pc, #24]	; (8003d78 <pbuf_cat+0x68>)
 8003d5e:	f006 f885 	bl	8009e6c <iprintf>
 8003d62:	892a      	ldrh	r2, [r5, #8]
 8003d64:	8923      	ldrh	r3, [r4, #8]
 8003d66:	6025      	str	r5, [r4, #0]
 8003d68:	4413      	add	r3, r2
 8003d6a:	8123      	strh	r3, [r4, #8]
 8003d6c:	bd70      	pop	{r4, r5, r6, pc}
 8003d6e:	bf00      	nop
 8003d70:	0800b3eb 	.word	0x0800b3eb
 8003d74:	0800b50d 	.word	0x0800b50d
 8003d78:	0800af68 	.word	0x0800af68
 8003d7c:	0800b542 	.word	0x0800b542
 8003d80:	0800b56f 	.word	0x0800b56f

08003d84 <pbuf_chain>:
 8003d84:	b510      	push	{r4, lr}
 8003d86:	460c      	mov	r4, r1
 8003d88:	f7ff ffc2 	bl	8003d10 <pbuf_cat>
 8003d8c:	4620      	mov	r0, r4
 8003d8e:	e8bd 4010 	ldmia.w	sp!, {r4, lr}
 8003d92:	f7ff bfa9 	b.w	8003ce8 <pbuf_ref>
	...

08003d98 <pbuf_copy>:
 8003d98:	e92d 4ff8 	stmdb	sp!, {r3, r4, r5, r6, r7, r8, r9, sl, fp, lr}
 8003d9c:	460c      	mov	r4, r1
 8003d9e:	4605      	mov	r5, r0
 8003da0:	b120      	cbz	r0, 8003dac <pbuf_copy+0x14>
 8003da2:	b119      	cbz	r1, 8003dac <pbuf_copy+0x14>
 8003da4:	8902      	ldrh	r2, [r0, #8]
 8003da6:	890b      	ldrh	r3, [r1, #8]
 8003da8:	429a      	cmp	r2, r3
 8003daa:	d20a      	bcs.n	8003dc2 <pbuf_copy+0x2a>
 8003dac:	4b34      	ldr	r3, [pc, #208]	; (8003e80 <pbuf_copy+0xe8>)
 8003dae:	f240 32c9 	movw	r2, #969	; 0x3c9
 8003db2:	4934      	ldr	r1, [pc, #208]	; (8003e84 <pbuf_copy+0xec>)
 8003db4:	4834      	ldr	r0, [pc, #208]	; (8003e88 <pbuf_copy+0xf0>)
 8003db6:	f006 f859 	bl	8009e6c <iprintf>
 8003dba:	f06f 000f 	mvn.w	r0, #15
 8003dbe:	e8bd 8ff8 	ldmia.w	sp!, {r3, r4, r5, r6, r7, r8, r9, sl, fp, pc}
 8003dc2:	2600      	movs	r6, #0
 8003dc4:	f8df b0b8 	ldr.w	fp, [pc, #184]	; 8003e80 <pbuf_copy+0xe8>
 8003dc8:	f8df a0cc 	ldr.w	sl, [pc, #204]	; 8003e98 <pbuf_copy+0x100>
 8003dcc:	4637      	mov	r7, r6
 8003dce:	f8df 90b8 	ldr.w	r9, [pc, #184]	; 8003e88 <pbuf_copy+0xf0>
 8003dd2:	f8b5 800a 	ldrh.w	r8, [r5, #10]
 8003dd6:	8962      	ldrh	r2, [r4, #10]
 8003dd8:	eba8 0807 	sub.w	r8, r8, r7
 8003ddc:	6868      	ldr	r0, [r5, #4]
 8003dde:	1b92      	subs	r2, r2, r6
 8003de0:	6861      	ldr	r1, [r4, #4]
 8003de2:	4438      	add	r0, r7
 8003de4:	4590      	cmp	r8, r2
 8003de6:	4431      	add	r1, r6
 8003de8:	bf28      	it	cs
 8003dea:	4690      	movcs	r8, r2
 8003dec:	4642      	mov	r2, r8
 8003dee:	4447      	add	r7, r8
 8003df0:	f006 f826 	bl	8009e40 <memcpy>
 8003df4:	896b      	ldrh	r3, [r5, #10]
 8003df6:	4446      	add	r6, r8
 8003df8:	429f      	cmp	r7, r3
 8003dfa:	d906      	bls.n	8003e0a <pbuf_copy+0x72>
 8003dfc:	465b      	mov	r3, fp
 8003dfe:	f240 32d9 	movw	r2, #985	; 0x3d9
 8003e02:	4651      	mov	r1, sl
 8003e04:	4648      	mov	r0, r9
 8003e06:	f006 f831 	bl	8009e6c <iprintf>
 8003e0a:	8963      	ldrh	r3, [r4, #10]
 8003e0c:	429e      	cmp	r6, r3
 8003e0e:	d906      	bls.n	8003e1e <pbuf_copy+0x86>
 8003e10:	465b      	mov	r3, fp
 8003e12:	f240 32da 	movw	r2, #986	; 0x3da
 8003e16:	491d      	ldr	r1, [pc, #116]	; (8003e8c <pbuf_copy+0xf4>)
 8003e18:	4648      	mov	r0, r9
 8003e1a:	f006 f827 	bl	8009e6c <iprintf>
 8003e1e:	8963      	ldrh	r3, [r4, #10]
 8003e20:	429e      	cmp	r6, r3
 8003e22:	896b      	ldrh	r3, [r5, #10]
 8003e24:	bf24      	itt	cs
 8003e26:	6824      	ldrcs	r4, [r4, #0]
 8003e28:	2600      	movcs	r6, #0
 8003e2a:	429f      	cmp	r7, r3
 8003e2c:	d108      	bne.n	8003e40 <pbuf_copy+0xa8>
 8003e2e:	682d      	ldr	r5, [r5, #0]
 8003e30:	b92d      	cbnz	r5, 8003e3e <pbuf_copy+0xa6>
 8003e32:	b314      	cbz	r4, 8003e7a <pbuf_copy+0xe2>
 8003e34:	4b12      	ldr	r3, [pc, #72]	; (8003e80 <pbuf_copy+0xe8>)
 8003e36:	f44f 7279 	mov.w	r2, #996	; 0x3e4
 8003e3a:	4915      	ldr	r1, [pc, #84]	; (8003e90 <pbuf_copy+0xf8>)
 8003e3c:	e7ba      	b.n	8003db4 <pbuf_copy+0x1c>
 8003e3e:	2700      	movs	r7, #0
 8003e40:	b17c      	cbz	r4, 8003e62 <pbuf_copy+0xca>
 8003e42:	8962      	ldrh	r2, [r4, #10]
 8003e44:	8923      	ldrh	r3, [r4, #8]
 8003e46:	429a      	cmp	r2, r3
 8003e48:	d10b      	bne.n	8003e62 <pbuf_copy+0xca>
 8003e4a:	6823      	ldr	r3, [r4, #0]
 8003e4c:	b14b      	cbz	r3, 8003e62 <pbuf_copy+0xca>
 8003e4e:	4b0c      	ldr	r3, [pc, #48]	; (8003e80 <pbuf_copy+0xe8>)
 8003e50:	f240 32e9 	movw	r2, #1001	; 0x3e9
 8003e54:	490f      	ldr	r1, [pc, #60]	; (8003e94 <pbuf_copy+0xfc>)
 8003e56:	480c      	ldr	r0, [pc, #48]	; (8003e88 <pbuf_copy+0xf0>)
 8003e58:	f006 f808 	bl	8009e6c <iprintf>
 8003e5c:	f06f 0005 	mvn.w	r0, #5
 8003e60:	e7ad      	b.n	8003dbe <pbuf_copy+0x26>
 8003e62:	896a      	ldrh	r2, [r5, #10]
 8003e64:	892b      	ldrh	r3, [r5, #8]
 8003e66:	429a      	cmp	r2, r3
 8003e68:	d105      	bne.n	8003e76 <pbuf_copy+0xde>
 8003e6a:	682b      	ldr	r3, [r5, #0]
 8003e6c:	b11b      	cbz	r3, 8003e76 <pbuf_copy+0xde>
 8003e6e:	4b04      	ldr	r3, [pc, #16]	; (8003e80 <pbuf_copy+0xe8>)
 8003e70:	f240 32ee 	movw	r2, #1006	; 0x3ee
 8003e74:	e7ee      	b.n	8003e54 <pbuf_copy+0xbc>
 8003e76:	2c00      	cmp	r4, #0
 8003e78:	d1ab      	bne.n	8003dd2 <pbuf_copy+0x3a>
 8003e7a:	4620      	mov	r0, r4
 8003e7c:	e79f      	b.n	8003dbe <pbuf_copy+0x26>
 8003e7e:	bf00      	nop
 8003e80:	0800b3eb 	.word	0x0800b3eb
 8003e84:	0800b57f 	.word	0x0800b57f
 8003e88:	0800af68 	.word	0x0800af68
 8003e8c:	0800b5c6 	.word	0x0800b5c6
 8003e90:	0800b5e1 	.word	0x0800b5e1
 8003e94:	0800b5ee 	.word	0x0800b5ee
 8003e98:	0800b5af 	.word	0x0800b5af

08003e9c <pbuf_copy_partial>:
 8003e9c:	e92d 41f0 	stmdb	sp!, {r4, r5, r6, r7, r8, lr}
 8003ea0:	460f      	mov	r7, r1
 8003ea2:	4690      	mov	r8, r2
 8003ea4:	4605      	mov	r5, r0
 8003ea6:	b950      	cbnz	r0, 8003ebe <pbuf_copy_partial+0x22>
 8003ea8:	462e      	mov	r6, r5
 8003eaa:	4b1b      	ldr	r3, [pc, #108]	; (8003f18 <pbuf_copy_partial+0x7c>)
 8003eac:	f240 420a 	movw	r2, #1034	; 0x40a
 8003eb0:	491a      	ldr	r1, [pc, #104]	; (8003f1c <pbuf_copy_partial+0x80>)
 8003eb2:	481b      	ldr	r0, [pc, #108]	; (8003f20 <pbuf_copy_partial+0x84>)
 8003eb4:	f005 ffda 	bl	8009e6c <iprintf>
 8003eb8:	4630      	mov	r0, r6
 8003eba:	e8bd 81f0 	ldmia.w	sp!, {r4, r5, r6, r7, r8, pc}
 8003ebe:	bb41      	cbnz	r1, 8003f12 <pbuf_copy_partial+0x76>
 8003ec0:	4b15      	ldr	r3, [pc, #84]	; (8003f18 <pbuf_copy_partial+0x7c>)
 8003ec2:	f240 420b 	movw	r2, #1035	; 0x40b
 8003ec6:	4917      	ldr	r1, [pc, #92]	; (8003f24 <pbuf_copy_partial+0x88>)
 8003ec8:	463e      	mov	r6, r7
 8003eca:	4815      	ldr	r0, [pc, #84]	; (8003f20 <pbuf_copy_partial+0x84>)
 8003ecc:	f005 ffce 	bl	8009e6c <iprintf>
 8003ed0:	e7f2      	b.n	8003eb8 <pbuf_copy_partial+0x1c>
 8003ed2:	896c      	ldrh	r4, [r5, #10]
 8003ed4:	b153      	cbz	r3, 8003eec <pbuf_copy_partial+0x50>
 8003ed6:	42a3      	cmp	r3, r4
 8003ed8:	d308      	bcc.n	8003eec <pbuf_copy_partial+0x50>
 8003eda:	1b1b      	subs	r3, r3, r4
 8003edc:	b29b      	uxth	r3, r3
 8003ede:	682d      	ldr	r5, [r5, #0]
 8003ee0:	f1b8 0f00 	cmp.w	r8, #0
 8003ee4:	d0e8      	beq.n	8003eb8 <pbuf_copy_partial+0x1c>
 8003ee6:	2d00      	cmp	r5, #0
 8003ee8:	d1f3      	bne.n	8003ed2 <pbuf_copy_partial+0x36>
 8003eea:	e7e5      	b.n	8003eb8 <pbuf_copy_partial+0x1c>
 8003eec:	1ae4      	subs	r4, r4, r3
 8003eee:	6869      	ldr	r1, [r5, #4]
 8003ef0:	19b8      	adds	r0, r7, r6
 8003ef2:	b2a4      	uxth	r4, r4
 8003ef4:	4419      	add	r1, r3
 8003ef6:	4544      	cmp	r4, r8
 8003ef8:	bf28      	it	cs
 8003efa:	4644      	movcs	r4, r8
 8003efc:	4622      	mov	r2, r4
 8003efe:	4426      	add	r6, r4
 8003f00:	eba8 0404 	sub.w	r4, r8, r4
 8003f04:	f005 ff9c 	bl	8009e40 <memcpy>
 8003f08:	b2b6      	uxth	r6, r6
 8003f0a:	2300      	movs	r3, #0
 8003f0c:	fa1f f884 	uxth.w	r8, r4
 8003f10:	e7e5      	b.n	8003ede <pbuf_copy_partial+0x42>
 8003f12:	2600      	movs	r6, #0
 8003f14:	e7e4      	b.n	8003ee0 <pbuf_copy_partial+0x44>
 8003f16:	bf00      	nop
 8003f18:	0800b3eb 	.word	0x0800b3eb
 8003f1c:	0800b618 	.word	0x0800b618
 8003f20:	0800af68 	.word	0x0800af68
 8003f24:	0800b637 	.word	0x0800b637

08003f28 <pbuf_clone>:
 8003f28:	b538      	push	{r3, r4, r5, lr}
 8003f2a:	4615      	mov	r5, r2
 8003f2c:	460a      	mov	r2, r1
 8003f2e:	8929      	ldrh	r1, [r5, #8]
 8003f30:	f7ff fdfa 	bl	8003b28 <pbuf_alloc>
 8003f34:	4604      	mov	r4, r0
 8003f36:	b150      	cbz	r0, 8003f4e <pbuf_clone+0x26>
 8003f38:	4629      	mov	r1, r5
 8003f3a:	f7ff ff2d 	bl	8003d98 <pbuf_copy>
 8003f3e:	b130      	cbz	r0, 8003f4e <pbuf_clone+0x26>
 8003f40:	4b04      	ldr	r3, [pc, #16]	; (8003f54 <pbuf_clone+0x2c>)
 8003f42:	f240 5224 	movw	r2, #1316	; 0x524
 8003f46:	4904      	ldr	r1, [pc, #16]	; (8003f58 <pbuf_clone+0x30>)
 8003f48:	4804      	ldr	r0, [pc, #16]	; (8003f5c <pbuf_clone+0x34>)
 8003f4a:	f005 ff8f 	bl	8009e6c <iprintf>
 8003f4e:	4620      	mov	r0, r4
 8003f50:	bd38      	pop	{r3, r4, r5, pc}
 8003f52:	bf00      	nop
 8003f54:	0800b3eb 	.word	0x0800b3eb
 8003f58:	0800b65a 	.word	0x0800b65a
 8003f5c:	0800af68 	.word	0x0800af68

08003f60 <tcp_close_shutdown_fin>:
 8003f60:	b510      	push	{r4, lr}
 8003f62:	4604      	mov	r4, r0
 8003f64:	b930      	cbnz	r0, 8003f74 <tcp_close_shutdown_fin+0x14>
 8003f66:	4b13      	ldr	r3, [pc, #76]	; (8003fb4 <tcp_close_shutdown_fin+0x54>)
 8003f68:	f44f 72ce 	mov.w	r2, #412	; 0x19c
 8003f6c:	4912      	ldr	r1, [pc, #72]	; (8003fb8 <tcp_close_shutdown_fin+0x58>)
 8003f6e:	4813      	ldr	r0, [pc, #76]	; (8003fbc <tcp_close_shutdown_fin+0x5c>)
 8003f70:	f005 ff7c 	bl	8009e6c <iprintf>
 8003f74:	7d23      	ldrb	r3, [r4, #20]
 8003f76:	2b04      	cmp	r3, #4
 8003f78:	d003      	beq.n	8003f82 <tcp_close_shutdown_fin+0x22>
 8003f7a:	2b07      	cmp	r3, #7
 8003f7c:	d00c      	beq.n	8003f98 <tcp_close_shutdown_fin+0x38>
 8003f7e:	2b03      	cmp	r3, #3
 8003f80:	d108      	bne.n	8003f94 <tcp_close_shutdown_fin+0x34>
 8003f82:	4620      	mov	r0, r4
 8003f84:	f002 fc78 	bl	8006878 <tcp_send_fin>
 8003f88:	b960      	cbnz	r0, 8003fa4 <tcp_close_shutdown_fin+0x44>
 8003f8a:	2305      	movs	r3, #5
 8003f8c:	4620      	mov	r0, r4
 8003f8e:	7523      	strb	r3, [r4, #20]
 8003f90:	f002 fdd2 	bl	8006b38 <tcp_output>
 8003f94:	2000      	movs	r0, #0
 8003f96:	bd10      	pop	{r4, pc}
 8003f98:	4620      	mov	r0, r4
 8003f9a:	f002 fc6d 	bl	8006878 <tcp_send_fin>
 8003f9e:	b908      	cbnz	r0, 8003fa4 <tcp_close_shutdown_fin+0x44>
 8003fa0:	2309      	movs	r3, #9
 8003fa2:	e7f3      	b.n	8003f8c <tcp_close_shutdown_fin+0x2c>
 8003fa4:	1c43      	adds	r3, r0, #1
 8003fa6:	d1f6      	bne.n	8003f96 <tcp_close_shutdown_fin+0x36>
 8003fa8:	8b63      	ldrh	r3, [r4, #26]
 8003faa:	f043 0308 	orr.w	r3, r3, #8
 8003fae:	8363      	strh	r3, [r4, #26]
 8003fb0:	e7f0      	b.n	8003f94 <tcp_close_shutdown_fin+0x34>
 8003fb2:	bf00      	nop
 8003fb4:	0800b66b 	.word	0x0800b66b
 8003fb8:	0800b69a 	.word	0x0800b69a
 8003fbc:	0800af68 	.word	0x0800af68

08003fc0 <tcp_init>:
 8003fc0:	b508      	push	{r3, lr}
 8003fc2:	f005 ff6b 	bl	8009e9c <rand>
 8003fc6:	ea6f 4080 	mvn.w	r0, r0, lsl #18
 8003fca:	4b02      	ldr	r3, [pc, #8]	; (8003fd4 <tcp_init+0x14>)
 8003fcc:	ea6f 4090 	mvn.w	r0, r0, lsr #18
 8003fd0:	8018      	strh	r0, [r3, #0]
 8003fd2:	bd08      	pop	{r3, pc}
 8003fd4:	20000010 	.word	0x20000010

08003fd8 <tcp_free>:
 8003fd8:	b510      	push	{r4, lr}
 8003fda:	7d03      	ldrb	r3, [r0, #20]
 8003fdc:	4604      	mov	r4, r0
 8003fde:	2b01      	cmp	r3, #1
 8003fe0:	d105      	bne.n	8003fee <tcp_free+0x16>
 8003fe2:	4b06      	ldr	r3, [pc, #24]	; (8003ffc <tcp_free+0x24>)
 8003fe4:	22d4      	movs	r2, #212	; 0xd4
 8003fe6:	4906      	ldr	r1, [pc, #24]	; (8004000 <tcp_free+0x28>)
 8003fe8:	4806      	ldr	r0, [pc, #24]	; (8004004 <tcp_free+0x2c>)
 8003fea:	f005 ff3f 	bl	8009e6c <iprintf>
 8003fee:	4621      	mov	r1, r4
 8003ff0:	2001      	movs	r0, #1
 8003ff2:	e8bd 4010 	ldmia.w	sp!, {r4, lr}
 8003ff6:	f7ff bafd 	b.w	80035f4 <memp_free>
 8003ffa:	bf00      	nop
 8003ffc:	0800b66b 	.word	0x0800b66b
 8004000:	0800b6a6 	.word	0x0800b6a6
 8004004:	0800af68 	.word	0x0800af68

08004008 <tcp_update_rcv_ann_wnd>:
 8004008:	b570      	push	{r4, r5, r6, lr}
 800400a:	4604      	mov	r4, r0
 800400c:	b930      	cbnz	r0, 800401c <tcp_update_rcv_ann_wnd+0x14>
 800400e:	4b15      	ldr	r3, [pc, #84]	; (8004064 <tcp_update_rcv_ann_wnd+0x5c>)
 8004010:	f240 32a6 	movw	r2, #934	; 0x3a6
 8004014:	4914      	ldr	r1, [pc, #80]	; (8004068 <tcp_update_rcv_ann_wnd+0x60>)
 8004016:	4815      	ldr	r0, [pc, #84]	; (800406c <tcp_update_rcv_ann_wnd+0x64>)
 8004018:	f005 ff28 	bl	8009e6c <iprintf>
 800401c:	8d22      	ldrh	r2, [r4, #40]	; 0x28
 800401e:	6ae3      	ldr	r3, [r4, #44]	; 0x2c
 8004020:	8e66      	ldrh	r6, [r4, #50]	; 0x32
 8004022:	6a65      	ldr	r5, [r4, #36]	; 0x24
 8004024:	1ad0      	subs	r0, r2, r3
 8004026:	f5b6 6f86 	cmp.w	r6, #1072	; 0x430
 800402a:	4428      	add	r0, r5
 800402c:	bf94      	ite	ls
 800402e:	1b81      	subls	r1, r0, r6
 8004030:	f5a0 6186 	subhi.w	r1, r0, #1072	; 0x430
 8004034:	2900      	cmp	r1, #0
 8004036:	db01      	blt.n	800403c <tcp_update_rcv_ann_wnd+0x34>
 8004038:	8562      	strh	r2, [r4, #42]	; 0x2a
 800403a:	bd70      	pop	{r4, r5, r6, pc}
 800403c:	1aea      	subs	r2, r5, r3
 800403e:	2a00      	cmp	r2, #0
 8004040:	dd02      	ble.n	8004048 <tcp_update_rcv_ann_wnd+0x40>
 8004042:	2000      	movs	r0, #0
 8004044:	8560      	strh	r0, [r4, #42]	; 0x2a
 8004046:	e7f8      	b.n	800403a <tcp_update_rcv_ann_wnd+0x32>
 8004048:	1b5d      	subs	r5, r3, r5
 800404a:	f5b5 3f80 	cmp.w	r5, #65536	; 0x10000
 800404e:	d306      	bcc.n	800405e <tcp_update_rcv_ann_wnd+0x56>
 8004050:	4b04      	ldr	r3, [pc, #16]	; (8004064 <tcp_update_rcv_ann_wnd+0x5c>)
 8004052:	f240 32b6 	movw	r2, #950	; 0x3b6
 8004056:	4906      	ldr	r1, [pc, #24]	; (8004070 <tcp_update_rcv_ann_wnd+0x68>)
 8004058:	4804      	ldr	r0, [pc, #16]	; (800406c <tcp_update_rcv_ann_wnd+0x64>)
 800405a:	f005 ff07 	bl	8009e6c <iprintf>
 800405e:	2000      	movs	r0, #0
 8004060:	8565      	strh	r5, [r4, #42]	; 0x2a
 8004062:	e7ea      	b.n	800403a <tcp_update_rcv_ann_wnd+0x32>
 8004064:	0800b66b 	.word	0x0800b66b
 8004068:	0800b6b7 	.word	0x0800b6b7
 800406c:	0800af68 	.word	0x0800af68
 8004070:	0800b6db 	.word	0x0800b6db

08004074 <tcp_recved>:
 8004074:	b570      	push	{r4, r5, r6, lr}
 8004076:	460c      	mov	r4, r1
 8004078:	4605      	mov	r5, r0
 800407a:	b940      	cbnz	r0, 800408e <tcp_recved+0x1a>
 800407c:	4b18      	ldr	r3, [pc, #96]	; (80040e0 <tcp_recved+0x6c>)
 800407e:	f240 32cf 	movw	r2, #975	; 0x3cf
 8004082:	4918      	ldr	r1, [pc, #96]	; (80040e4 <tcp_recved+0x70>)
 8004084:	4818      	ldr	r0, [pc, #96]	; (80040e8 <tcp_recved+0x74>)
 8004086:	e8bd 4070 	ldmia.w	sp!, {r4, r5, r6, lr}
 800408a:	f005 beef 	b.w	8009e6c <iprintf>
 800408e:	7d03      	ldrb	r3, [r0, #20]
 8004090:	2b01      	cmp	r3, #1
 8004092:	d106      	bne.n	80040a2 <tcp_recved+0x2e>
 8004094:	4b12      	ldr	r3, [pc, #72]	; (80040e0 <tcp_recved+0x6c>)
 8004096:	f240 32d2 	movw	r2, #978	; 0x3d2
 800409a:	4914      	ldr	r1, [pc, #80]	; (80040ec <tcp_recved+0x78>)
 800409c:	4812      	ldr	r0, [pc, #72]	; (80040e8 <tcp_recved+0x74>)
 800409e:	f005 fee5 	bl	8009e6c <iprintf>
 80040a2:	8d2b      	ldrh	r3, [r5, #40]	; 0x28
 80040a4:	1919      	adds	r1, r3, r4
 80040a6:	b289      	uxth	r1, r1
 80040a8:	f5b1 6f06 	cmp.w	r1, #2144	; 0x860
 80040ac:	d813      	bhi.n	80040d6 <tcp_recved+0x62>
 80040ae:	428b      	cmp	r3, r1
 80040b0:	bf88      	it	hi
 80040b2:	f44f 6106 	movhi.w	r1, #2144	; 0x860
 80040b6:	4628      	mov	r0, r5
 80040b8:	8529      	strh	r1, [r5, #40]	; 0x28
 80040ba:	f7ff ffa5 	bl	8004008 <tcp_update_rcv_ann_wnd>
 80040be:	f5b0 7f06 	cmp.w	r0, #536	; 0x218
 80040c2:	d30b      	bcc.n	80040dc <tcp_recved+0x68>
 80040c4:	8b6b      	ldrh	r3, [r5, #26]
 80040c6:	4628      	mov	r0, r5
 80040c8:	f043 0302 	orr.w	r3, r3, #2
 80040cc:	836b      	strh	r3, [r5, #26]
 80040ce:	e8bd 4070 	ldmia.w	sp!, {r4, r5, r6, lr}
 80040d2:	f002 bd31 	b.w	8006b38 <tcp_output>
 80040d6:	f44f 6106 	mov.w	r1, #2144	; 0x860
 80040da:	e7ec      	b.n	80040b6 <tcp_recved+0x42>
 80040dc:	bd70      	pop	{r4, r5, r6, pc}
 80040de:	bf00      	nop
 80040e0:	0800b66b 	.word	0x0800b66b
 80040e4:	0800b6f5 	.word	0x0800b6f5
 80040e8:	0800af68 	.word	0x0800af68
 80040ec:	0800b70d 	.word	0x0800b70d

080040f0 <tcp_seg_free>:
 80040f0:	b510      	push	{r4, lr}
 80040f2:	4604      	mov	r4, r0
 80040f4:	b148      	cbz	r0, 800410a <tcp_seg_free+0x1a>
 80040f6:	6840      	ldr	r0, [r0, #4]
 80040f8:	b108      	cbz	r0, 80040fe <tcp_seg_free+0xe>
 80040fa:	f7ff fcb1 	bl	8003a60 <pbuf_free>
 80040fe:	4621      	mov	r1, r4
 8004100:	2003      	movs	r0, #3
 8004102:	e8bd 4010 	ldmia.w	sp!, {r4, lr}
 8004106:	f7ff ba75 	b.w	80035f4 <memp_free>
 800410a:	bd10      	pop	{r4, pc}

0800410c <tcp_segs_free>:
 800410c:	b510      	push	{r4, lr}
 800410e:	b900      	cbnz	r0, 8004112 <tcp_segs_free+0x6>
 8004110:	bd10      	pop	{r4, pc}
 8004112:	6804      	ldr	r4, [r0, #0]
 8004114:	f7ff ffec 	bl	80040f0 <tcp_seg_free>
 8004118:	4620      	mov	r0, r4
 800411a:	e7f8      	b.n	800410e <tcp_segs_free+0x2>

0800411c <tcp_seg_copy>:
 800411c:	b538      	push	{r3, r4, r5, lr}
 800411e:	4604      	mov	r4, r0
 8004120:	b930      	cbnz	r0, 8004130 <tcp_seg_copy+0x14>
 8004122:	4b0d      	ldr	r3, [pc, #52]	; (8004158 <tcp_seg_copy+0x3c>)
 8004124:	f240 6282 	movw	r2, #1666	; 0x682
 8004128:	490c      	ldr	r1, [pc, #48]	; (800415c <tcp_seg_copy+0x40>)
 800412a:	480d      	ldr	r0, [pc, #52]	; (8004160 <tcp_seg_copy+0x44>)
 800412c:	f005 fe9e 	bl	8009e6c <iprintf>
 8004130:	2003      	movs	r0, #3
 8004132:	f7ff fa43 	bl	80035bc <memp_malloc>
 8004136:	4605      	mov	r5, r0
 8004138:	b160      	cbz	r0, 8004154 <tcp_seg_copy+0x38>
 800413a:	4623      	mov	r3, r4
 800413c:	4602      	mov	r2, r0
 800413e:	f104 0110 	add.w	r1, r4, #16
 8004142:	f853 0b04 	ldr.w	r0, [r3], #4
 8004146:	428b      	cmp	r3, r1
 8004148:	f842 0b04 	str.w	r0, [r2], #4
 800414c:	d1f9      	bne.n	8004142 <tcp_seg_copy+0x26>
 800414e:	6868      	ldr	r0, [r5, #4]
 8004150:	f7ff fdca 	bl	8003ce8 <pbuf_ref>
 8004154:	4628      	mov	r0, r5
 8004156:	bd38      	pop	{r3, r4, r5, pc}
 8004158:	0800b66b 	.word	0x0800b66b
 800415c:	0800b733 	.word	0x0800b733
 8004160:	0800af68 	.word	0x0800af68

08004164 <tcp_next_iss>:
 8004164:	b508      	push	{r3, lr}
 8004166:	b930      	cbnz	r0, 8004176 <tcp_next_iss+0x12>
 8004168:	4b06      	ldr	r3, [pc, #24]	; (8004184 <tcp_next_iss+0x20>)
 800416a:	f640 02af 	movw	r2, #2223	; 0x8af
 800416e:	4906      	ldr	r1, [pc, #24]	; (8004188 <tcp_next_iss+0x24>)
 8004170:	4806      	ldr	r0, [pc, #24]	; (800418c <tcp_next_iss+0x28>)
 8004172:	f005 fe7b 	bl	8009e6c <iprintf>
 8004176:	4b06      	ldr	r3, [pc, #24]	; (8004190 <tcp_next_iss+0x2c>)
 8004178:	4a06      	ldr	r2, [pc, #24]	; (8004194 <tcp_next_iss+0x30>)
 800417a:	6818      	ldr	r0, [r3, #0]
 800417c:	6812      	ldr	r2, [r2, #0]
 800417e:	4410      	add	r0, r2
 8004180:	6018      	str	r0, [r3, #0]
 8004182:	bd08      	pop	{r3, pc}
 8004184:	0800b66b 	.word	0x0800b66b
 8004188:	0800b74d 	.word	0x0800b74d
 800418c:	0800af68 	.word	0x0800af68
 8004190:	2000000c 	.word	0x2000000c
 8004194:	20005d08 	.word	0x20005d08

08004198 <tcp_eff_send_mss_netif>:
 8004198:	b538      	push	{r3, r4, r5, lr}
 800419a:	4604      	mov	r4, r0
 800419c:	460d      	mov	r5, r1
 800419e:	b932      	cbnz	r2, 80041ae <tcp_eff_send_mss_netif+0x16>
 80041a0:	4b09      	ldr	r3, [pc, #36]	; (80041c8 <tcp_eff_send_mss_netif+0x30>)
 80041a2:	f640 02c5 	movw	r2, #2245	; 0x8c5
 80041a6:	4909      	ldr	r1, [pc, #36]	; (80041cc <tcp_eff_send_mss_netif+0x34>)
 80041a8:	4809      	ldr	r0, [pc, #36]	; (80041d0 <tcp_eff_send_mss_netif+0x38>)
 80041aa:	f005 fe5f 	bl	8009e6c <iprintf>
 80041ae:	b14d      	cbz	r5, 80041c4 <tcp_eff_send_mss_netif+0x2c>
 80041b0:	8d2b      	ldrh	r3, [r5, #40]	; 0x28
 80041b2:	b13b      	cbz	r3, 80041c4 <tcp_eff_send_mss_netif+0x2c>
 80041b4:	2b28      	cmp	r3, #40	; 0x28
 80041b6:	bf8a      	itet	hi
 80041b8:	3b28      	subhi	r3, #40	; 0x28
 80041ba:	2300      	movls	r3, #0
 80041bc:	b29b      	uxthhi	r3, r3
 80041be:	429c      	cmp	r4, r3
 80041c0:	bf28      	it	cs
 80041c2:	461c      	movcs	r4, r3
 80041c4:	4620      	mov	r0, r4
 80041c6:	bd38      	pop	{r3, r4, r5, pc}
 80041c8:	0800b66b 	.word	0x0800b66b
 80041cc:	0800b767 	.word	0x0800b767
 80041d0:	0800af68 	.word	0x0800af68

080041d4 <tcp_free_ooseq>:
 80041d4:	b510      	push	{r4, lr}
 80041d6:	4604      	mov	r4, r0
 80041d8:	6f40      	ldr	r0, [r0, #116]	; 0x74
 80041da:	b118      	cbz	r0, 80041e4 <tcp_free_ooseq+0x10>
 80041dc:	f7ff ff96 	bl	800410c <tcp_segs_free>
 80041e0:	2300      	movs	r3, #0
 80041e2:	6763      	str	r3, [r4, #116]	; 0x74
 80041e4:	bd10      	pop	{r4, pc}
	...

080041e8 <tcp_pcb_purge>:
 80041e8:	b510      	push	{r4, lr}
 80041ea:	4604      	mov	r4, r0
 80041ec:	b940      	cbnz	r0, 8004200 <tcp_pcb_purge+0x18>
 80041ee:	4b14      	ldr	r3, [pc, #80]	; (8004240 <tcp_pcb_purge+0x58>)
 80041f0:	f640 0251 	movw	r2, #2129	; 0x851
 80041f4:	4913      	ldr	r1, [pc, #76]	; (8004244 <tcp_pcb_purge+0x5c>)
 80041f6:	4814      	ldr	r0, [pc, #80]	; (8004248 <tcp_pcb_purge+0x60>)
 80041f8:	e8bd 4010 	ldmia.w	sp!, {r4, lr}
 80041fc:	f005 be36 	b.w	8009e6c <iprintf>
 8004200:	7d03      	ldrb	r3, [r0, #20]
 8004202:	2b01      	cmp	r3, #1
 8004204:	d91a      	bls.n	800423c <tcp_pcb_purge+0x54>
 8004206:	2b0a      	cmp	r3, #10
 8004208:	d018      	beq.n	800423c <tcp_pcb_purge+0x54>
 800420a:	6f80      	ldr	r0, [r0, #120]	; 0x78
 800420c:	b118      	cbz	r0, 8004216 <tcp_pcb_purge+0x2e>
 800420e:	f7ff fc27 	bl	8003a60 <pbuf_free>
 8004212:	2300      	movs	r3, #0
 8004214:	67a3      	str	r3, [r4, #120]	; 0x78
 8004216:	6f63      	ldr	r3, [r4, #116]	; 0x74
 8004218:	b113      	cbz	r3, 8004220 <tcp_pcb_purge+0x38>
 800421a:	4620      	mov	r0, r4
 800421c:	f7ff ffda 	bl	80041d4 <tcp_free_ooseq>
 8004220:	f64f 73ff 	movw	r3, #65535	; 0xffff
 8004224:	6ee0      	ldr	r0, [r4, #108]	; 0x6c
 8004226:	8623      	strh	r3, [r4, #48]	; 0x30
 8004228:	f7ff ff70 	bl	800410c <tcp_segs_free>
 800422c:	6f20      	ldr	r0, [r4, #112]	; 0x70
 800422e:	f7ff ff6d 	bl	800410c <tcp_segs_free>
 8004232:	2300      	movs	r3, #0
 8004234:	e9c4 331b 	strd	r3, r3, [r4, #108]	; 0x6c
 8004238:	f8a4 3068 	strh.w	r3, [r4, #104]	; 0x68
 800423c:	bd10      	pop	{r4, pc}
 800423e:	bf00      	nop
 8004240:	0800b66b 	.word	0x0800b66b
 8004244:	0800b78e 	.word	0x0800b78e
 8004248:	0800af68 	.word	0x0800af68

0800424c <tcp_pcb_remove>:
 800424c:	b538      	push	{r3, r4, r5, lr}
 800424e:	4605      	mov	r5, r0
 8004250:	460c      	mov	r4, r1
 8004252:	b931      	cbnz	r1, 8004262 <tcp_pcb_remove+0x16>
 8004254:	4b29      	ldr	r3, [pc, #164]	; (80042fc <tcp_pcb_remove+0xb0>)
 8004256:	f640 0283 	movw	r2, #2179	; 0x883
 800425a:	4929      	ldr	r1, [pc, #164]	; (8004300 <tcp_pcb_remove+0xb4>)
 800425c:	4829      	ldr	r0, [pc, #164]	; (8004304 <tcp_pcb_remove+0xb8>)
 800425e:	f005 fe05 	bl	8009e6c <iprintf>
 8004262:	b935      	cbnz	r5, 8004272 <tcp_pcb_remove+0x26>
 8004264:	4b25      	ldr	r3, [pc, #148]	; (80042fc <tcp_pcb_remove+0xb0>)
 8004266:	f640 0284 	movw	r2, #2180	; 0x884
 800426a:	4927      	ldr	r1, [pc, #156]	; (8004308 <tcp_pcb_remove+0xbc>)
 800426c:	4825      	ldr	r0, [pc, #148]	; (8004304 <tcp_pcb_remove+0xb8>)
 800426e:	f005 fdfd 	bl	8009e6c <iprintf>
 8004272:	682b      	ldr	r3, [r5, #0]
 8004274:	42a3      	cmp	r3, r4
 8004276:	d11f      	bne.n	80042b8 <tcp_pcb_remove+0x6c>
 8004278:	68e3      	ldr	r3, [r4, #12]
 800427a:	602b      	str	r3, [r5, #0]
 800427c:	2300      	movs	r3, #0
 800427e:	4620      	mov	r0, r4
 8004280:	60e3      	str	r3, [r4, #12]
 8004282:	f7ff ffb1 	bl	80041e8 <tcp_pcb_purge>
 8004286:	7d23      	ldrb	r3, [r4, #20]
 8004288:	2b0a      	cmp	r3, #10
 800428a:	d11d      	bne.n	80042c8 <tcp_pcb_remove+0x7c>
 800428c:	6ee3      	ldr	r3, [r4, #108]	; 0x6c
 800428e:	bb6b      	cbnz	r3, 80042ec <tcp_pcb_remove+0xa0>
 8004290:	6f23      	ldr	r3, [r4, #112]	; 0x70
 8004292:	b133      	cbz	r3, 80042a2 <tcp_pcb_remove+0x56>
 8004294:	4b19      	ldr	r3, [pc, #100]	; (80042fc <tcp_pcb_remove+0xb0>)
 8004296:	f640 0294 	movw	r2, #2196	; 0x894
 800429a:	491c      	ldr	r1, [pc, #112]	; (800430c <tcp_pcb_remove+0xc0>)
 800429c:	4819      	ldr	r0, [pc, #100]	; (8004304 <tcp_pcb_remove+0xb8>)
 800429e:	f005 fde5 	bl	8009e6c <iprintf>
 80042a2:	6f63      	ldr	r3, [r4, #116]	; 0x74
 80042a4:	b1f3      	cbz	r3, 80042e4 <tcp_pcb_remove+0x98>
 80042a6:	4b15      	ldr	r3, [pc, #84]	; (80042fc <tcp_pcb_remove+0xb0>)
 80042a8:	f640 0296 	movw	r2, #2198	; 0x896
 80042ac:	4918      	ldr	r1, [pc, #96]	; (8004310 <tcp_pcb_remove+0xc4>)
 80042ae:	4815      	ldr	r0, [pc, #84]	; (8004304 <tcp_pcb_remove+0xb8>)
 80042b0:	f005 fddc 	bl	8009e6c <iprintf>
 80042b4:	e016      	b.n	80042e4 <tcp_pcb_remove+0x98>
 80042b6:	4613      	mov	r3, r2
 80042b8:	2b00      	cmp	r3, #0
 80042ba:	d0df      	beq.n	800427c <tcp_pcb_remove+0x30>
 80042bc:	68da      	ldr	r2, [r3, #12]
 80042be:	42a2      	cmp	r2, r4
 80042c0:	d1f9      	bne.n	80042b6 <tcp_pcb_remove+0x6a>
 80042c2:	68e2      	ldr	r2, [r4, #12]
 80042c4:	60da      	str	r2, [r3, #12]
 80042c6:	e7d9      	b.n	800427c <tcp_pcb_remove+0x30>
 80042c8:	2b01      	cmp	r3, #1
 80042ca:	d00b      	beq.n	80042e4 <tcp_pcb_remove+0x98>
 80042cc:	8b63      	ldrh	r3, [r4, #26]
 80042ce:	07da      	lsls	r2, r3, #31
 80042d0:	d5dc      	bpl.n	800428c <tcp_pcb_remove+0x40>
 80042d2:	f043 0302 	orr.w	r3, r3, #2
 80042d6:	4620      	mov	r0, r4
 80042d8:	8363      	strh	r3, [r4, #26]
 80042da:	f002 fc2d 	bl	8006b38 <tcp_output>
 80042de:	7d23      	ldrb	r3, [r4, #20]
 80042e0:	2b01      	cmp	r3, #1
 80042e2:	d1d3      	bne.n	800428c <tcp_pcb_remove+0x40>
 80042e4:	2300      	movs	r3, #0
 80042e6:	7523      	strb	r3, [r4, #20]
 80042e8:	82e3      	strh	r3, [r4, #22]
 80042ea:	bd38      	pop	{r3, r4, r5, pc}
 80042ec:	4b03      	ldr	r3, [pc, #12]	; (80042fc <tcp_pcb_remove+0xb0>)
 80042ee:	f640 0293 	movw	r2, #2195	; 0x893
 80042f2:	4908      	ldr	r1, [pc, #32]	; (8004314 <tcp_pcb_remove+0xc8>)
 80042f4:	4803      	ldr	r0, [pc, #12]	; (8004304 <tcp_pcb_remove+0xb8>)
 80042f6:	f005 fdb9 	bl	8009e6c <iprintf>
 80042fa:	e7c9      	b.n	8004290 <tcp_pcb_remove+0x44>
 80042fc:	0800b66b 	.word	0x0800b66b
 8004300:	0800b7a9 	.word	0x0800b7a9
 8004304:	0800af68 	.word	0x0800af68
 8004308:	0800b7c5 	.word	0x0800b7c5
 800430c:	0800b7fd 	.word	0x0800b7fd
 8004310:	0800b816 	.word	0x0800b816
 8004314:	0800b7e5 	.word	0x0800b7e5

08004318 <tcp_abandon>:
 8004318:	e92d 47ff 	stmdb	sp!, {r0, r1, r2, r3, r4, r5, r6, r7, r8, r9, sl, lr}
 800431c:	460e      	mov	r6, r1
 800431e:	4604      	mov	r4, r0
 8004320:	b948      	cbnz	r0, 8004336 <tcp_abandon+0x1e>
 8004322:	4b36      	ldr	r3, [pc, #216]	; (80043fc <tcp_abandon+0xe4>)
 8004324:	f240 223d 	movw	r2, #573	; 0x23d
 8004328:	4935      	ldr	r1, [pc, #212]	; (8004400 <tcp_abandon+0xe8>)
 800432a:	4836      	ldr	r0, [pc, #216]	; (8004404 <tcp_abandon+0xec>)
 800432c:	b004      	add	sp, #16
 800432e:	e8bd 47f0 	ldmia.w	sp!, {r4, r5, r6, r7, r8, r9, sl, lr}
 8004332:	f005 bd9b 	b.w	8009e6c <iprintf>
 8004336:	7d03      	ldrb	r3, [r0, #20]
 8004338:	2b01      	cmp	r3, #1
 800433a:	d106      	bne.n	800434a <tcp_abandon+0x32>
 800433c:	4b2f      	ldr	r3, [pc, #188]	; (80043fc <tcp_abandon+0xe4>)
 800433e:	f44f 7210 	mov.w	r2, #576	; 0x240
 8004342:	4931      	ldr	r1, [pc, #196]	; (8004408 <tcp_abandon+0xf0>)
 8004344:	482f      	ldr	r0, [pc, #188]	; (8004404 <tcp_abandon+0xec>)
 8004346:	f005 fd91 	bl	8009e6c <iprintf>
 800434a:	7d23      	ldrb	r3, [r4, #20]
 800434c:	2b0a      	cmp	r3, #10
 800434e:	d109      	bne.n	8004364 <tcp_abandon+0x4c>
 8004350:	4621      	mov	r1, r4
 8004352:	482e      	ldr	r0, [pc, #184]	; (800440c <tcp_abandon+0xf4>)
 8004354:	f7ff ff7a 	bl	800424c <tcp_pcb_remove>
 8004358:	4620      	mov	r0, r4
 800435a:	b004      	add	sp, #16
 800435c:	e8bd 47f0 	ldmia.w	sp!, {r4, r5, r6, r7, r8, r9, sl, lr}
 8004360:	f7ff be3a 	b.w	8003fd8 <tcp_free>
 8004364:	f8d4 9050 	ldr.w	r9, [r4, #80]	; 0x50
 8004368:	f8d4 a024 	ldr.w	sl, [r4, #36]	; 0x24
 800436c:	f8d4 7090 	ldr.w	r7, [r4, #144]	; 0x90
 8004370:	f8d4 8010 	ldr.w	r8, [r4, #16]
 8004374:	8ae5      	ldrh	r5, [r4, #22]
 8004376:	b99b      	cbnz	r3, 80043a0 <tcp_abandon+0x88>
 8004378:	b13d      	cbz	r5, 800438a <tcp_abandon+0x72>
 800437a:	4a25      	ldr	r2, [pc, #148]	; (8004410 <tcp_abandon+0xf8>)
 800437c:	6813      	ldr	r3, [r2, #0]
 800437e:	42a3      	cmp	r3, r4
 8004380:	d106      	bne.n	8004390 <tcp_abandon+0x78>
 8004382:	68e3      	ldr	r3, [r4, #12]
 8004384:	6013      	str	r3, [r2, #0]
 8004386:	2500      	movs	r5, #0
 8004388:	60e5      	str	r5, [r4, #12]
 800438a:	462e      	mov	r6, r5
 800438c:	e00f      	b.n	80043ae <tcp_abandon+0x96>
 800438e:	4613      	mov	r3, r2
 8004390:	2b00      	cmp	r3, #0
 8004392:	d0f8      	beq.n	8004386 <tcp_abandon+0x6e>
 8004394:	68da      	ldr	r2, [r3, #12]
 8004396:	42a2      	cmp	r2, r4
 8004398:	d1f9      	bne.n	800438e <tcp_abandon+0x76>
 800439a:	68e2      	ldr	r2, [r4, #12]
 800439c:	60da      	str	r2, [r3, #12]
 800439e:	e7f2      	b.n	8004386 <tcp_abandon+0x6e>
 80043a0:	4621      	mov	r1, r4
 80043a2:	481c      	ldr	r0, [pc, #112]	; (8004414 <tcp_abandon+0xfc>)
 80043a4:	f7ff ff52 	bl	800424c <tcp_pcb_remove>
 80043a8:	4b1b      	ldr	r3, [pc, #108]	; (8004418 <tcp_abandon+0x100>)
 80043aa:	2201      	movs	r2, #1
 80043ac:	701a      	strb	r2, [r3, #0]
 80043ae:	6f20      	ldr	r0, [r4, #112]	; 0x70
 80043b0:	b108      	cbz	r0, 80043b6 <tcp_abandon+0x9e>
 80043b2:	f7ff feab 	bl	800410c <tcp_segs_free>
 80043b6:	6ee0      	ldr	r0, [r4, #108]	; 0x6c
 80043b8:	b108      	cbz	r0, 80043be <tcp_abandon+0xa6>
 80043ba:	f7ff fea7 	bl	800410c <tcp_segs_free>
 80043be:	6f60      	ldr	r0, [r4, #116]	; 0x74
 80043c0:	b108      	cbz	r0, 80043c6 <tcp_abandon+0xae>
 80043c2:	f7ff fea3 	bl	800410c <tcp_segs_free>
 80043c6:	b156      	cbz	r6, 80043de <tcp_abandon+0xc6>
 80043c8:	8b23      	ldrh	r3, [r4, #24]
 80043ca:	4652      	mov	r2, sl
 80043cc:	4649      	mov	r1, r9
 80043ce:	4620      	mov	r0, r4
 80043d0:	e9cd 5301 	strd	r5, r3, [sp, #4]
 80043d4:	1d23      	adds	r3, r4, #4
 80043d6:	9300      	str	r3, [sp, #0]
 80043d8:	4623      	mov	r3, r4
 80043da:	f002 fb35 	bl	8006a48 <tcp_rst>
 80043de:	4620      	mov	r0, r4
 80043e0:	f7ff fdfa 	bl	8003fd8 <tcp_free>
 80043e4:	b13f      	cbz	r7, 80043f6 <tcp_abandon+0xde>
 80043e6:	f06f 010c 	mvn.w	r1, #12
 80043ea:	4640      	mov	r0, r8
 80043ec:	463b      	mov	r3, r7
 80043ee:	b004      	add	sp, #16
 80043f0:	e8bd 47f0 	ldmia.w	sp!, {r4, r5, r6, r7, r8, r9, sl, lr}
 80043f4:	4718      	bx	r3
 80043f6:	b004      	add	sp, #16
 80043f8:	e8bd 87f0 	ldmia.w	sp!, {r4, r5, r6, r7, r8, r9, sl, pc}
 80043fc:	0800b66b 	.word	0x0800b66b
 8004400:	0800b82d 	.word	0x0800b82d
 8004404:	0800af68 	.word	0x0800af68
 8004408:	0800b846 	.word	0x0800b846
 800440c:	20005d10 	.word	0x20005d10
 8004410:	20005d00 	.word	0x20005d00
 8004414:	20005cf8 	.word	0x20005cf8
 8004418:	20005cfc 	.word	0x20005cfc

0800441c <tcp_abort>:
 800441c:	2101      	movs	r1, #1
 800441e:	f7ff bf7b 	b.w	8004318 <tcp_abandon>
	...

08004424 <tcp_netif_ip_addr_changed_pcblist>:
 8004424:	b570      	push	{r4, r5, r6, lr}
 8004426:	460c      	mov	r4, r1
 8004428:	4605      	mov	r5, r0
 800442a:	b930      	cbnz	r0, 800443a <tcp_netif_ip_addr_changed_pcblist+0x16>
 800442c:	4b09      	ldr	r3, [pc, #36]	; (8004454 <tcp_netif_ip_addr_changed_pcblist+0x30>)
 800442e:	f44f 6210 	mov.w	r2, #2304	; 0x900
 8004432:	4909      	ldr	r1, [pc, #36]	; (8004458 <tcp_netif_ip_addr_changed_pcblist+0x34>)
 8004434:	4809      	ldr	r0, [pc, #36]	; (800445c <tcp_netif_ip_addr_changed_pcblist+0x38>)
 8004436:	f005 fd19 	bl	8009e6c <iprintf>
 800443a:	b904      	cbnz	r4, 800443e <tcp_netif_ip_addr_changed_pcblist+0x1a>
 800443c:	bd70      	pop	{r4, r5, r6, pc}
 800443e:	6822      	ldr	r2, [r4, #0]
 8004440:	682b      	ldr	r3, [r5, #0]
 8004442:	68e6      	ldr	r6, [r4, #12]
 8004444:	429a      	cmp	r2, r3
 8004446:	d102      	bne.n	800444e <tcp_netif_ip_addr_changed_pcblist+0x2a>
 8004448:	4620      	mov	r0, r4
 800444a:	f7ff ffe7 	bl	800441c <tcp_abort>
 800444e:	4634      	mov	r4, r6
 8004450:	e7f3      	b.n	800443a <tcp_netif_ip_addr_changed_pcblist+0x16>
 8004452:	bf00      	nop
 8004454:	0800b66b 	.word	0x0800b66b
 8004458:	0800b877 	.word	0x0800b877
 800445c:	0800af68 	.word	0x0800af68

08004460 <tcp_netif_ip_addr_changed>:
 8004460:	b538      	push	{r3, r4, r5, lr}
 8004462:	460d      	mov	r5, r1
 8004464:	4604      	mov	r4, r0
 8004466:	b180      	cbz	r0, 800448a <tcp_netif_ip_addr_changed+0x2a>
 8004468:	6803      	ldr	r3, [r0, #0]
 800446a:	b173      	cbz	r3, 800448a <tcp_netif_ip_addr_changed+0x2a>
 800446c:	4b0b      	ldr	r3, [pc, #44]	; (800449c <tcp_netif_ip_addr_changed+0x3c>)
 800446e:	6819      	ldr	r1, [r3, #0]
 8004470:	f7ff ffd8 	bl	8004424 <tcp_netif_ip_addr_changed_pcblist>
 8004474:	4b0a      	ldr	r3, [pc, #40]	; (80044a0 <tcp_netif_ip_addr_changed+0x40>)
 8004476:	4620      	mov	r0, r4
 8004478:	6819      	ldr	r1, [r3, #0]
 800447a:	f7ff ffd3 	bl	8004424 <tcp_netif_ip_addr_changed_pcblist>
 800447e:	b125      	cbz	r5, 800448a <tcp_netif_ip_addr_changed+0x2a>
 8004480:	682b      	ldr	r3, [r5, #0]
 8004482:	b113      	cbz	r3, 800448a <tcp_netif_ip_addr_changed+0x2a>
 8004484:	4b07      	ldr	r3, [pc, #28]	; (80044a4 <tcp_netif_ip_addr_changed+0x44>)
 8004486:	681b      	ldr	r3, [r3, #0]
 8004488:	b903      	cbnz	r3, 800448c <tcp_netif_ip_addr_changed+0x2c>
 800448a:	bd38      	pop	{r3, r4, r5, pc}
 800448c:	6819      	ldr	r1, [r3, #0]
 800448e:	6822      	ldr	r2, [r4, #0]
 8004490:	4291      	cmp	r1, r2
 8004492:	bf04      	itt	eq
 8004494:	682a      	ldreq	r2, [r5, #0]
 8004496:	601a      	streq	r2, [r3, #0]
 8004498:	68db      	ldr	r3, [r3, #12]
 800449a:	e7f5      	b.n	8004488 <tcp_netif_ip_addr_changed+0x28>
 800449c:	20005cf8 	.word	0x20005cf8
 80044a0:	20005d00 	.word	0x20005d00
 80044a4:	20005d04 	.word	0x20005d04

080044a8 <tcp_kill_state>:
 80044a8:	4b0c      	ldr	r3, [pc, #48]	; (80044dc <tcp_kill_state+0x34>)
 80044aa:	2200      	movs	r2, #0
 80044ac:	6819      	ldr	r1, [r3, #0]
 80044ae:	4b0c      	ldr	r3, [pc, #48]	; (80044e0 <tcp_kill_state+0x38>)
 80044b0:	b430      	push	{r4, r5}
 80044b2:	4604      	mov	r4, r0
 80044b4:	681d      	ldr	r5, [r3, #0]
 80044b6:	4610      	mov	r0, r2
 80044b8:	b919      	cbnz	r1, 80044c2 <tcp_kill_state+0x1a>
 80044ba:	b168      	cbz	r0, 80044d8 <tcp_kill_state+0x30>
 80044bc:	bc30      	pop	{r4, r5}
 80044be:	f7ff bf2b 	b.w	8004318 <tcp_abandon>
 80044c2:	7d0b      	ldrb	r3, [r1, #20]
 80044c4:	42a3      	cmp	r3, r4
 80044c6:	d105      	bne.n	80044d4 <tcp_kill_state+0x2c>
 80044c8:	6a0b      	ldr	r3, [r1, #32]
 80044ca:	1aeb      	subs	r3, r5, r3
 80044cc:	4293      	cmp	r3, r2
 80044ce:	bf24      	itt	cs
 80044d0:	461a      	movcs	r2, r3
 80044d2:	4608      	movcs	r0, r1
 80044d4:	68c9      	ldr	r1, [r1, #12]
 80044d6:	e7ef      	b.n	80044b8 <tcp_kill_state+0x10>
 80044d8:	bc30      	pop	{r4, r5}
 80044da:	4770      	bx	lr
 80044dc:	20005cf8 	.word	0x20005cf8
 80044e0:	20005d08 	.word	0x20005d08

080044e4 <tcp_alloc>:
 80044e4:	b5f8      	push	{r3, r4, r5, r6, r7, lr}
 80044e6:	4604      	mov	r4, r0
 80044e8:	2001      	movs	r0, #1
 80044ea:	f7ff f867 	bl	80035bc <memp_malloc>
 80044ee:	4603      	mov	r3, r0
 80044f0:	2800      	cmp	r0, #0
 80044f2:	d136      	bne.n	8004562 <tcp_alloc+0x7e>
 80044f4:	4e3f      	ldr	r6, [pc, #252]	; (80045f4 <tcp_alloc+0x110>)
 80044f6:	6830      	ldr	r0, [r6, #0]
 80044f8:	2800      	cmp	r0, #0
 80044fa:	d157      	bne.n	80045ac <tcp_alloc+0xc8>
 80044fc:	4b3e      	ldr	r3, [pc, #248]	; (80045f8 <tcp_alloc+0x114>)
 80044fe:	4601      	mov	r1, r0
 8004500:	4d3e      	ldr	r5, [pc, #248]	; (80045fc <tcp_alloc+0x118>)
 8004502:	681b      	ldr	r3, [r3, #0]
 8004504:	682f      	ldr	r7, [r5, #0]
 8004506:	2b00      	cmp	r3, #0
 8004508:	d15b      	bne.n	80045c2 <tcp_alloc+0xde>
 800450a:	b108      	cbz	r0, 8004510 <tcp_alloc+0x2c>
 800450c:	f7ff ff86 	bl	800441c <tcp_abort>
 8004510:	2001      	movs	r0, #1
 8004512:	f7ff f853 	bl	80035bc <memp_malloc>
 8004516:	4603      	mov	r3, r0
 8004518:	bb18      	cbnz	r0, 8004562 <tcp_alloc+0x7e>
 800451a:	2009      	movs	r0, #9
 800451c:	f7ff ffc4 	bl	80044a8 <tcp_kill_state>
 8004520:	2001      	movs	r0, #1
 8004522:	f7ff f84b 	bl	80035bc <memp_malloc>
 8004526:	4603      	mov	r3, r0
 8004528:	b9d8      	cbnz	r0, 8004562 <tcp_alloc+0x7e>
 800452a:	2008      	movs	r0, #8
 800452c:	f7ff ffbc 	bl	80044a8 <tcp_kill_state>
 8004530:	2001      	movs	r0, #1
 8004532:	f7ff f843 	bl	80035bc <memp_malloc>
 8004536:	4603      	mov	r3, r0
 8004538:	b998      	cbnz	r0, 8004562 <tcp_alloc+0x7e>
 800453a:	0622      	lsls	r2, r4, #24
 800453c:	d449      	bmi.n	80045d2 <tcp_alloc+0xee>
 800453e:	b15c      	cbz	r4, 8004558 <tcp_alloc+0x74>
 8004540:	4621      	mov	r1, r4
 8004542:	3901      	subs	r1, #1
 8004544:	6832      	ldr	r2, [r6, #0]
 8004546:	2000      	movs	r0, #0
 8004548:	682e      	ldr	r6, [r5, #0]
 800454a:	b2c9      	uxtb	r1, r1
 800454c:	2a00      	cmp	r2, #0
 800454e:	d142      	bne.n	80045d6 <tcp_alloc+0xf2>
 8004550:	b113      	cbz	r3, 8004558 <tcp_alloc+0x74>
 8004552:	4618      	mov	r0, r3
 8004554:	f7ff ff62 	bl	800441c <tcp_abort>
 8004558:	2001      	movs	r0, #1
 800455a:	f7ff f82f 	bl	80035bc <memp_malloc>
 800455e:	4603      	mov	r3, r0
 8004560:	b310      	cbz	r0, 80045a8 <tcp_alloc+0xc4>
 8004562:	229c      	movs	r2, #156	; 0x9c
 8004564:	4618      	mov	r0, r3
 8004566:	2100      	movs	r1, #0
 8004568:	f005 fc78 	bl	8009e5c <memset>
 800456c:	f44f 6286 	mov.w	r2, #1072	; 0x430
 8004570:	4603      	mov	r3, r0
 8004572:	7544      	strb	r4, [r0, #21]
 8004574:	f8a0 2064 	strh.w	r2, [r0, #100]	; 0x64
 8004578:	4a21      	ldr	r2, [pc, #132]	; (8004600 <tcp_alloc+0x11c>)
 800457a:	6282      	str	r2, [r0, #40]	; 0x28
 800457c:	22ff      	movs	r2, #255	; 0xff
 800457e:	72c2      	strb	r2, [r0, #11]
 8004580:	2206      	movs	r2, #6
 8004582:	f8a0 2040 	strh.w	r2, [r0, #64]	; 0x40
 8004586:	87c2      	strh	r2, [r0, #62]	; 0x3e
 8004588:	4a1e      	ldr	r2, [pc, #120]	; (8004604 <tcp_alloc+0x120>)
 800458a:	6302      	str	r2, [r0, #48]	; 0x30
 800458c:	4a1b      	ldr	r2, [pc, #108]	; (80045fc <tcp_alloc+0x118>)
 800458e:	6812      	ldr	r2, [r2, #0]
 8004590:	6202      	str	r2, [r0, #32]
 8004592:	4a1d      	ldr	r2, [pc, #116]	; (8004608 <tcp_alloc+0x124>)
 8004594:	7812      	ldrb	r2, [r2, #0]
 8004596:	7782      	strb	r2, [r0, #30]
 8004598:	4a1c      	ldr	r2, [pc, #112]	; (800460c <tcp_alloc+0x128>)
 800459a:	6482      	str	r2, [r0, #72]	; 0x48
 800459c:	4a1c      	ldr	r2, [pc, #112]	; (8004610 <tcp_alloc+0x12c>)
 800459e:	f8c0 2084 	str.w	r2, [r0, #132]	; 0x84
 80045a2:	4a1c      	ldr	r2, [pc, #112]	; (8004614 <tcp_alloc+0x130>)
 80045a4:	f8c0 2094 	str.w	r2, [r0, #148]	; 0x94
 80045a8:	4618      	mov	r0, r3
 80045aa:	bdf8      	pop	{r3, r4, r5, r6, r7, pc}
 80045ac:	8b43      	ldrh	r3, [r0, #26]
 80045ae:	68c5      	ldr	r5, [r0, #12]
 80045b0:	0719      	lsls	r1, r3, #28
 80045b2:	d504      	bpl.n	80045be <tcp_alloc+0xda>
 80045b4:	f023 0308 	bic.w	r3, r3, #8
 80045b8:	8343      	strh	r3, [r0, #26]
 80045ba:	f7ff fcd1 	bl	8003f60 <tcp_close_shutdown_fin>
 80045be:	4628      	mov	r0, r5
 80045c0:	e79a      	b.n	80044f8 <tcp_alloc+0x14>
 80045c2:	6a1a      	ldr	r2, [r3, #32]
 80045c4:	1aba      	subs	r2, r7, r2
 80045c6:	428a      	cmp	r2, r1
 80045c8:	bf24      	itt	cs
 80045ca:	4618      	movcs	r0, r3
 80045cc:	4611      	movcs	r1, r2
 80045ce:	68db      	ldr	r3, [r3, #12]
 80045d0:	e799      	b.n	8004506 <tcp_alloc+0x22>
 80045d2:	217f      	movs	r1, #127	; 0x7f
 80045d4:	e7b5      	b.n	8004542 <tcp_alloc+0x5e>
 80045d6:	7d57      	ldrb	r7, [r2, #21]
 80045d8:	428f      	cmp	r7, r1
 80045da:	d304      	bcc.n	80045e6 <tcp_alloc+0x102>
 80045dc:	d107      	bne.n	80045ee <tcp_alloc+0x10a>
 80045de:	6a15      	ldr	r5, [r2, #32]
 80045e0:	1b75      	subs	r5, r6, r5
 80045e2:	4285      	cmp	r5, r0
 80045e4:	d303      	bcc.n	80045ee <tcp_alloc+0x10a>
 80045e6:	6a10      	ldr	r0, [r2, #32]
 80045e8:	4639      	mov	r1, r7
 80045ea:	4613      	mov	r3, r2
 80045ec:	1a30      	subs	r0, r6, r0
 80045ee:	68d2      	ldr	r2, [r2, #12]
 80045f0:	e7ac      	b.n	800454c <tcp_alloc+0x68>
 80045f2:	bf00      	nop
 80045f4:	20005cf8 	.word	0x20005cf8
 80045f8:	20005d10 	.word	0x20005d10
 80045fc:	20005d08 	.word	0x20005d08
 8004600:	08600860 	.word	0x08600860
 8004604:	0218ffff 	.word	0x0218ffff
 8004608:	20005d0d 	.word	0x20005d0d
 800460c:	04300001 	.word	0x04300001
 8004610:	080047b9 	.word	0x080047b9
 8004614:	006ddd00 	.word	0x006ddd00

08004618 <tcp_close_shutdown>:
 8004618:	b530      	push	{r4, r5, lr}
 800461a:	460d      	mov	r5, r1
 800461c:	b085      	sub	sp, #20
 800461e:	4604      	mov	r4, r0
 8004620:	b930      	cbnz	r0, 8004630 <tcp_close_shutdown+0x18>
 8004622:	4b4b      	ldr	r3, [pc, #300]	; (8004750 <tcp_close_shutdown+0x138>)
 8004624:	f44f 72af 	mov.w	r2, #350	; 0x15e
 8004628:	494a      	ldr	r1, [pc, #296]	; (8004754 <tcp_close_shutdown+0x13c>)
 800462a:	484b      	ldr	r0, [pc, #300]	; (8004758 <tcp_close_shutdown+0x140>)
 800462c:	f005 fc1e 	bl	8009e6c <iprintf>
 8004630:	7d23      	ldrb	r3, [r4, #20]
 8004632:	2d00      	cmp	r5, #0
 8004634:	d03f      	beq.n	80046b6 <tcp_close_shutdown+0x9e>
 8004636:	2b04      	cmp	r3, #4
 8004638:	d001      	beq.n	800463e <tcp_close_shutdown+0x26>
 800463a:	2b07      	cmp	r3, #7
 800463c:	d13b      	bne.n	80046b6 <tcp_close_shutdown+0x9e>
 800463e:	6fa2      	ldr	r2, [r4, #120]	; 0x78
 8004640:	b91a      	cbnz	r2, 800464a <tcp_close_shutdown+0x32>
 8004642:	8d22      	ldrh	r2, [r4, #40]	; 0x28
 8004644:	f5b2 6f06 	cmp.w	r2, #2144	; 0x860
 8004648:	d035      	beq.n	80046b6 <tcp_close_shutdown+0x9e>
 800464a:	8b63      	ldrh	r3, [r4, #26]
 800464c:	06db      	lsls	r3, r3, #27
 800464e:	d406      	bmi.n	800465e <tcp_close_shutdown+0x46>
 8004650:	4b3f      	ldr	r3, [pc, #252]	; (8004750 <tcp_close_shutdown+0x138>)
 8004652:	f44f 72b2 	mov.w	r2, #356	; 0x164
 8004656:	4941      	ldr	r1, [pc, #260]	; (800475c <tcp_close_shutdown+0x144>)
 8004658:	483f      	ldr	r0, [pc, #252]	; (8004758 <tcp_close_shutdown+0x140>)
 800465a:	f005 fc07 	bl	8009e6c <iprintf>
 800465e:	8b23      	ldrh	r3, [r4, #24]
 8004660:	4620      	mov	r0, r4
 8004662:	9302      	str	r3, [sp, #8]
 8004664:	8ae3      	ldrh	r3, [r4, #22]
 8004666:	9301      	str	r3, [sp, #4]
 8004668:	1d23      	adds	r3, r4, #4
 800466a:	9300      	str	r3, [sp, #0]
 800466c:	4623      	mov	r3, r4
 800466e:	6a62      	ldr	r2, [r4, #36]	; 0x24
 8004670:	6d21      	ldr	r1, [r4, #80]	; 0x50
 8004672:	f002 f9e9 	bl	8006a48 <tcp_rst>
 8004676:	4620      	mov	r0, r4
 8004678:	f7ff fdb6 	bl	80041e8 <tcp_pcb_purge>
 800467c:	4a38      	ldr	r2, [pc, #224]	; (8004760 <tcp_close_shutdown+0x148>)
 800467e:	6813      	ldr	r3, [r2, #0]
 8004680:	42a3      	cmp	r3, r4
 8004682:	d110      	bne.n	80046a6 <tcp_close_shutdown+0x8e>
 8004684:	68e3      	ldr	r3, [r4, #12]
 8004686:	6013      	str	r3, [r2, #0]
 8004688:	2300      	movs	r3, #0
 800468a:	2201      	movs	r2, #1
 800468c:	60e3      	str	r3, [r4, #12]
 800468e:	4b35      	ldr	r3, [pc, #212]	; (8004764 <tcp_close_shutdown+0x14c>)
 8004690:	701a      	strb	r2, [r3, #0]
 8004692:	4b35      	ldr	r3, [pc, #212]	; (8004768 <tcp_close_shutdown+0x150>)
 8004694:	681b      	ldr	r3, [r3, #0]
 8004696:	42a3      	cmp	r3, r4
 8004698:	d11d      	bne.n	80046d6 <tcp_close_shutdown+0xbe>
 800469a:	f001 fe4d 	bl	8006338 <tcp_trigger_input_pcb_close>
 800469e:	2000      	movs	r0, #0
 80046a0:	b005      	add	sp, #20
 80046a2:	bd30      	pop	{r4, r5, pc}
 80046a4:	4613      	mov	r3, r2
 80046a6:	2b00      	cmp	r3, #0
 80046a8:	d0ee      	beq.n	8004688 <tcp_close_shutdown+0x70>
 80046aa:	68da      	ldr	r2, [r3, #12]
 80046ac:	42a2      	cmp	r2, r4
 80046ae:	d1f9      	bne.n	80046a4 <tcp_close_shutdown+0x8c>
 80046b0:	68e2      	ldr	r2, [r4, #12]
 80046b2:	60da      	str	r2, [r3, #12]
 80046b4:	e7e8      	b.n	8004688 <tcp_close_shutdown+0x70>
 80046b6:	2b01      	cmp	r3, #1
 80046b8:	d01a      	beq.n	80046f0 <tcp_close_shutdown+0xd8>
 80046ba:	2b02      	cmp	r3, #2
 80046bc:	d039      	beq.n	8004732 <tcp_close_shutdown+0x11a>
 80046be:	2b00      	cmp	r3, #0
 80046c0:	d13f      	bne.n	8004742 <tcp_close_shutdown+0x12a>
 80046c2:	8ae3      	ldrh	r3, [r4, #22]
 80046c4:	b13b      	cbz	r3, 80046d6 <tcp_close_shutdown+0xbe>
 80046c6:	4a29      	ldr	r2, [pc, #164]	; (800476c <tcp_close_shutdown+0x154>)
 80046c8:	6813      	ldr	r3, [r2, #0]
 80046ca:	42a3      	cmp	r3, r4
 80046cc:	d108      	bne.n	80046e0 <tcp_close_shutdown+0xc8>
 80046ce:	68e3      	ldr	r3, [r4, #12]
 80046d0:	6013      	str	r3, [r2, #0]
 80046d2:	2300      	movs	r3, #0
 80046d4:	60e3      	str	r3, [r4, #12]
 80046d6:	4620      	mov	r0, r4
 80046d8:	f7ff fc7e 	bl	8003fd8 <tcp_free>
 80046dc:	e7df      	b.n	800469e <tcp_close_shutdown+0x86>
 80046de:	4613      	mov	r3, r2
 80046e0:	2b00      	cmp	r3, #0
 80046e2:	d0f6      	beq.n	80046d2 <tcp_close_shutdown+0xba>
 80046e4:	68da      	ldr	r2, [r3, #12]
 80046e6:	42a2      	cmp	r2, r4
 80046e8:	d1f9      	bne.n	80046de <tcp_close_shutdown+0xc6>
 80046ea:	68e2      	ldr	r2, [r4, #12]
 80046ec:	60da      	str	r2, [r3, #12]
 80046ee:	e7f0      	b.n	80046d2 <tcp_close_shutdown+0xba>
 80046f0:	491f      	ldr	r1, [pc, #124]	; (8004770 <tcp_close_shutdown+0x158>)
 80046f2:	2000      	movs	r0, #0
 80046f4:	f851 2023 	ldr.w	r2, [r1, r3, lsl #2]
 80046f8:	6812      	ldr	r2, [r2, #0]
 80046fa:	b9a2      	cbnz	r2, 8004726 <tcp_close_shutdown+0x10e>
 80046fc:	3301      	adds	r3, #1
 80046fe:	2b04      	cmp	r3, #4
 8004700:	d1f8      	bne.n	80046f4 <tcp_close_shutdown+0xdc>
 8004702:	4621      	mov	r1, r4
 8004704:	481b      	ldr	r0, [pc, #108]	; (8004774 <tcp_close_shutdown+0x15c>)
 8004706:	f7ff fda1 	bl	800424c <tcp_pcb_remove>
 800470a:	7d23      	ldrb	r3, [r4, #20]
 800470c:	2b01      	cmp	r3, #1
 800470e:	d105      	bne.n	800471c <tcp_close_shutdown+0x104>
 8004710:	4b0f      	ldr	r3, [pc, #60]	; (8004750 <tcp_close_shutdown+0x138>)
 8004712:	22df      	movs	r2, #223	; 0xdf
 8004714:	4918      	ldr	r1, [pc, #96]	; (8004778 <tcp_close_shutdown+0x160>)
 8004716:	4810      	ldr	r0, [pc, #64]	; (8004758 <tcp_close_shutdown+0x140>)
 8004718:	f005 fba8 	bl	8009e6c <iprintf>
 800471c:	4621      	mov	r1, r4
 800471e:	2002      	movs	r0, #2
 8004720:	f7fe ff68 	bl	80035f4 <memp_free>
 8004724:	e7bb      	b.n	800469e <tcp_close_shutdown+0x86>
 8004726:	6fd5      	ldr	r5, [r2, #124]	; 0x7c
 8004728:	42ac      	cmp	r4, r5
 800472a:	bf08      	it	eq
 800472c:	67d0      	streq	r0, [r2, #124]	; 0x7c
 800472e:	68d2      	ldr	r2, [r2, #12]
 8004730:	e7e3      	b.n	80046fa <tcp_close_shutdown+0xe2>
 8004732:	4621      	mov	r1, r4
 8004734:	480a      	ldr	r0, [pc, #40]	; (8004760 <tcp_close_shutdown+0x148>)
 8004736:	f7ff fd89 	bl	800424c <tcp_pcb_remove>
 800473a:	4b0a      	ldr	r3, [pc, #40]	; (8004764 <tcp_close_shutdown+0x14c>)
 800473c:	2201      	movs	r2, #1
 800473e:	701a      	strb	r2, [r3, #0]
 8004740:	e7c9      	b.n	80046d6 <tcp_close_shutdown+0xbe>
 8004742:	4620      	mov	r0, r4
 8004744:	b005      	add	sp, #20
 8004746:	e8bd 4030 	ldmia.w	sp!, {r4, r5, lr}
 800474a:	f7ff bc09 	b.w	8003f60 <tcp_close_shutdown_fin>
 800474e:	bf00      	nop
 8004750:	0800b66b 	.word	0x0800b66b
 8004754:	0800b8ab 	.word	0x0800b8ab
 8004758:	0800af68 	.word	0x0800af68
 800475c:	0800b8cb 	.word	0x0800b8cb
 8004760:	20005cf8 	.word	0x20005cf8
 8004764:	20005cfc 	.word	0x20005cfc
 8004768:	20005d3c 	.word	0x20005d3c
 800476c:	20005d00 	.word	0x20005d00
 8004770:	0800bb1c 	.word	0x0800bb1c
 8004774:	20005d04 	.word	0x20005d04
 8004778:	0800b8e4 	.word	0x0800b8e4

0800477c <tcp_close>:
 800477c:	b508      	push	{r3, lr}
 800477e:	b158      	cbz	r0, 8004798 <tcp_close+0x1c>
 8004780:	7d03      	ldrb	r3, [r0, #20]
 8004782:	2101      	movs	r1, #1
 8004784:	2b01      	cmp	r3, #1
 8004786:	bf1e      	ittt	ne
 8004788:	8b43      	ldrhne	r3, [r0, #26]
 800478a:	f043 0310 	orrne.w	r3, r3, #16
 800478e:	8343      	strhne	r3, [r0, #26]
 8004790:	e8bd 4008 	ldmia.w	sp!, {r3, lr}
 8004794:	f7ff bf40 	b.w	8004618 <tcp_close_shutdown>
 8004798:	4b04      	ldr	r3, [pc, #16]	; (80047ac <tcp_close+0x30>)
 800479a:	f44f 72f4 	mov.w	r2, #488	; 0x1e8
 800479e:	4904      	ldr	r1, [pc, #16]	; (80047b0 <tcp_close+0x34>)
 80047a0:	4804      	ldr	r0, [pc, #16]	; (80047b4 <tcp_close+0x38>)
 80047a2:	f005 fb63 	bl	8009e6c <iprintf>
 80047a6:	f06f 000f 	mvn.w	r0, #15
 80047aa:	bd08      	pop	{r3, pc}
 80047ac:	0800b66b 	.word	0x0800b66b
 80047b0:	0800b8fd 	.word	0x0800b8fd
 80047b4:	0800af68 	.word	0x0800af68

080047b8 <tcp_recv_null>:
 80047b8:	b510      	push	{r4, lr}
 80047ba:	4608      	mov	r0, r1
 80047bc:	4614      	mov	r4, r2
 80047be:	b949      	cbnz	r1, 80047d4 <tcp_recv_null+0x1c>
 80047c0:	4b0c      	ldr	r3, [pc, #48]	; (80047f4 <tcp_recv_null+0x3c>)
 80047c2:	f44f 62d3 	mov.w	r2, #1688	; 0x698
 80047c6:	490c      	ldr	r1, [pc, #48]	; (80047f8 <tcp_recv_null+0x40>)
 80047c8:	480c      	ldr	r0, [pc, #48]	; (80047fc <tcp_recv_null+0x44>)
 80047ca:	f005 fb4f 	bl	8009e6c <iprintf>
 80047ce:	f06f 000f 	mvn.w	r0, #15
 80047d2:	bd10      	pop	{r4, pc}
 80047d4:	b13a      	cbz	r2, 80047e6 <tcp_recv_null+0x2e>
 80047d6:	8911      	ldrh	r1, [r2, #8]
 80047d8:	f7ff fc4c 	bl	8004074 <tcp_recved>
 80047dc:	4620      	mov	r0, r4
 80047de:	f7ff f93f 	bl	8003a60 <pbuf_free>
 80047e2:	2000      	movs	r0, #0
 80047e4:	e7f5      	b.n	80047d2 <tcp_recv_null+0x1a>
 80047e6:	b91b      	cbnz	r3, 80047f0 <tcp_recv_null+0x38>
 80047e8:	e8bd 4010 	ldmia.w	sp!, {r4, lr}
 80047ec:	f7ff bfc6 	b.w	800477c <tcp_close>
 80047f0:	4610      	mov	r0, r2
 80047f2:	e7ee      	b.n	80047d2 <tcp_recv_null+0x1a>
 80047f4:	0800b66b 	.word	0x0800b66b
 80047f8:	0800b914 	.word	0x0800b914
 80047fc:	0800af68 	.word	0x0800af68

08004800 <tcp_process_refused_data>:
 8004800:	b5f8      	push	{r3, r4, r5, r6, r7, lr}
 8004802:	4604      	mov	r4, r0
 8004804:	b950      	cbnz	r0, 800481c <tcp_process_refused_data+0x1c>
 8004806:	f06f 050f 	mvn.w	r5, #15
 800480a:	4b1c      	ldr	r3, [pc, #112]	; (800487c <tcp_process_refused_data+0x7c>)
 800480c:	f240 6209 	movw	r2, #1545	; 0x609
 8004810:	491b      	ldr	r1, [pc, #108]	; (8004880 <tcp_process_refused_data+0x80>)
 8004812:	481c      	ldr	r0, [pc, #112]	; (8004884 <tcp_process_refused_data+0x84>)
 8004814:	f005 fb2a 	bl	8009e6c <iprintf>
 8004818:	4628      	mov	r0, r5
 800481a:	bdf8      	pop	{r3, r4, r5, r6, r7, pc}
 800481c:	6f86      	ldr	r6, [r0, #120]	; 0x78
 800481e:	2300      	movs	r3, #0
 8004820:	f8d0 5084 	ldr.w	r5, [r0, #132]	; 0x84
 8004824:	7b77      	ldrb	r7, [r6, #13]
 8004826:	6783      	str	r3, [r0, #120]	; 0x78
 8004828:	b1dd      	cbz	r5, 8004862 <tcp_process_refused_data+0x62>
 800482a:	4601      	mov	r1, r0
 800482c:	4632      	mov	r2, r6
 800482e:	6900      	ldr	r0, [r0, #16]
 8004830:	47a8      	blx	r5
 8004832:	4605      	mov	r5, r0
 8004834:	b9e0      	cbnz	r0, 8004870 <tcp_process_refused_data+0x70>
 8004836:	06bb      	lsls	r3, r7, #26
 8004838:	d5ee      	bpl.n	8004818 <tcp_process_refused_data+0x18>
 800483a:	8d23      	ldrh	r3, [r4, #40]	; 0x28
 800483c:	f8d4 6084 	ldr.w	r6, [r4, #132]	; 0x84
 8004840:	f5b3 6f06 	cmp.w	r3, #2144	; 0x860
 8004844:	bf1c      	itt	ne
 8004846:	3301      	addne	r3, #1
 8004848:	8523      	strhne	r3, [r4, #40]	; 0x28
 800484a:	2e00      	cmp	r6, #0
 800484c:	d0e4      	beq.n	8004818 <tcp_process_refused_data+0x18>
 800484e:	2300      	movs	r3, #0
 8004850:	4621      	mov	r1, r4
 8004852:	6920      	ldr	r0, [r4, #16]
 8004854:	461a      	mov	r2, r3
 8004856:	47b0      	blx	r6
 8004858:	300d      	adds	r0, #13
 800485a:	d1dd      	bne.n	8004818 <tcp_process_refused_data+0x18>
 800485c:	f06f 050c 	mvn.w	r5, #12
 8004860:	e7da      	b.n	8004818 <tcp_process_refused_data+0x18>
 8004862:	4601      	mov	r1, r0
 8004864:	462b      	mov	r3, r5
 8004866:	4632      	mov	r2, r6
 8004868:	4628      	mov	r0, r5
 800486a:	f7ff ffa5 	bl	80047b8 <tcp_recv_null>
 800486e:	e7e0      	b.n	8004832 <tcp_process_refused_data+0x32>
 8004870:	350d      	adds	r5, #13
 8004872:	d0f3      	beq.n	800485c <tcp_process_refused_data+0x5c>
 8004874:	f06f 0504 	mvn.w	r5, #4
 8004878:	67a6      	str	r6, [r4, #120]	; 0x78
 800487a:	e7cd      	b.n	8004818 <tcp_process_refused_data+0x18>
 800487c:	0800b66b 	.word	0x0800b66b
 8004880:	0800b92f 	.word	0x0800b92f
 8004884:	0800af68 	.word	0x0800af68

08004888 <tcp_fasttmr>:
 8004888:	e92d 43f8 	stmdb	sp!, {r3, r4, r5, r6, r7, r8, r9, lr}
 800488c:	4d1b      	ldr	r5, [pc, #108]	; (80048fc <tcp_fasttmr+0x74>)
 800488e:	4f1c      	ldr	r7, [pc, #112]	; (8004900 <tcp_fasttmr+0x78>)
 8004890:	782b      	ldrb	r3, [r5, #0]
 8004892:	4e1c      	ldr	r6, [pc, #112]	; (8004904 <tcp_fasttmr+0x7c>)
 8004894:	3301      	adds	r3, #1
 8004896:	702b      	strb	r3, [r5, #0]
 8004898:	683c      	ldr	r4, [r7, #0]
 800489a:	f04f 0800 	mov.w	r8, #0
 800489e:	b90c      	cbnz	r4, 80048a4 <tcp_fasttmr+0x1c>
 80048a0:	e8bd 83f8 	ldmia.w	sp!, {r3, r4, r5, r6, r7, r8, r9, pc}
 80048a4:	782b      	ldrb	r3, [r5, #0]
 80048a6:	7fa2      	ldrb	r2, [r4, #30]
 80048a8:	429a      	cmp	r2, r3
 80048aa:	d024      	beq.n	80048f6 <tcp_fasttmr+0x6e>
 80048ac:	77a3      	strb	r3, [r4, #30]
 80048ae:	8b63      	ldrh	r3, [r4, #26]
 80048b0:	07d9      	lsls	r1, r3, #31
 80048b2:	d509      	bpl.n	80048c8 <tcp_fasttmr+0x40>
 80048b4:	f043 0302 	orr.w	r3, r3, #2
 80048b8:	4620      	mov	r0, r4
 80048ba:	8363      	strh	r3, [r4, #26]
 80048bc:	f002 f93c 	bl	8006b38 <tcp_output>
 80048c0:	8b63      	ldrh	r3, [r4, #26]
 80048c2:	f023 0303 	bic.w	r3, r3, #3
 80048c6:	8363      	strh	r3, [r4, #26]
 80048c8:	8b63      	ldrh	r3, [r4, #26]
 80048ca:	071a      	lsls	r2, r3, #28
 80048cc:	d505      	bpl.n	80048da <tcp_fasttmr+0x52>
 80048ce:	f023 0308 	bic.w	r3, r3, #8
 80048d2:	4620      	mov	r0, r4
 80048d4:	8363      	strh	r3, [r4, #26]
 80048d6:	f7ff fb43 	bl	8003f60 <tcp_close_shutdown_fin>
 80048da:	6fa3      	ldr	r3, [r4, #120]	; 0x78
 80048dc:	f8d4 900c 	ldr.w	r9, [r4, #12]
 80048e0:	b13b      	cbz	r3, 80048f2 <tcp_fasttmr+0x6a>
 80048e2:	4620      	mov	r0, r4
 80048e4:	f886 8000 	strb.w	r8, [r6]
 80048e8:	f7ff ff8a 	bl	8004800 <tcp_process_refused_data>
 80048ec:	7833      	ldrb	r3, [r6, #0]
 80048ee:	2b00      	cmp	r3, #0
 80048f0:	d1d2      	bne.n	8004898 <tcp_fasttmr+0x10>
 80048f2:	464c      	mov	r4, r9
 80048f4:	e7d3      	b.n	800489e <tcp_fasttmr+0x16>
 80048f6:	f8d4 900c 	ldr.w	r9, [r4, #12]
 80048fa:	e7fa      	b.n	80048f2 <tcp_fasttmr+0x6a>
 80048fc:	20005d0d 	.word	0x20005d0d
 8004900:	20005cf8 	.word	0x20005cf8
 8004904:	20005cfc 	.word	0x20005cfc

08004908 <tcp_slowtmr>:
 8004908:	e92d 4ff0 	stmdb	sp!, {r4, r5, r6, r7, r8, r9, sl, fp, lr}
 800490c:	4e91      	ldr	r6, [pc, #580]	; (8004b54 <tcp_slowtmr+0x24c>)
 800490e:	b087      	sub	sp, #28
 8004910:	4a91      	ldr	r2, [pc, #580]	; (8004b58 <tcp_slowtmr+0x250>)
 8004912:	6833      	ldr	r3, [r6, #0]
 8004914:	f8df a26c 	ldr.w	sl, [pc, #620]	; 8004b84 <tcp_slowtmr+0x27c>
 8004918:	3301      	adds	r3, #1
 800491a:	4f90      	ldr	r7, [pc, #576]	; (8004b5c <tcp_slowtmr+0x254>)
 800491c:	6033      	str	r3, [r6, #0]
 800491e:	7813      	ldrb	r3, [r2, #0]
 8004920:	3301      	adds	r3, #1
 8004922:	7013      	strb	r3, [r2, #0]
 8004924:	f8da 4000 	ldr.w	r4, [sl]
 8004928:	f04f 0900 	mov.w	r9, #0
 800492c:	f8df 8258 	ldr.w	r8, [pc, #600]	; 8004b88 <tcp_slowtmr+0x280>
 8004930:	b96c      	cbnz	r4, 800494e <tcp_slowtmr+0x46>
 8004932:	4f8b      	ldr	r7, [pc, #556]	; (8004b60 <tcp_slowtmr+0x258>)
 8004934:	f8df 8224 	ldr.w	r8, [pc, #548]	; 8004b5c <tcp_slowtmr+0x254>
 8004938:	683d      	ldr	r5, [r7, #0]
 800493a:	f8df a250 	ldr.w	sl, [pc, #592]	; 8004b8c <tcp_slowtmr+0x284>
 800493e:	f8df 9248 	ldr.w	r9, [pc, #584]	; 8004b88 <tcp_slowtmr+0x280>
 8004942:	2d00      	cmp	r5, #0
 8004944:	f040 81bb 	bne.w	8004cbe <tcp_slowtmr+0x3b6>
 8004948:	b007      	add	sp, #28
 800494a:	e8bd 8ff0 	ldmia.w	sp!, {r4, r5, r6, r7, r8, r9, sl, fp, pc}
 800494e:	7d23      	ldrb	r3, [r4, #20]
 8004950:	b933      	cbnz	r3, 8004960 <tcp_slowtmr+0x58>
 8004952:	463b      	mov	r3, r7
 8004954:	f240 42be 	movw	r2, #1214	; 0x4be
 8004958:	4982      	ldr	r1, [pc, #520]	; (8004b64 <tcp_slowtmr+0x25c>)
 800495a:	4640      	mov	r0, r8
 800495c:	f005 fa86 	bl	8009e6c <iprintf>
 8004960:	7d23      	ldrb	r3, [r4, #20]
 8004962:	2b01      	cmp	r3, #1
 8004964:	d106      	bne.n	8004974 <tcp_slowtmr+0x6c>
 8004966:	463b      	mov	r3, r7
 8004968:	f240 42bf 	movw	r2, #1215	; 0x4bf
 800496c:	497e      	ldr	r1, [pc, #504]	; (8004b68 <tcp_slowtmr+0x260>)
 800496e:	4640      	mov	r0, r8
 8004970:	f005 fa7c 	bl	8009e6c <iprintf>
 8004974:	7d23      	ldrb	r3, [r4, #20]
 8004976:	2b0a      	cmp	r3, #10
 8004978:	d106      	bne.n	8004988 <tcp_slowtmr+0x80>
 800497a:	463b      	mov	r3, r7
 800497c:	f44f 6298 	mov.w	r2, #1216	; 0x4c0
 8004980:	497a      	ldr	r1, [pc, #488]	; (8004b6c <tcp_slowtmr+0x264>)
 8004982:	4640      	mov	r0, r8
 8004984:	f005 fa72 	bl	8009e6c <iprintf>
 8004988:	4b73      	ldr	r3, [pc, #460]	; (8004b58 <tcp_slowtmr+0x250>)
 800498a:	7fa2      	ldrb	r2, [r4, #30]
 800498c:	781b      	ldrb	r3, [r3, #0]
 800498e:	429a      	cmp	r2, r3
 8004990:	d103      	bne.n	800499a <tcp_slowtmr+0x92>
 8004992:	68e5      	ldr	r5, [r4, #12]
 8004994:	46a1      	mov	r9, r4
 8004996:	462c      	mov	r4, r5
 8004998:	e7ca      	b.n	8004930 <tcp_slowtmr+0x28>
 800499a:	7d22      	ldrb	r2, [r4, #20]
 800499c:	77a3      	strb	r3, [r4, #30]
 800499e:	2a02      	cmp	r2, #2
 80049a0:	f894 3042 	ldrb.w	r3, [r4, #66]	; 0x42
 80049a4:	f040 8089 	bne.w	8004aba <tcp_slowtmr+0x1b2>
 80049a8:	2b05      	cmp	r3, #5
 80049aa:	f240 8088 	bls.w	8004abe <tcp_slowtmr+0x1b6>
 80049ae:	f04f 0b01 	mov.w	fp, #1
 80049b2:	7d22      	ldrb	r2, [r4, #20]
 80049b4:	2a06      	cmp	r2, #6
 80049b6:	d10b      	bne.n	80049d0 <tcp_slowtmr+0xc8>
 80049b8:	8b61      	ldrh	r1, [r4, #26]
 80049ba:	06cb      	lsls	r3, r1, #27
 80049bc:	d508      	bpl.n	80049d0 <tcp_slowtmr+0xc8>
 80049be:	6831      	ldr	r1, [r6, #0]
 80049c0:	6a20      	ldr	r0, [r4, #32]
 80049c2:	1a09      	subs	r1, r1, r0
 80049c4:	2928      	cmp	r1, #40	; 0x28
 80049c6:	bf84      	itt	hi
 80049c8:	f10b 0301 	addhi.w	r3, fp, #1
 80049cc:	fa5f fb83 	uxtbhi.w	fp, r3
 80049d0:	7a65      	ldrb	r5, [r4, #9]
 80049d2:	f015 0508 	ands.w	r5, r5, #8
 80049d6:	d019      	beq.n	8004a0c <tcp_slowtmr+0x104>
 80049d8:	2a04      	cmp	r2, #4
 80049da:	d002      	beq.n	80049e2 <tcp_slowtmr+0xda>
 80049dc:	2a07      	cmp	r2, #7
 80049de:	f040 8135 	bne.w	8004c4c <tcp_slowtmr+0x344>
 80049e2:	6a22      	ldr	r2, [r4, #32]
 80049e4:	f44f 75fa 	mov.w	r5, #500	; 0x1f4
 80049e8:	6830      	ldr	r0, [r6, #0]
 80049ea:	1a80      	subs	r0, r0, r2
 80049ec:	f8d4 2094 	ldr.w	r2, [r4, #148]	; 0x94
 80049f0:	f502 2124 	add.w	r1, r2, #671744	; 0xa4000
 80049f4:	f601 41b8 	addw	r1, r1, #3256	; 0xcb8
 80049f8:	fbb1 f1f5 	udiv	r1, r1, r5
 80049fc:	4288      	cmp	r0, r1
 80049fe:	f240 8113 	bls.w	8004c28 <tcp_slowtmr+0x320>
 8004a02:	f10b 0301 	add.w	r3, fp, #1
 8004a06:	2501      	movs	r5, #1
 8004a08:	fa5f fb83 	uxtb.w	fp, r3
 8004a0c:	6f62      	ldr	r2, [r4, #116]	; 0x74
 8004a0e:	b162      	cbz	r2, 8004a2a <tcp_slowtmr+0x122>
 8004a10:	6832      	ldr	r2, [r6, #0]
 8004a12:	6a21      	ldr	r1, [r4, #32]
 8004a14:	1a51      	subs	r1, r2, r1
 8004a16:	f9b4 2040 	ldrsh.w	r2, [r4, #64]	; 0x40
 8004a1a:	eb02 0242 	add.w	r2, r2, r2, lsl #1
 8004a1e:	ebb1 0f42 	cmp.w	r1, r2, lsl #1
 8004a22:	d302      	bcc.n	8004a2a <tcp_slowtmr+0x122>
 8004a24:	4620      	mov	r0, r4
 8004a26:	f7ff fbd5 	bl	80041d4 <tcp_free_ooseq>
 8004a2a:	7d22      	ldrb	r2, [r4, #20]
 8004a2c:	2a03      	cmp	r2, #3
 8004a2e:	f040 810f 	bne.w	8004c50 <tcp_slowtmr+0x348>
 8004a32:	6832      	ldr	r2, [r6, #0]
 8004a34:	6a21      	ldr	r1, [r4, #32]
 8004a36:	1a52      	subs	r2, r2, r1
 8004a38:	2a28      	cmp	r2, #40	; 0x28
 8004a3a:	d803      	bhi.n	8004a44 <tcp_slowtmr+0x13c>
 8004a3c:	f1bb 0f00 	cmp.w	fp, #0
 8004a40:	f000 811b 	beq.w	8004c7a <tcp_slowtmr+0x372>
 8004a44:	4620      	mov	r0, r4
 8004a46:	f8d4 b090 	ldr.w	fp, [r4, #144]	; 0x90
 8004a4a:	f7ff fbcd 	bl	80041e8 <tcp_pcb_purge>
 8004a4e:	f8da 3000 	ldr.w	r3, [sl]
 8004a52:	f1b9 0f00 	cmp.w	r9, #0
 8004a56:	f000 8103 	beq.w	8004c60 <tcp_slowtmr+0x358>
 8004a5a:	42a3      	cmp	r3, r4
 8004a5c:	d106      	bne.n	8004a6c <tcp_slowtmr+0x164>
 8004a5e:	463b      	mov	r3, r7
 8004a60:	f240 526d 	movw	r2, #1389	; 0x56d
 8004a64:	4942      	ldr	r1, [pc, #264]	; (8004b70 <tcp_slowtmr+0x268>)
 8004a66:	4640      	mov	r0, r8
 8004a68:	f005 fa00 	bl	8009e6c <iprintf>
 8004a6c:	68e3      	ldr	r3, [r4, #12]
 8004a6e:	f8c9 300c 	str.w	r3, [r9, #12]
 8004a72:	b15d      	cbz	r5, 8004a8c <tcp_slowtmr+0x184>
 8004a74:	8b23      	ldrh	r3, [r4, #24]
 8004a76:	4620      	mov	r0, r4
 8004a78:	9302      	str	r3, [sp, #8]
 8004a7a:	8ae3      	ldrh	r3, [r4, #22]
 8004a7c:	9301      	str	r3, [sp, #4]
 8004a7e:	1d23      	adds	r3, r4, #4
 8004a80:	9300      	str	r3, [sp, #0]
 8004a82:	4623      	mov	r3, r4
 8004a84:	6a62      	ldr	r2, [r4, #36]	; 0x24
 8004a86:	6d21      	ldr	r1, [r4, #80]	; 0x50
 8004a88:	f001 ffde 	bl	8006a48 <tcp_rst>
 8004a8c:	6923      	ldr	r3, [r4, #16]
 8004a8e:	4620      	mov	r0, r4
 8004a90:	68e5      	ldr	r5, [r4, #12]
 8004a92:	9305      	str	r3, [sp, #20]
 8004a94:	f7ff faa0 	bl	8003fd8 <tcp_free>
 8004a98:	4c36      	ldr	r4, [pc, #216]	; (8004b74 <tcp_slowtmr+0x26c>)
 8004a9a:	2200      	movs	r2, #0
 8004a9c:	7022      	strb	r2, [r4, #0]
 8004a9e:	f1bb 0f00 	cmp.w	fp, #0
 8004aa2:	d008      	beq.n	8004ab6 <tcp_slowtmr+0x1ae>
 8004aa4:	9b05      	ldr	r3, [sp, #20]
 8004aa6:	f06f 010c 	mvn.w	r1, #12
 8004aaa:	4618      	mov	r0, r3
 8004aac:	47d8      	blx	fp
 8004aae:	7823      	ldrb	r3, [r4, #0]
 8004ab0:	2b00      	cmp	r3, #0
 8004ab2:	f47f af37 	bne.w	8004924 <tcp_slowtmr+0x1c>
 8004ab6:	464c      	mov	r4, r9
 8004ab8:	e76c      	b.n	8004994 <tcp_slowtmr+0x8c>
 8004aba:	2b0b      	cmp	r3, #11
 8004abc:	e775      	b.n	80049aa <tcp_slowtmr+0xa2>
 8004abe:	f894 b099 	ldrb.w	fp, [r4, #153]	; 0x99
 8004ac2:	f1bb 0f00 	cmp.w	fp, #0
 8004ac6:	d063      	beq.n	8004b90 <tcp_slowtmr+0x288>
 8004ac8:	6f23      	ldr	r3, [r4, #112]	; 0x70
 8004aca:	b133      	cbz	r3, 8004ada <tcp_slowtmr+0x1d2>
 8004acc:	463b      	mov	r3, r7
 8004ace:	f240 42d4 	movw	r2, #1236	; 0x4d4
 8004ad2:	4929      	ldr	r1, [pc, #164]	; (8004b78 <tcp_slowtmr+0x270>)
 8004ad4:	4640      	mov	r0, r8
 8004ad6:	f005 f9c9 	bl	8009e6c <iprintf>
 8004ada:	6ee3      	ldr	r3, [r4, #108]	; 0x6c
 8004adc:	b933      	cbnz	r3, 8004aec <tcp_slowtmr+0x1e4>
 8004ade:	463b      	mov	r3, r7
 8004ae0:	f240 42d5 	movw	r2, #1237	; 0x4d5
 8004ae4:	4925      	ldr	r1, [pc, #148]	; (8004b7c <tcp_slowtmr+0x274>)
 8004ae6:	4640      	mov	r0, r8
 8004ae8:	f005 f9c0 	bl	8009e6c <iprintf>
 8004aec:	f894 309a 	ldrb.w	r3, [r4, #154]	; 0x9a
 8004af0:	2b0b      	cmp	r3, #11
 8004af2:	f63f af5c 	bhi.w	80049ae <tcp_slowtmr+0xa6>
 8004af6:	f894 2099 	ldrb.w	r2, [r4, #153]	; 0x99
 8004afa:	4b21      	ldr	r3, [pc, #132]	; (8004b80 <tcp_slowtmr+0x278>)
 8004afc:	4413      	add	r3, r2
 8004afe:	f813 2c01 	ldrb.w	r2, [r3, #-1]
 8004b02:	f894 3098 	ldrb.w	r3, [r4, #152]	; 0x98
 8004b06:	4293      	cmp	r3, r2
 8004b08:	d30b      	bcc.n	8004b22 <tcp_slowtmr+0x21a>
 8004b0a:	f8b4 1060 	ldrh.w	r1, [r4, #96]	; 0x60
 8004b0e:	b189      	cbz	r1, 8004b34 <tcp_slowtmr+0x22c>
 8004b10:	4620      	mov	r0, r4
 8004b12:	f001 fd51 	bl	80065b8 <tcp_split_unsent_seg>
 8004b16:	b990      	cbnz	r0, 8004b3e <tcp_slowtmr+0x236>
 8004b18:	4620      	mov	r0, r4
 8004b1a:	f002 f80d 	bl	8006b38 <tcp_output>
 8004b1e:	b130      	cbz	r0, 8004b2e <tcp_slowtmr+0x226>
 8004b20:	e00d      	b.n	8004b3e <tcp_slowtmr+0x236>
 8004b22:	3301      	adds	r3, #1
 8004b24:	b2db      	uxtb	r3, r3
 8004b26:	4293      	cmp	r3, r2
 8004b28:	f884 3098 	strb.w	r3, [r4, #152]	; 0x98
 8004b2c:	d2ed      	bcs.n	8004b0a <tcp_slowtmr+0x202>
 8004b2e:	f04f 0b00 	mov.w	fp, #0
 8004b32:	e73e      	b.n	80049b2 <tcp_slowtmr+0xaa>
 8004b34:	4620      	mov	r0, r4
 8004b36:	f002 fa07 	bl	8006f48 <tcp_zero_window_probe>
 8004b3a:	2800      	cmp	r0, #0
 8004b3c:	d1f7      	bne.n	8004b2e <tcp_slowtmr+0x226>
 8004b3e:	f894 2099 	ldrb.w	r2, [r4, #153]	; 0x99
 8004b42:	2300      	movs	r3, #0
 8004b44:	2a06      	cmp	r2, #6
 8004b46:	f884 3098 	strb.w	r3, [r4, #152]	; 0x98
 8004b4a:	d8f0      	bhi.n	8004b2e <tcp_slowtmr+0x226>
 8004b4c:	3201      	adds	r2, #1
 8004b4e:	f884 2099 	strb.w	r2, [r4, #153]	; 0x99
 8004b52:	e7ec      	b.n	8004b2e <tcp_slowtmr+0x226>
 8004b54:	20005d08 	.word	0x20005d08
 8004b58:	20005d0d 	.word	0x20005d0d
 8004b5c:	0800b66b 	.word	0x0800b66b
 8004b60:	20005d10 	.word	0x20005d10
 8004b64:	0800b955 	.word	0x0800b955
 8004b68:	0800b97f 	.word	0x0800b97f
 8004b6c:	0800b9a9 	.word	0x0800b9a9
 8004b70:	0800ba3d 	.word	0x0800ba3d
 8004b74:	20005cfc 	.word	0x20005cfc
 8004b78:	0800b9d6 	.word	0x0800b9d6
 8004b7c:	0800ba08 	.word	0x0800ba08
 8004b80:	0800bb2c 	.word	0x0800bb2c
 8004b84:	20005cf8 	.word	0x20005cf8
 8004b88:	0800af68 	.word	0x0800af68
 8004b8c:	0800ba92 	.word	0x0800ba92
 8004b90:	8e22      	ldrh	r2, [r4, #48]	; 0x30
 8004b92:	f647 71fe 	movw	r1, #32766	; 0x7ffe
 8004b96:	428a      	cmp	r2, r1
 8004b98:	bf9c      	itt	ls
 8004b9a:	3201      	addls	r2, #1
 8004b9c:	8622      	strhls	r2, [r4, #48]	; 0x30
 8004b9e:	f9b4 2040 	ldrsh.w	r2, [r4, #64]	; 0x40
 8004ba2:	f9b4 1030 	ldrsh.w	r1, [r4, #48]	; 0x30
 8004ba6:	4291      	cmp	r1, r2
 8004ba8:	dbc1      	blt.n	8004b2e <tcp_slowtmr+0x226>
 8004baa:	4620      	mov	r0, r4
 8004bac:	f001 fe94 	bl	80068d8 <tcp_rexmit_rto_prepare>
 8004bb0:	b128      	cbz	r0, 8004bbe <tcp_slowtmr+0x2b6>
 8004bb2:	6f22      	ldr	r2, [r4, #112]	; 0x70
 8004bb4:	2a00      	cmp	r2, #0
 8004bb6:	d1ba      	bne.n	8004b2e <tcp_slowtmr+0x226>
 8004bb8:	6ee2      	ldr	r2, [r4, #108]	; 0x6c
 8004bba:	2a00      	cmp	r2, #0
 8004bbc:	d0b7      	beq.n	8004b2e <tcp_slowtmr+0x226>
 8004bbe:	7d22      	ldrb	r2, [r4, #20]
 8004bc0:	2a02      	cmp	r2, #2
 8004bc2:	d014      	beq.n	8004bee <tcp_slowtmr+0x2e6>
 8004bc4:	f9b4 103c 	ldrsh.w	r1, [r4, #60]	; 0x3c
 8004bc8:	f9b4 203e 	ldrsh.w	r2, [r4, #62]	; 0x3e
 8004bcc:	4857      	ldr	r0, [pc, #348]	; (8004d2c <tcp_slowtmr+0x424>)
 8004bce:	eb02 02e1 	add.w	r2, r2, r1, asr #3
 8004bd2:	f894 1042 	ldrb.w	r1, [r4, #66]	; 0x42
 8004bd6:	290c      	cmp	r1, #12
 8004bd8:	bf28      	it	cs
 8004bda:	210c      	movcs	r1, #12
 8004bdc:	5c41      	ldrb	r1, [r0, r1]
 8004bde:	408a      	lsls	r2, r1
 8004be0:	f647 71ff 	movw	r1, #32767	; 0x7fff
 8004be4:	428a      	cmp	r2, r1
 8004be6:	bfa8      	it	ge
 8004be8:	460a      	movge	r2, r1
 8004bea:	f8a4 2040 	strh.w	r2, [r4, #64]	; 0x40
 8004bee:	f8b4 1060 	ldrh.w	r1, [r4, #96]	; 0x60
 8004bf2:	2500      	movs	r5, #0
 8004bf4:	f8b4 2048 	ldrh.w	r2, [r4, #72]	; 0x48
 8004bf8:	f8b4 c032 	ldrh.w	ip, [r4, #50]	; 0x32
 8004bfc:	4291      	cmp	r1, r2
 8004bfe:	8625      	strh	r5, [r4, #48]	; 0x30
 8004c00:	f8a4 c048 	strh.w	ip, [r4, #72]	; 0x48
 8004c04:	bf28      	it	cs
 8004c06:	4611      	movcs	r1, r2
 8004c08:	ea4f 024c 	mov.w	r2, ip, lsl #1
 8004c0c:	f8a4 506a 	strh.w	r5, [r4, #106]	; 0x6a
 8004c10:	b292      	uxth	r2, r2
 8004c12:	0848      	lsrs	r0, r1, #1
 8004c14:	ebb2 0f51 	cmp.w	r2, r1, lsr #1
 8004c18:	bf98      	it	ls
 8004c1a:	4602      	movls	r2, r0
 8004c1c:	4620      	mov	r0, r4
 8004c1e:	f8a4 204a 	strh.w	r2, [r4, #74]	; 0x4a
 8004c22:	f002 f933 	bl	8006e8c <tcp_rexmit_rto_commit>
 8004c26:	e6c4      	b.n	80049b2 <tcp_slowtmr+0xaa>
 8004c28:	f894 109b 	ldrb.w	r1, [r4, #155]	; 0x9b
 8004c2c:	4b40      	ldr	r3, [pc, #256]	; (8004d30 <tcp_slowtmr+0x428>)
 8004c2e:	fb03 2201 	mla	r2, r3, r1, r2
 8004c32:	fbb2 f2f5 	udiv	r2, r2, r5
 8004c36:	4290      	cmp	r0, r2
 8004c38:	d908      	bls.n	8004c4c <tcp_slowtmr+0x344>
 8004c3a:	4620      	mov	r0, r4
 8004c3c:	f002 f95c 	bl	8006ef8 <tcp_keepalive>
 8004c40:	b920      	cbnz	r0, 8004c4c <tcp_slowtmr+0x344>
 8004c42:	f894 209b 	ldrb.w	r2, [r4, #155]	; 0x9b
 8004c46:	3201      	adds	r2, #1
 8004c48:	f884 209b 	strb.w	r2, [r4, #155]	; 0x9b
 8004c4c:	2500      	movs	r5, #0
 8004c4e:	e6dd      	b.n	8004a0c <tcp_slowtmr+0x104>
 8004c50:	2a09      	cmp	r2, #9
 8004c52:	f47f aef3 	bne.w	8004a3c <tcp_slowtmr+0x134>
 8004c56:	6832      	ldr	r2, [r6, #0]
 8004c58:	6a21      	ldr	r1, [r4, #32]
 8004c5a:	1a52      	subs	r2, r2, r1
 8004c5c:	2af0      	cmp	r2, #240	; 0xf0
 8004c5e:	e6ec      	b.n	8004a3a <tcp_slowtmr+0x132>
 8004c60:	42a3      	cmp	r3, r4
 8004c62:	d006      	beq.n	8004c72 <tcp_slowtmr+0x36a>
 8004c64:	463b      	mov	r3, r7
 8004c66:	f240 5271 	movw	r2, #1393	; 0x571
 8004c6a:	4932      	ldr	r1, [pc, #200]	; (8004d34 <tcp_slowtmr+0x42c>)
 8004c6c:	4640      	mov	r0, r8
 8004c6e:	f005 f8fd 	bl	8009e6c <iprintf>
 8004c72:	68e3      	ldr	r3, [r4, #12]
 8004c74:	f8ca 3000 	str.w	r3, [sl]
 8004c78:	e6fb      	b.n	8004a72 <tcp_slowtmr+0x16a>
 8004c7a:	7f22      	ldrb	r2, [r4, #28]
 8004c7c:	7f61      	ldrb	r1, [r4, #29]
 8004c7e:	3201      	adds	r2, #1
 8004c80:	68e5      	ldr	r5, [r4, #12]
 8004c82:	b2d2      	uxtb	r2, r2
 8004c84:	4291      	cmp	r1, r2
 8004c86:	7722      	strb	r2, [r4, #28]
 8004c88:	f63f ae84 	bhi.w	8004994 <tcp_slowtmr+0x8c>
 8004c8c:	f8df 90b0 	ldr.w	r9, [pc, #176]	; 8004d40 <tcp_slowtmr+0x438>
 8004c90:	f8d4 308c 	ldr.w	r3, [r4, #140]	; 0x8c
 8004c94:	f884 b01c 	strb.w	fp, [r4, #28]
 8004c98:	f889 b000 	strb.w	fp, [r9]
 8004c9c:	b91b      	cbnz	r3, 8004ca6 <tcp_slowtmr+0x39e>
 8004c9e:	4620      	mov	r0, r4
 8004ca0:	f001 ff4a 	bl	8006b38 <tcp_output>
 8004ca4:	e676      	b.n	8004994 <tcp_slowtmr+0x8c>
 8004ca6:	4621      	mov	r1, r4
 8004ca8:	6920      	ldr	r0, [r4, #16]
 8004caa:	4798      	blx	r3
 8004cac:	f899 3000 	ldrb.w	r3, [r9]
 8004cb0:	2b00      	cmp	r3, #0
 8004cb2:	f47f ae37 	bne.w	8004924 <tcp_slowtmr+0x1c>
 8004cb6:	2800      	cmp	r0, #0
 8004cb8:	f47f ae6c 	bne.w	8004994 <tcp_slowtmr+0x8c>
 8004cbc:	e7ef      	b.n	8004c9e <tcp_slowtmr+0x396>
 8004cbe:	7d2b      	ldrb	r3, [r5, #20]
 8004cc0:	2b0a      	cmp	r3, #10
 8004cc2:	d006      	beq.n	8004cd2 <tcp_slowtmr+0x3ca>
 8004cc4:	4643      	mov	r3, r8
 8004cc6:	f240 52a1 	movw	r2, #1441	; 0x5a1
 8004cca:	4651      	mov	r1, sl
 8004ccc:	4648      	mov	r0, r9
 8004cce:	f005 f8cd 	bl	8009e6c <iprintf>
 8004cd2:	6833      	ldr	r3, [r6, #0]
 8004cd4:	6a2a      	ldr	r2, [r5, #32]
 8004cd6:	1a9b      	subs	r3, r3, r2
 8004cd8:	2bf0      	cmp	r3, #240	; 0xf0
 8004cda:	d910      	bls.n	8004cfe <tcp_slowtmr+0x3f6>
 8004cdc:	4628      	mov	r0, r5
 8004cde:	f7ff fa83 	bl	80041e8 <tcp_pcb_purge>
 8004ce2:	b97c      	cbnz	r4, 8004d04 <tcp_slowtmr+0x3fc>
 8004ce4:	683b      	ldr	r3, [r7, #0]
 8004ce6:	42ab      	cmp	r3, r5
 8004ce8:	d006      	beq.n	8004cf8 <tcp_slowtmr+0x3f0>
 8004cea:	4643      	mov	r3, r8
 8004cec:	f240 52b3 	movw	r2, #1459	; 0x5b3
 8004cf0:	4911      	ldr	r1, [pc, #68]	; (8004d38 <tcp_slowtmr+0x430>)
 8004cf2:	4648      	mov	r0, r9
 8004cf4:	f005 f8ba 	bl	8009e6c <iprintf>
 8004cf8:	68eb      	ldr	r3, [r5, #12]
 8004cfa:	603b      	str	r3, [r7, #0]
 8004cfc:	e00e      	b.n	8004d1c <tcp_slowtmr+0x414>
 8004cfe:	462c      	mov	r4, r5
 8004d00:	68ed      	ldr	r5, [r5, #12]
 8004d02:	e61e      	b.n	8004942 <tcp_slowtmr+0x3a>
 8004d04:	683b      	ldr	r3, [r7, #0]
 8004d06:	42ab      	cmp	r3, r5
 8004d08:	d106      	bne.n	8004d18 <tcp_slowtmr+0x410>
 8004d0a:	4643      	mov	r3, r8
 8004d0c:	f240 52af 	movw	r2, #1455	; 0x5af
 8004d10:	490a      	ldr	r1, [pc, #40]	; (8004d3c <tcp_slowtmr+0x434>)
 8004d12:	4648      	mov	r0, r9
 8004d14:	f005 f8aa 	bl	8009e6c <iprintf>
 8004d18:	68eb      	ldr	r3, [r5, #12]
 8004d1a:	60e3      	str	r3, [r4, #12]
 8004d1c:	f8d5 b00c 	ldr.w	fp, [r5, #12]
 8004d20:	4628      	mov	r0, r5
 8004d22:	f7ff f959 	bl	8003fd8 <tcp_free>
 8004d26:	465d      	mov	r5, fp
 8004d28:	e60b      	b.n	8004942 <tcp_slowtmr+0x3a>
 8004d2a:	bf00      	nop
 8004d2c:	0800bb0e 	.word	0x0800bb0e
 8004d30:	000124f8 	.word	0x000124f8
 8004d34:	0800ba68 	.word	0x0800ba68
 8004d38:	0800bae8 	.word	0x0800bae8
 8004d3c:	0800bac1 	.word	0x0800bac1
 8004d40:	20005cfc 	.word	0x20005cfc

08004d44 <tcp_tmr>:
 8004d44:	b508      	push	{r3, lr}
 8004d46:	f7ff fd9f 	bl	8004888 <tcp_fasttmr>
 8004d4a:	4a06      	ldr	r2, [pc, #24]	; (8004d64 <tcp_tmr+0x20>)
 8004d4c:	7813      	ldrb	r3, [r2, #0]
 8004d4e:	3301      	adds	r3, #1
 8004d50:	b2db      	uxtb	r3, r3
 8004d52:	7013      	strb	r3, [r2, #0]
 8004d54:	07db      	lsls	r3, r3, #31
 8004d56:	d503      	bpl.n	8004d60 <tcp_tmr+0x1c>
 8004d58:	e8bd 4008 	ldmia.w	sp!, {r3, lr}
 8004d5c:	f7ff bdd4 	b.w	8004908 <tcp_slowtmr>
 8004d60:	bd08      	pop	{r3, pc}
 8004d62:	bf00      	nop
 8004d64:	20005d0c 	.word	0x20005d0c

08004d68 <tcp_get_next_optbyte>:
 8004d68:	4a09      	ldr	r2, [pc, #36]	; (8004d90 <tcp_get_next_optbyte+0x28>)
 8004d6a:	8813      	ldrh	r3, [r2, #0]
 8004d6c:	1c59      	adds	r1, r3, #1
 8004d6e:	8011      	strh	r1, [r2, #0]
 8004d70:	4a08      	ldr	r2, [pc, #32]	; (8004d94 <tcp_get_next_optbyte+0x2c>)
 8004d72:	6812      	ldr	r2, [r2, #0]
 8004d74:	b11a      	cbz	r2, 8004d7e <tcp_get_next_optbyte+0x16>
 8004d76:	4908      	ldr	r1, [pc, #32]	; (8004d98 <tcp_get_next_optbyte+0x30>)
 8004d78:	8809      	ldrh	r1, [r1, #0]
 8004d7a:	428b      	cmp	r3, r1
 8004d7c:	d204      	bcs.n	8004d88 <tcp_get_next_optbyte+0x20>
 8004d7e:	4a07      	ldr	r2, [pc, #28]	; (8004d9c <tcp_get_next_optbyte+0x34>)
 8004d80:	6812      	ldr	r2, [r2, #0]
 8004d82:	4413      	add	r3, r2
 8004d84:	7d18      	ldrb	r0, [r3, #20]
 8004d86:	4770      	bx	lr
 8004d88:	1a5b      	subs	r3, r3, r1
 8004d8a:	b2db      	uxtb	r3, r3
 8004d8c:	5cd0      	ldrb	r0, [r2, r3]
 8004d8e:	4770      	bx	lr
 8004d90:	20005d40 	.word	0x20005d40
 8004d94:	20005d4c 	.word	0x20005d4c
 8004d98:	20005d48 	.word	0x20005d48
 8004d9c:	20005d44 	.word	0x20005d44

08004da0 <tcp_oos_insert_segment>:
 8004da0:	b5f8      	push	{r3, r4, r5, r6, r7, lr}
 8004da2:	460c      	mov	r4, r1
 8004da4:	4605      	mov	r5, r0
 8004da6:	b930      	cbnz	r0, 8004db6 <tcp_oos_insert_segment+0x16>
 8004da8:	4b1e      	ldr	r3, [pc, #120]	; (8004e24 <tcp_oos_insert_segment+0x84>)
 8004daa:	f240 421f 	movw	r2, #1055	; 0x41f
 8004dae:	491e      	ldr	r1, [pc, #120]	; (8004e28 <tcp_oos_insert_segment+0x88>)
 8004db0:	481e      	ldr	r0, [pc, #120]	; (8004e2c <tcp_oos_insert_segment+0x8c>)
 8004db2:	f005 f85b 	bl	8009e6c <iprintf>
 8004db6:	68eb      	ldr	r3, [r5, #12]
 8004db8:	8998      	ldrh	r0, [r3, #12]
 8004dba:	f7fe f975 	bl	80030a8 <lwip_htons>
 8004dbe:	07c2      	lsls	r2, r0, #31
 8004dc0:	d414      	bmi.n	8004dec <tcp_oos_insert_segment+0x4c>
 8004dc2:	4e1b      	ldr	r6, [pc, #108]	; (8004e30 <tcp_oos_insert_segment+0x90>)
 8004dc4:	68e7      	ldr	r7, [r4, #12]
 8004dc6:	6830      	ldr	r0, [r6, #0]
 8004dc8:	892b      	ldrh	r3, [r5, #8]
 8004dca:	6879      	ldr	r1, [r7, #4]
 8004dcc:	8922      	ldrh	r2, [r4, #8]
 8004dce:	4403      	add	r3, r0
 8004dd0:	440a      	add	r2, r1
 8004dd2:	1a9a      	subs	r2, r3, r2
 8004dd4:	2a00      	cmp	r2, #0
 8004dd6:	da0f      	bge.n	8004df8 <tcp_oos_insert_segment+0x58>
 8004dd8:	1a5b      	subs	r3, r3, r1
 8004dda:	2b00      	cmp	r3, #0
 8004ddc:	dd0a      	ble.n	8004df4 <tcp_oos_insert_segment+0x54>
 8004dde:	1a09      	subs	r1, r1, r0
 8004de0:	6868      	ldr	r0, [r5, #4]
 8004de2:	b289      	uxth	r1, r1
 8004de4:	8129      	strh	r1, [r5, #8]
 8004de6:	f7fe ff1f 	bl	8003c28 <pbuf_realloc>
 8004dea:	e003      	b.n	8004df4 <tcp_oos_insert_segment+0x54>
 8004dec:	4620      	mov	r0, r4
 8004dee:	2400      	movs	r4, #0
 8004df0:	f7ff f98c 	bl	800410c <tcp_segs_free>
 8004df4:	602c      	str	r4, [r5, #0]
 8004df6:	bdf8      	pop	{r3, r4, r5, r6, r7, pc}
 8004df8:	89b8      	ldrh	r0, [r7, #12]
 8004dfa:	f7fe f955 	bl	80030a8 <lwip_htons>
 8004dfe:	07c3      	lsls	r3, r0, #31
 8004e00:	d507      	bpl.n	8004e12 <tcp_oos_insert_segment+0x72>
 8004e02:	68eb      	ldr	r3, [r5, #12]
 8004e04:	2001      	movs	r0, #1
 8004e06:	899f      	ldrh	r7, [r3, #12]
 8004e08:	f7fe f94e 	bl	80030a8 <lwip_htons>
 8004e0c:	68eb      	ldr	r3, [r5, #12]
 8004e0e:	4338      	orrs	r0, r7
 8004e10:	8198      	strh	r0, [r3, #12]
 8004e12:	6827      	ldr	r7, [r4, #0]
 8004e14:	4620      	mov	r0, r4
 8004e16:	f7ff f96b 	bl	80040f0 <tcp_seg_free>
 8004e1a:	463c      	mov	r4, r7
 8004e1c:	2f00      	cmp	r7, #0
 8004e1e:	d1d1      	bne.n	8004dc4 <tcp_oos_insert_segment+0x24>
 8004e20:	e7e8      	b.n	8004df4 <tcp_oos_insert_segment+0x54>
 8004e22:	bf00      	nop
 8004e24:	0800bb33 	.word	0x0800bb33
 8004e28:	0800bb65 	.word	0x0800bb65
 8004e2c:	0800af68 	.word	0x0800af68
 8004e30:	20005d38 	.word	0x20005d38

08004e34 <tcp_parseopt>:
 8004e34:	b5f8      	push	{r3, r4, r5, r6, r7, lr}
 8004e36:	4606      	mov	r6, r0
 8004e38:	b930      	cbnz	r0, 8004e48 <tcp_parseopt+0x14>
 8004e3a:	4b1d      	ldr	r3, [pc, #116]	; (8004eb0 <tcp_parseopt+0x7c>)
 8004e3c:	f240 727d 	movw	r2, #1917	; 0x77d
 8004e40:	491c      	ldr	r1, [pc, #112]	; (8004eb4 <tcp_parseopt+0x80>)
 8004e42:	481d      	ldr	r0, [pc, #116]	; (8004eb8 <tcp_parseopt+0x84>)
 8004e44:	f005 f812 	bl	8009e6c <iprintf>
 8004e48:	4b1c      	ldr	r3, [pc, #112]	; (8004ebc <tcp_parseopt+0x88>)
 8004e4a:	881f      	ldrh	r7, [r3, #0]
 8004e4c:	b167      	cbz	r7, 8004e68 <tcp_parseopt+0x34>
 8004e4e:	4d1c      	ldr	r5, [pc, #112]	; (8004ec0 <tcp_parseopt+0x8c>)
 8004e50:	2300      	movs	r3, #0
 8004e52:	802b      	strh	r3, [r5, #0]
 8004e54:	882b      	ldrh	r3, [r5, #0]
 8004e56:	42bb      	cmp	r3, r7
 8004e58:	d206      	bcs.n	8004e68 <tcp_parseopt+0x34>
 8004e5a:	f7ff ff85 	bl	8004d68 <tcp_get_next_optbyte>
 8004e5e:	2801      	cmp	r0, #1
 8004e60:	d0f8      	beq.n	8004e54 <tcp_parseopt+0x20>
 8004e62:	2802      	cmp	r0, #2
 8004e64:	d001      	beq.n	8004e6a <tcp_parseopt+0x36>
 8004e66:	b9c8      	cbnz	r0, 8004e9c <tcp_parseopt+0x68>
 8004e68:	bdf8      	pop	{r3, r4, r5, r6, r7, pc}
 8004e6a:	f7ff ff7d 	bl	8004d68 <tcp_get_next_optbyte>
 8004e6e:	2804      	cmp	r0, #4
 8004e70:	d1fa      	bne.n	8004e68 <tcp_parseopt+0x34>
 8004e72:	882b      	ldrh	r3, [r5, #0]
 8004e74:	3301      	adds	r3, #1
 8004e76:	42bb      	cmp	r3, r7
 8004e78:	daf6      	bge.n	8004e68 <tcp_parseopt+0x34>
 8004e7a:	f7ff ff75 	bl	8004d68 <tcp_get_next_optbyte>
 8004e7e:	0204      	lsls	r4, r0, #8
 8004e80:	f7ff ff72 	bl	8004d68 <tcp_get_next_optbyte>
 8004e84:	b2a4      	uxth	r4, r4
 8004e86:	ea44 0300 	orr.w	r3, r4, r0
 8004e8a:	b29b      	uxth	r3, r3
 8004e8c:	1e5a      	subs	r2, r3, #1
 8004e8e:	f5b2 7f06 	cmp.w	r2, #536	; 0x218
 8004e92:	bf28      	it	cs
 8004e94:	f44f 7306 	movcs.w	r3, #536	; 0x218
 8004e98:	8673      	strh	r3, [r6, #50]	; 0x32
 8004e9a:	e7db      	b.n	8004e54 <tcp_parseopt+0x20>
 8004e9c:	f7ff ff64 	bl	8004d68 <tcp_get_next_optbyte>
 8004ea0:	2801      	cmp	r0, #1
 8004ea2:	d9e1      	bls.n	8004e68 <tcp_parseopt+0x34>
 8004ea4:	882b      	ldrh	r3, [r5, #0]
 8004ea6:	3b02      	subs	r3, #2
 8004ea8:	4418      	add	r0, r3
 8004eaa:	8028      	strh	r0, [r5, #0]
 8004eac:	e7d2      	b.n	8004e54 <tcp_parseopt+0x20>
 8004eae:	bf00      	nop
 8004eb0:	0800bb33 	.word	0x0800bb33
 8004eb4:	0800bb8a 	.word	0x0800bb8a
 8004eb8:	0800af68 	.word	0x0800af68
 8004ebc:	20005d50 	.word	0x20005d50
 8004ec0:	20005d40 	.word	0x20005d40

08004ec4 <tcp_input_delayed_close>:
 8004ec4:	b510      	push	{r4, lr}
 8004ec6:	4604      	mov	r4, r0
 8004ec8:	b930      	cbnz	r0, 8004ed8 <tcp_input_delayed_close+0x14>
 8004eca:	4b0f      	ldr	r3, [pc, #60]	; (8004f08 <tcp_input_delayed_close+0x44>)
 8004ecc:	f240 225a 	movw	r2, #602	; 0x25a
 8004ed0:	490e      	ldr	r1, [pc, #56]	; (8004f0c <tcp_input_delayed_close+0x48>)
 8004ed2:	480f      	ldr	r0, [pc, #60]	; (8004f10 <tcp_input_delayed_close+0x4c>)
 8004ed4:	f004 ffca 	bl	8009e6c <iprintf>
 8004ed8:	4b0e      	ldr	r3, [pc, #56]	; (8004f14 <tcp_input_delayed_close+0x50>)
 8004eda:	7818      	ldrb	r0, [r3, #0]
 8004edc:	f010 0010 	ands.w	r0, r0, #16
 8004ee0:	d011      	beq.n	8004f06 <tcp_input_delayed_close+0x42>
 8004ee2:	8b63      	ldrh	r3, [r4, #26]
 8004ee4:	06db      	lsls	r3, r3, #27
 8004ee6:	d406      	bmi.n	8004ef6 <tcp_input_delayed_close+0x32>
 8004ee8:	f8d4 3090 	ldr.w	r3, [r4, #144]	; 0x90
 8004eec:	b11b      	cbz	r3, 8004ef6 <tcp_input_delayed_close+0x32>
 8004eee:	f06f 010e 	mvn.w	r1, #14
 8004ef2:	6920      	ldr	r0, [r4, #16]
 8004ef4:	4798      	blx	r3
 8004ef6:	4621      	mov	r1, r4
 8004ef8:	4807      	ldr	r0, [pc, #28]	; (8004f18 <tcp_input_delayed_close+0x54>)
 8004efa:	f7ff f9a7 	bl	800424c <tcp_pcb_remove>
 8004efe:	4620      	mov	r0, r4
 8004f00:	f7ff f86a 	bl	8003fd8 <tcp_free>
 8004f04:	2001      	movs	r0, #1
 8004f06:	bd10      	pop	{r4, pc}
 8004f08:	0800bb33 	.word	0x0800bb33
 8004f0c:	0800bba4 	.word	0x0800bba4
 8004f10:	0800af68 	.word	0x0800af68
 8004f14:	20005d34 	.word	0x20005d34
 8004f18:	20005cf8 	.word	0x20005cf8

08004f1c <tcp_free_acked_segments.constprop.0>:
 8004f1c:	e92d 4ff8 	stmdb	sp!, {r3, r4, r5, r6, r7, r8, r9, sl, fp, lr}
 8004f20:	4606      	mov	r6, r0
 8004f22:	4617      	mov	r7, r2
 8004f24:	460c      	mov	r4, r1
 8004f26:	f8df 80b0 	ldr.w	r8, [pc, #176]	; 8004fd8 <tcp_free_acked_segments.constprop.0+0xbc>
 8004f2a:	f8df 90a4 	ldr.w	r9, [pc, #164]	; 8004fd0 <tcp_free_acked_segments.constprop.0+0xb4>
 8004f2e:	f8df a0ac 	ldr.w	sl, [pc, #172]	; 8004fdc <tcp_free_acked_segments.constprop.0+0xc0>
 8004f32:	2c00      	cmp	r4, #0
 8004f34:	d03a      	beq.n	8004fac <tcp_free_acked_segments.constprop.0+0x90>
 8004f36:	68e3      	ldr	r3, [r4, #12]
 8004f38:	6858      	ldr	r0, [r3, #4]
 8004f3a:	f7fe f8b8 	bl	80030ae <lwip_htonl>
 8004f3e:	68e3      	ldr	r3, [r4, #12]
 8004f40:	4683      	mov	fp, r0
 8004f42:	8925      	ldrh	r5, [r4, #8]
 8004f44:	8998      	ldrh	r0, [r3, #12]
 8004f46:	f7fe f8af 	bl	80030a8 <lwip_htons>
 8004f4a:	f8d8 3000 	ldr.w	r3, [r8]
 8004f4e:	f010 0003 	ands.w	r0, r0, #3
 8004f52:	eba5 0303 	sub.w	r3, r5, r3
 8004f56:	bf18      	it	ne
 8004f58:	2001      	movne	r0, #1
 8004f5a:	eb03 050b 	add.w	r5, r3, fp
 8004f5e:	4405      	add	r5, r0
 8004f60:	2d00      	cmp	r5, #0
 8004f62:	dc24      	bgt.n	8004fae <tcp_free_acked_segments.constprop.0+0x92>
 8004f64:	e9d4 b000 	ldrd	fp, r0, [r4]
 8004f68:	f7fe feb6 	bl	8003cd8 <pbuf_clen>
 8004f6c:	f8b6 3066 	ldrh.w	r3, [r6, #102]	; 0x66
 8004f70:	4605      	mov	r5, r0
 8004f72:	4283      	cmp	r3, r0
 8004f74:	d206      	bcs.n	8004f84 <tcp_free_acked_segments.constprop.0+0x68>
 8004f76:	464b      	mov	r3, r9
 8004f78:	f240 4257 	movw	r2, #1111	; 0x457
 8004f7c:	4651      	mov	r1, sl
 8004f7e:	4812      	ldr	r0, [pc, #72]	; (8004fc8 <tcp_free_acked_segments.constprop.0+0xac>)
 8004f80:	f004 ff74 	bl	8009e6c <iprintf>
 8004f84:	4a11      	ldr	r2, [pc, #68]	; (8004fcc <tcp_free_acked_segments.constprop.0+0xb0>)
 8004f86:	f8b6 0066 	ldrh.w	r0, [r6, #102]	; 0x66
 8004f8a:	8811      	ldrh	r1, [r2, #0]
 8004f8c:	8923      	ldrh	r3, [r4, #8]
 8004f8e:	1b45      	subs	r5, r0, r5
 8004f90:	4620      	mov	r0, r4
 8004f92:	440b      	add	r3, r1
 8004f94:	f8a6 5066 	strh.w	r5, [r6, #102]	; 0x66
 8004f98:	8013      	strh	r3, [r2, #0]
 8004f9a:	f7ff f8a9 	bl	80040f0 <tcp_seg_free>
 8004f9e:	f8b6 3066 	ldrh.w	r3, [r6, #102]	; 0x66
 8004fa2:	b17b      	cbz	r3, 8004fc4 <tcp_free_acked_segments.constprop.0+0xa8>
 8004fa4:	f1bb 0f00 	cmp.w	fp, #0
 8004fa8:	d10c      	bne.n	8004fc4 <tcp_free_acked_segments.constprop.0+0xa8>
 8004faa:	b11f      	cbz	r7, 8004fb4 <tcp_free_acked_segments.constprop.0+0x98>
 8004fac:	2400      	movs	r4, #0
 8004fae:	4620      	mov	r0, r4
 8004fb0:	e8bd 8ff8 	ldmia.w	sp!, {r3, r4, r5, r6, r7, r8, r9, sl, fp, pc}
 8004fb4:	4b06      	ldr	r3, [pc, #24]	; (8004fd0 <tcp_free_acked_segments.constprop.0+0xb4>)
 8004fb6:	f240 4261 	movw	r2, #1121	; 0x461
 8004fba:	4906      	ldr	r1, [pc, #24]	; (8004fd4 <tcp_free_acked_segments.constprop.0+0xb8>)
 8004fbc:	4802      	ldr	r0, [pc, #8]	; (8004fc8 <tcp_free_acked_segments.constprop.0+0xac>)
 8004fbe:	f004 ff55 	bl	8009e6c <iprintf>
 8004fc2:	e7f3      	b.n	8004fac <tcp_free_acked_segments.constprop.0+0x90>
 8004fc4:	465c      	mov	r4, fp
 8004fc6:	e7b4      	b.n	8004f32 <tcp_free_acked_segments.constprop.0+0x16>
 8004fc8:	0800af68 	.word	0x0800af68
 8004fcc:	20005d2c 	.word	0x20005d2c
 8004fd0:	0800bb33 	.word	0x0800bb33
 8004fd4:	0800bbf1 	.word	0x0800bbf1
 8004fd8:	20005d14 	.word	0x20005d14
 8004fdc:	0800bbc9 	.word	0x0800bbc9

08004fe0 <tcp_receive>:
 8004fe0:	e92d 4ff8 	stmdb	sp!, {r3, r4, r5, r6, r7, r8, r9, sl, fp, lr}
 8004fe4:	4604      	mov	r4, r0
 8004fe6:	b930      	cbnz	r0, 8004ff6 <tcp_receive+0x16>
 8004fe8:	4b3b      	ldr	r3, [pc, #236]	; (80050d8 <tcp_receive+0xf8>)
 8004fea:	f240 427b 	movw	r2, #1147	; 0x47b
 8004fee:	493b      	ldr	r1, [pc, #236]	; (80050dc <tcp_receive+0xfc>)
 8004ff0:	483b      	ldr	r0, [pc, #236]	; (80050e0 <tcp_receive+0x100>)
 8004ff2:	f004 ff3b 	bl	8009e6c <iprintf>
 8004ff6:	7d23      	ldrb	r3, [r4, #20]
 8004ff8:	2b03      	cmp	r3, #3
 8004ffa:	d806      	bhi.n	800500a <tcp_receive+0x2a>
 8004ffc:	4b36      	ldr	r3, [pc, #216]	; (80050d8 <tcp_receive+0xf8>)
 8004ffe:	f240 427c 	movw	r2, #1148	; 0x47c
 8005002:	4938      	ldr	r1, [pc, #224]	; (80050e4 <tcp_receive+0x104>)
 8005004:	4836      	ldr	r0, [pc, #216]	; (80050e0 <tcp_receive+0x100>)
 8005006:	f004 ff31 	bl	8009e6c <iprintf>
 800500a:	4b37      	ldr	r3, [pc, #220]	; (80050e8 <tcp_receive+0x108>)
 800500c:	4e37      	ldr	r6, [pc, #220]	; (80050ec <tcp_receive+0x10c>)
 800500e:	781b      	ldrb	r3, [r3, #0]
 8005010:	4f37      	ldr	r7, [pc, #220]	; (80050f0 <tcp_receive+0x110>)
 8005012:	f013 0f10 	tst.w	r3, #16
 8005016:	f000 809e 	beq.w	8005156 <tcp_receive+0x176>
 800501a:	6833      	ldr	r3, [r6, #0]
 800501c:	f8df 90d8 	ldr.w	r9, [pc, #216]	; 80050f8 <tcp_receive+0x118>
 8005020:	f8b4 1060 	ldrh.w	r1, [r4, #96]	; 0x60
 8005024:	f8d9 2000 	ldr.w	r2, [r9]
 8005028:	e9d4 0c15 	ldrd	r0, ip, [r4, #84]	; 0x54
 800502c:	eba0 0e03 	sub.w	lr, r0, r3
 8005030:	f1be 0f00 	cmp.w	lr, #0
 8005034:	db0c      	blt.n	8005050 <tcp_receive+0x70>
 8005036:	4298      	cmp	r0, r3
 8005038:	d103      	bne.n	8005042 <tcp_receive+0x62>
 800503a:	ebac 0002 	sub.w	r0, ip, r2
 800503e:	2800      	cmp	r0, #0
 8005040:	db06      	blt.n	8005050 <tcp_receive+0x70>
 8005042:	4594      	cmp	ip, r2
 8005044:	d113      	bne.n	800506e <tcp_receive+0x8e>
 8005046:	482b      	ldr	r0, [pc, #172]	; (80050f4 <tcp_receive+0x114>)
 8005048:	6800      	ldr	r0, [r0, #0]
 800504a:	89c0      	ldrh	r0, [r0, #14]
 800504c:	4288      	cmp	r0, r1
 800504e:	d90e      	bls.n	800506e <tcp_receive+0x8e>
 8005050:	4828      	ldr	r0, [pc, #160]	; (80050f4 <tcp_receive+0x114>)
 8005052:	f8b4 8062 	ldrh.w	r8, [r4, #98]	; 0x62
 8005056:	6800      	ldr	r0, [r0, #0]
 8005058:	89c0      	ldrh	r0, [r0, #14]
 800505a:	fa1f fe80 	uxth.w	lr, r0
 800505e:	f8a4 0060 	strh.w	r0, [r4, #96]	; 0x60
 8005062:	45f0      	cmp	r8, lr
 8005064:	e9c4 3215 	strd	r3, r2, [r4, #84]	; 0x54
 8005068:	bf38      	it	cc
 800506a:	f8a4 0062 	strhcc.w	r0, [r4, #98]	; 0x62
 800506e:	6c60      	ldr	r0, [r4, #68]	; 0x44
 8005070:	1a13      	subs	r3, r2, r0
 8005072:	2b00      	cmp	r3, #0
 8005074:	f300 8179 	bgt.w	800536a <tcp_receive+0x38a>
 8005078:	883b      	ldrh	r3, [r7, #0]
 800507a:	2b00      	cmp	r3, #0
 800507c:	f040 8171 	bne.w	8005362 <tcp_receive+0x382>
 8005080:	f8b4 3060 	ldrh.w	r3, [r4, #96]	; 0x60
 8005084:	4461      	add	r1, ip
 8005086:	6da5      	ldr	r5, [r4, #88]	; 0x58
 8005088:	442b      	add	r3, r5
 800508a:	428b      	cmp	r3, r1
 800508c:	f040 8169 	bne.w	8005362 <tcp_receive+0x382>
 8005090:	f9b4 3030 	ldrsh.w	r3, [r4, #48]	; 0x30
 8005094:	2b00      	cmp	r3, #0
 8005096:	f2c0 8164 	blt.w	8005362 <tcp_receive+0x382>
 800509a:	4290      	cmp	r0, r2
 800509c:	f040 8161 	bne.w	8005362 <tcp_receive+0x382>
 80050a0:	f894 3043 	ldrb.w	r3, [r4, #67]	; 0x43
 80050a4:	2bff      	cmp	r3, #255	; 0xff
 80050a6:	bf1c      	itt	ne
 80050a8:	3301      	addne	r3, #1
 80050aa:	f884 3043 	strbne.w	r3, [r4, #67]	; 0x43
 80050ae:	f894 3043 	ldrb.w	r3, [r4, #67]	; 0x43
 80050b2:	2b03      	cmp	r3, #3
 80050b4:	d922      	bls.n	80050fc <tcp_receive+0x11c>
 80050b6:	f8b4 2048 	ldrh.w	r2, [r4, #72]	; 0x48
 80050ba:	f64f 71ff 	movw	r1, #65535	; 0xffff
 80050be:	8e63      	ldrh	r3, [r4, #50]	; 0x32
 80050c0:	4413      	add	r3, r2
 80050c2:	b29b      	uxth	r3, r3
 80050c4:	429a      	cmp	r2, r3
 80050c6:	bf88      	it	hi
 80050c8:	460b      	movhi	r3, r1
 80050ca:	f8a4 3048 	strh.w	r3, [r4, #72]	; 0x48
 80050ce:	4620      	mov	r0, r4
 80050d0:	f001 fc86 	bl	80069e0 <tcp_rexmit_fast>
 80050d4:	e013      	b.n	80050fe <tcp_receive+0x11e>
 80050d6:	bf00      	nop
 80050d8:	0800bb33 	.word	0x0800bb33
 80050dc:	0800bc11 	.word	0x0800bc11
 80050e0:	0800af68 	.word	0x0800af68
 80050e4:	0800bc2a 	.word	0x0800bc2a
 80050e8:	20005d18 	.word	0x20005d18
 80050ec:	20005d38 	.word	0x20005d38
 80050f0:	20005d52 	.word	0x20005d52
 80050f4:	20005d44 	.word	0x20005d44
 80050f8:	20005d14 	.word	0x20005d14
 80050fc:	d0e7      	beq.n	80050ce <tcp_receive+0xee>
 80050fe:	6b61      	ldr	r1, [r4, #52]	; 0x34
 8005100:	b349      	cbz	r1, 8005156 <tcp_receive+0x176>
 8005102:	6ba3      	ldr	r3, [r4, #56]	; 0x38
 8005104:	f8d9 2000 	ldr.w	r2, [r9]
 8005108:	1a9b      	subs	r3, r3, r2
 800510a:	2b00      	cmp	r3, #0
 800510c:	da23      	bge.n	8005156 <tcp_receive+0x176>
 800510e:	4bb6      	ldr	r3, [pc, #728]	; (80053e8 <tcp_receive+0x408>)
 8005110:	b289      	uxth	r1, r1
 8005112:	f8b3 c000 	ldrh.w	ip, [r3]
 8005116:	f9b4 303c 	ldrsh.w	r3, [r4, #60]	; 0x3c
 800511a:	ebac 0201 	sub.w	r2, ip, r1
 800511e:	f3c3 00cf 	ubfx	r0, r3, #3, #16
 8005122:	1a12      	subs	r2, r2, r0
 8005124:	b215      	sxth	r5, r2
 8005126:	fa13 f282 	uxtah	r2, r3, r2
 800512a:	f9b4 303e 	ldrsh.w	r3, [r4, #62]	; 0x3e
 800512e:	2d00      	cmp	r5, #0
 8005130:	b212      	sxth	r2, r2
 8005132:	eba3 03a3 	sub.w	r3, r3, r3, asr #2
 8005136:	bfb8      	it	lt
 8005138:	eba1 010c 	sublt.w	r1, r1, ip
 800513c:	87a2      	strh	r2, [r4, #60]	; 0x3c
 800513e:	bfbc      	itt	lt
 8005140:	1809      	addlt	r1, r1, r0
 8005142:	b20d      	sxthlt	r5, r1
 8005144:	442b      	add	r3, r5
 8005146:	b29b      	uxth	r3, r3
 8005148:	87e3      	strh	r3, [r4, #62]	; 0x3e
 800514a:	eb03 03e2 	add.w	r3, r3, r2, asr #3
 800514e:	f8a4 3040 	strh.w	r3, [r4, #64]	; 0x40
 8005152:	2300      	movs	r3, #0
 8005154:	6363      	str	r3, [r4, #52]	; 0x34
 8005156:	8838      	ldrh	r0, [r7, #0]
 8005158:	6833      	ldr	r3, [r6, #0]
 800515a:	6a62      	ldr	r2, [r4, #36]	; 0x24
 800515c:	2800      	cmp	r0, #0
 800515e:	f000 8359 	beq.w	8005814 <tcp_receive+0x834>
 8005162:	7d21      	ldrb	r1, [r4, #20]
 8005164:	2906      	cmp	r1, #6
 8005166:	f200 8355 	bhi.w	8005814 <tcp_receive+0x834>
 800516a:	1ad5      	subs	r5, r2, r3
 800516c:	2d01      	cmp	r5, #1
 800516e:	f100 81a6 	bmi.w	80054be <tcp_receive+0x4de>
 8005172:	f1c3 0101 	rsb	r1, r3, #1
 8005176:	1a09      	subs	r1, r1, r0
 8005178:	4411      	add	r1, r2
 800517a:	2900      	cmp	r1, #0
 800517c:	f300 819f 	bgt.w	80054be <tcp_receive+0x4de>
 8005180:	f8df 927c 	ldr.w	r9, [pc, #636]	; 8005400 <tcp_receive+0x420>
 8005184:	f8d9 8004 	ldr.w	r8, [r9, #4]
 8005188:	f1b8 0f00 	cmp.w	r8, #0
 800518c:	d106      	bne.n	800519c <tcp_receive+0x1bc>
 800518e:	4b97      	ldr	r3, [pc, #604]	; (80053ec <tcp_receive+0x40c>)
 8005190:	f240 5294 	movw	r2, #1428	; 0x594
 8005194:	4996      	ldr	r1, [pc, #600]	; (80053f0 <tcp_receive+0x410>)
 8005196:	4897      	ldr	r0, [pc, #604]	; (80053f4 <tcp_receive+0x414>)
 8005198:	f004 fe68 	bl	8009e6c <iprintf>
 800519c:	f64f 73fe 	movw	r3, #65534	; 0xfffe
 80051a0:	429d      	cmp	r5, r3
 80051a2:	d906      	bls.n	80051b2 <tcp_receive+0x1d2>
 80051a4:	4b91      	ldr	r3, [pc, #580]	; (80053ec <tcp_receive+0x40c>)
 80051a6:	f240 5295 	movw	r2, #1429	; 0x595
 80051aa:	4993      	ldr	r1, [pc, #588]	; (80053f8 <tcp_receive+0x418>)
 80051ac:	4891      	ldr	r0, [pc, #580]	; (80053f4 <tcp_receive+0x414>)
 80051ae:	f004 fe5d 	bl	8009e6c <iprintf>
 80051b2:	f8d9 3004 	ldr.w	r3, [r9, #4]
 80051b6:	b2ad      	uxth	r5, r5
 80051b8:	891b      	ldrh	r3, [r3, #8]
 80051ba:	42ab      	cmp	r3, r5
 80051bc:	d206      	bcs.n	80051cc <tcp_receive+0x1ec>
 80051be:	4b8b      	ldr	r3, [pc, #556]	; (80053ec <tcp_receive+0x40c>)
 80051c0:	f240 5297 	movw	r2, #1431	; 0x597
 80051c4:	498d      	ldr	r1, [pc, #564]	; (80053fc <tcp_receive+0x41c>)
 80051c6:	488b      	ldr	r0, [pc, #556]	; (80053f4 <tcp_receive+0x414>)
 80051c8:	f004 fe50 	bl	8009e6c <iprintf>
 80051cc:	f8b9 3008 	ldrh.w	r3, [r9, #8]
 80051d0:	2100      	movs	r1, #0
 80051d2:	1b5b      	subs	r3, r3, r5
 80051d4:	f8a9 3008 	strh.w	r3, [r9, #8]
 80051d8:	f8d9 3004 	ldr.w	r3, [r9, #4]
 80051dc:	891b      	ldrh	r3, [r3, #8]
 80051de:	1b5b      	subs	r3, r3, r5
 80051e0:	b29b      	uxth	r3, r3
 80051e2:	f8b8 200a 	ldrh.w	r2, [r8, #10]
 80051e6:	42aa      	cmp	r2, r5
 80051e8:	f0c0 8160 	bcc.w	80054ac <tcp_receive+0x4cc>
 80051ec:	4629      	mov	r1, r5
 80051ee:	4640      	mov	r0, r8
 80051f0:	f7fe fc02 	bl	80039f8 <pbuf_remove_header>
 80051f4:	6a63      	ldr	r3, [r4, #36]	; 0x24
 80051f6:	f8d9 200c 	ldr.w	r2, [r9, #12]
 80051fa:	6033      	str	r3, [r6, #0]
 80051fc:	6053      	str	r3, [r2, #4]
 80051fe:	6833      	ldr	r3, [r6, #0]
 8005200:	6a62      	ldr	r2, [r4, #36]	; 0x24
 8005202:	1a99      	subs	r1, r3, r2
 8005204:	2900      	cmp	r1, #0
 8005206:	f2c0 822e 	blt.w	8005666 <tcp_receive+0x686>
 800520a:	1c58      	adds	r0, r3, #1
 800520c:	8d25      	ldrh	r5, [r4, #40]	; 0x28
 800520e:	1a81      	subs	r1, r0, r2
 8005210:	1b49      	subs	r1, r1, r5
 8005212:	2900      	cmp	r1, #0
 8005214:	f300 8227 	bgt.w	8005666 <tcp_receive+0x686>
 8005218:	4293      	cmp	r3, r2
 800521a:	f040 821e 	bne.w	800565a <tcp_receive+0x67a>
 800521e:	4d78      	ldr	r5, [pc, #480]	; (8005400 <tcp_receive+0x420>)
 8005220:	68eb      	ldr	r3, [r5, #12]
 8005222:	f8b5 8008 	ldrh.w	r8, [r5, #8]
 8005226:	8998      	ldrh	r0, [r3, #12]
 8005228:	f7fd ff3e 	bl	80030a8 <lwip_htons>
 800522c:	f010 0003 	ands.w	r0, r0, #3
 8005230:	8d23      	ldrh	r3, [r4, #40]	; 0x28
 8005232:	bf18      	it	ne
 8005234:	2001      	movne	r0, #1
 8005236:	4440      	add	r0, r8
 8005238:	b280      	uxth	r0, r0
 800523a:	4283      	cmp	r3, r0
 800523c:	8038      	strh	r0, [r7, #0]
 800523e:	d241      	bcs.n	80052c4 <tcp_receive+0x2e4>
 8005240:	68eb      	ldr	r3, [r5, #12]
 8005242:	8998      	ldrh	r0, [r3, #12]
 8005244:	f7fd ff30 	bl	80030a8 <lwip_htons>
 8005248:	07c2      	lsls	r2, r0, #31
 800524a:	d510      	bpl.n	800526e <tcp_receive+0x28e>
 800524c:	68eb      	ldr	r3, [r5, #12]
 800524e:	f8b3 800c 	ldrh.w	r8, [r3, #12]
 8005252:	4640      	mov	r0, r8
 8005254:	f428 587c 	bic.w	r8, r8, #16128	; 0x3f00
 8005258:	f7fd ff26 	bl	80030a8 <lwip_htons>
 800525c:	f000 003e 	and.w	r0, r0, #62	; 0x3e
 8005260:	f7fd ff22 	bl	80030a8 <lwip_htons>
 8005264:	68eb      	ldr	r3, [r5, #12]
 8005266:	ea48 0800 	orr.w	r8, r8, r0
 800526a:	f8a3 800c 	strh.w	r8, [r3, #12]
 800526e:	8d23      	ldrh	r3, [r4, #40]	; 0x28
 8005270:	812b      	strh	r3, [r5, #8]
 8005272:	68eb      	ldr	r3, [r5, #12]
 8005274:	8998      	ldrh	r0, [r3, #12]
 8005276:	f7fd ff17 	bl	80030a8 <lwip_htons>
 800527a:	0783      	lsls	r3, r0, #30
 800527c:	6868      	ldr	r0, [r5, #4]
 800527e:	bf42      	ittt	mi
 8005280:	892b      	ldrhmi	r3, [r5, #8]
 8005282:	f103 33ff 	addmi.w	r3, r3, #4294967295
 8005286:	812b      	strhmi	r3, [r5, #8]
 8005288:	8929      	ldrh	r1, [r5, #8]
 800528a:	f7fe fccd 	bl	8003c28 <pbuf_realloc>
 800528e:	68eb      	ldr	r3, [r5, #12]
 8005290:	f8b5 8008 	ldrh.w	r8, [r5, #8]
 8005294:	8998      	ldrh	r0, [r3, #12]
 8005296:	f7fd ff07 	bl	80030a8 <lwip_htons>
 800529a:	f010 0003 	ands.w	r0, r0, #3
 800529e:	6833      	ldr	r3, [r6, #0]
 80052a0:	bf18      	it	ne
 80052a2:	2001      	movne	r0, #1
 80052a4:	6a62      	ldr	r2, [r4, #36]	; 0x24
 80052a6:	4440      	add	r0, r8
 80052a8:	b280      	uxth	r0, r0
 80052aa:	8038      	strh	r0, [r7, #0]
 80052ac:	4418      	add	r0, r3
 80052ae:	8d23      	ldrh	r3, [r4, #40]	; 0x28
 80052b0:	4413      	add	r3, r2
 80052b2:	4298      	cmp	r0, r3
 80052b4:	d006      	beq.n	80052c4 <tcp_receive+0x2e4>
 80052b6:	4b4d      	ldr	r3, [pc, #308]	; (80053ec <tcp_receive+0x40c>)
 80052b8:	f240 52cb 	movw	r2, #1483	; 0x5cb
 80052bc:	4951      	ldr	r1, [pc, #324]	; (8005404 <tcp_receive+0x424>)
 80052be:	484d      	ldr	r0, [pc, #308]	; (80053f4 <tcp_receive+0x414>)
 80052c0:	f004 fdd4 	bl	8009e6c <iprintf>
 80052c4:	6f63      	ldr	r3, [r4, #116]	; 0x74
 80052c6:	2b00      	cmp	r3, #0
 80052c8:	f000 8108 	beq.w	80054dc <tcp_receive+0x4fc>
 80052cc:	68eb      	ldr	r3, [r5, #12]
 80052ce:	8998      	ldrh	r0, [r3, #12]
 80052d0:	f7fd feea 	bl	80030a8 <lwip_htons>
 80052d4:	07c0      	lsls	r0, r0, #31
 80052d6:	f100 80fe 	bmi.w	80054d6 <tcp_receive+0x4f6>
 80052da:	f8d4 8074 	ldr.w	r8, [r4, #116]	; 0x74
 80052de:	6830      	ldr	r0, [r6, #0]
 80052e0:	883b      	ldrh	r3, [r7, #0]
 80052e2:	4403      	add	r3, r0
 80052e4:	f1b8 0f00 	cmp.w	r8, #0
 80052e8:	d038      	beq.n	800535c <tcp_receive+0x37c>
 80052ea:	f8d8 c00c 	ldr.w	ip, [r8, #12]
 80052ee:	f8b8 1008 	ldrh.w	r1, [r8, #8]
 80052f2:	f8dc 2004 	ldr.w	r2, [ip, #4]
 80052f6:	4411      	add	r1, r2
 80052f8:	1a59      	subs	r1, r3, r1
 80052fa:	2900      	cmp	r1, #0
 80052fc:	f280 811b 	bge.w	8005536 <tcp_receive+0x556>
 8005300:	1a9b      	subs	r3, r3, r2
 8005302:	2b00      	cmp	r3, #0
 8005304:	dd2a      	ble.n	800535c <tcp_receive+0x37c>
 8005306:	68eb      	ldr	r3, [r5, #12]
 8005308:	1a12      	subs	r2, r2, r0
 800530a:	812a      	strh	r2, [r5, #8]
 800530c:	8998      	ldrh	r0, [r3, #12]
 800530e:	f7fd fecb 	bl	80030a8 <lwip_htons>
 8005312:	0783      	lsls	r3, r0, #30
 8005314:	6868      	ldr	r0, [r5, #4]
 8005316:	bf42      	ittt	mi
 8005318:	892b      	ldrhmi	r3, [r5, #8]
 800531a:	f103 33ff 	addmi.w	r3, r3, #4294967295
 800531e:	812b      	strhmi	r3, [r5, #8]
 8005320:	8929      	ldrh	r1, [r5, #8]
 8005322:	f7fe fc81 	bl	8003c28 <pbuf_realloc>
 8005326:	68eb      	ldr	r3, [r5, #12]
 8005328:	f8b5 9008 	ldrh.w	r9, [r5, #8]
 800532c:	8998      	ldrh	r0, [r3, #12]
 800532e:	f7fd febb 	bl	80030a8 <lwip_htons>
 8005332:	f010 0003 	ands.w	r0, r0, #3
 8005336:	6833      	ldr	r3, [r6, #0]
 8005338:	bf18      	it	ne
 800533a:	2001      	movne	r0, #1
 800533c:	4448      	add	r0, r9
 800533e:	b280      	uxth	r0, r0
 8005340:	8038      	strh	r0, [r7, #0]
 8005342:	4418      	add	r0, r3
 8005344:	f8d8 300c 	ldr.w	r3, [r8, #12]
 8005348:	685b      	ldr	r3, [r3, #4]
 800534a:	4298      	cmp	r0, r3
 800534c:	d006      	beq.n	800535c <tcp_receive+0x37c>
 800534e:	4b27      	ldr	r3, [pc, #156]	; (80053ec <tcp_receive+0x40c>)
 8005350:	f240 52fc 	movw	r2, #1532	; 0x5fc
 8005354:	492c      	ldr	r1, [pc, #176]	; (8005408 <tcp_receive+0x428>)
 8005356:	4827      	ldr	r0, [pc, #156]	; (80053f4 <tcp_receive+0x414>)
 8005358:	f004 fd88 	bl	8009e6c <iprintf>
 800535c:	f8c4 8074 	str.w	r8, [r4, #116]	; 0x74
 8005360:	e0bc      	b.n	80054dc <tcp_receive+0x4fc>
 8005362:	2300      	movs	r3, #0
 8005364:	f884 3043 	strb.w	r3, [r4, #67]	; 0x43
 8005368:	e6c9      	b.n	80050fe <tcp_receive+0x11e>
 800536a:	6d21      	ldr	r1, [r4, #80]	; 0x50
 800536c:	1a51      	subs	r1, r2, r1
 800536e:	2900      	cmp	r1, #0
 8005370:	f300 8098 	bgt.w	80054a4 <tcp_receive+0x4c4>
 8005374:	8b61      	ldrh	r1, [r4, #26]
 8005376:	0748      	lsls	r0, r1, #29
 8005378:	d509      	bpl.n	800538e <tcp_receive+0x3ae>
 800537a:	f021 0104 	bic.w	r1, r1, #4
 800537e:	8361      	strh	r1, [r4, #26]
 8005380:	f8b4 104a 	ldrh.w	r1, [r4, #74]	; 0x4a
 8005384:	f8a4 1048 	strh.w	r1, [r4, #72]	; 0x48
 8005388:	2100      	movs	r1, #0
 800538a:	f8a4 106a 	strh.w	r1, [r4, #106]	; 0x6a
 800538e:	f9b4 003c 	ldrsh.w	r0, [r4, #60]	; 0x3c
 8005392:	8fe1      	ldrh	r1, [r4, #62]	; 0x3e
 8005394:	6462      	str	r2, [r4, #68]	; 0x44
 8005396:	eb01 01e0 	add.w	r1, r1, r0, asr #3
 800539a:	7d22      	ldrb	r2, [r4, #20]
 800539c:	f8a4 1040 	strh.w	r1, [r4, #64]	; 0x40
 80053a0:	2a03      	cmp	r2, #3
 80053a2:	f04f 0100 	mov.w	r1, #0
 80053a6:	f8a4 1042 	strh.w	r1, [r4, #66]	; 0x42
 80053aa:	d939      	bls.n	8005420 <tcp_receive+0x440>
 80053ac:	f8b4 2048 	ldrh.w	r2, [r4, #72]	; 0x48
 80053b0:	b29b      	uxth	r3, r3
 80053b2:	f8b4 104a 	ldrh.w	r1, [r4, #74]	; 0x4a
 80053b6:	4291      	cmp	r1, r2
 80053b8:	d928      	bls.n	800540c <tcp_receive+0x42c>
 80053ba:	8b61      	ldrh	r1, [r4, #26]
 80053bc:	f411 6f00 	tst.w	r1, #2048	; 0x800
 80053c0:	8e61      	ldrh	r1, [r4, #50]	; 0x32
 80053c2:	bf14      	ite	ne
 80053c4:	2001      	movne	r0, #1
 80053c6:	2002      	moveq	r0, #2
 80053c8:	fb11 f100 	smulbb	r1, r1, r0
 80053cc:	b289      	uxth	r1, r1
 80053ce:	4299      	cmp	r1, r3
 80053d0:	bf94      	ite	ls
 80053d2:	1850      	addls	r0, r2, r1
 80053d4:	18d0      	addhi	r0, r2, r3
 80053d6:	b283      	uxth	r3, r0
 80053d8:	429a      	cmp	r2, r3
 80053da:	d901      	bls.n	80053e0 <tcp_receive+0x400>
 80053dc:	f64f 73ff 	movw	r3, #65535	; 0xffff
 80053e0:	f8a4 3048 	strh.w	r3, [r4, #72]	; 0x48
 80053e4:	e01c      	b.n	8005420 <tcp_receive+0x440>
 80053e6:	bf00      	nop
 80053e8:	20005d08 	.word	0x20005d08
 80053ec:	0800bb33 	.word	0x0800bb33
 80053f0:	0800bc43 	.word	0x0800bc43
 80053f4:	0800af68 	.word	0x0800af68
 80053f8:	0800bc53 	.word	0x0800bc53
 80053fc:	0800bc62 	.word	0x0800bc62
 8005400:	20005d1c 	.word	0x20005d1c
 8005404:	0800bc72 	.word	0x0800bc72
 8005408:	0800bca9 	.word	0x0800bca9
 800540c:	f8b4 106a 	ldrh.w	r1, [r4, #106]	; 0x6a
 8005410:	440b      	add	r3, r1
 8005412:	b29b      	uxth	r3, r3
 8005414:	4299      	cmp	r1, r3
 8005416:	d82c      	bhi.n	8005472 <tcp_receive+0x492>
 8005418:	429a      	cmp	r2, r3
 800541a:	d92c      	bls.n	8005476 <tcp_receive+0x496>
 800541c:	f8a4 306a 	strh.w	r3, [r4, #106]	; 0x6a
 8005420:	4620      	mov	r0, r4
 8005422:	e9d4 211b 	ldrd	r2, r1, [r4, #108]	; 0x6c
 8005426:	f7ff fd79 	bl	8004f1c <tcp_free_acked_segments.constprop.0>
 800542a:	6ee1      	ldr	r1, [r4, #108]	; 0x6c
 800542c:	4602      	mov	r2, r0
 800542e:	6720      	str	r0, [r4, #112]	; 0x70
 8005430:	4620      	mov	r0, r4
 8005432:	f7ff fd73 	bl	8004f1c <tcp_free_acked_segments.constprop.0>
 8005436:	6f22      	ldr	r2, [r4, #112]	; 0x70
 8005438:	66e0      	str	r0, [r4, #108]	; 0x6c
 800543a:	fab2 f382 	clz	r3, r2
 800543e:	095b      	lsrs	r3, r3, #5
 8005440:	425b      	negs	r3, r3
 8005442:	8623      	strh	r3, [r4, #48]	; 0x30
 8005444:	2300      	movs	r3, #0
 8005446:	7723      	strb	r3, [r4, #28]
 8005448:	b908      	cbnz	r0, 800544e <tcp_receive+0x46e>
 800544a:	f8a4 0068 	strh.w	r0, [r4, #104]	; 0x68
 800544e:	499f      	ldr	r1, [pc, #636]	; (80056cc <tcp_receive+0x6ec>)
 8005450:	f8b4 3064 	ldrh.w	r3, [r4, #100]	; 0x64
 8005454:	8809      	ldrh	r1, [r1, #0]
 8005456:	440b      	add	r3, r1
 8005458:	f8a4 3064 	strh.w	r3, [r4, #100]	; 0x64
 800545c:	8b63      	ldrh	r3, [r4, #26]
 800545e:	0519      	lsls	r1, r3, #20
 8005460:	f57f ae4d 	bpl.w	80050fe <tcp_receive+0x11e>
 8005464:	b9d2      	cbnz	r2, 800549c <tcp_receive+0x4bc>
 8005466:	b968      	cbnz	r0, 8005484 <tcp_receive+0x4a4>
 8005468:	8b63      	ldrh	r3, [r4, #26]
 800546a:	f423 6300 	bic.w	r3, r3, #2048	; 0x800
 800546e:	8363      	strh	r3, [r4, #26]
 8005470:	e645      	b.n	80050fe <tcp_receive+0x11e>
 8005472:	f64f 73ff 	movw	r3, #65535	; 0xffff
 8005476:	1a9b      	subs	r3, r3, r2
 8005478:	f8a4 306a 	strh.w	r3, [r4, #106]	; 0x6a
 800547c:	8e63      	ldrh	r3, [r4, #50]	; 0x32
 800547e:	4413      	add	r3, r2
 8005480:	b29b      	uxth	r3, r3
 8005482:	e7a9      	b.n	80053d8 <tcp_receive+0x3f8>
 8005484:	f8d4 804c 	ldr.w	r8, [r4, #76]	; 0x4c
 8005488:	68c3      	ldr	r3, [r0, #12]
 800548a:	6858      	ldr	r0, [r3, #4]
 800548c:	f7fd fe0f 	bl	80030ae <lwip_htonl>
 8005490:	eba8 0000 	sub.w	r0, r8, r0
 8005494:	2800      	cmp	r0, #0
 8005496:	f73f ae32 	bgt.w	80050fe <tcp_receive+0x11e>
 800549a:	e7e5      	b.n	8005468 <tcp_receive+0x488>
 800549c:	f8d4 804c 	ldr.w	r8, [r4, #76]	; 0x4c
 80054a0:	68d3      	ldr	r3, [r2, #12]
 80054a2:	e7f2      	b.n	800548a <tcp_receive+0x4aa>
 80054a4:	4620      	mov	r0, r4
 80054a6:	f001 fb15 	bl	8006ad4 <tcp_send_empty_ack>
 80054aa:	e628      	b.n	80050fe <tcp_receive+0x11e>
 80054ac:	1aad      	subs	r5, r5, r2
 80054ae:	f8a8 3008 	strh.w	r3, [r8, #8]
 80054b2:	f8a8 100a 	strh.w	r1, [r8, #10]
 80054b6:	b2ad      	uxth	r5, r5
 80054b8:	f8d8 8000 	ldr.w	r8, [r8]
 80054bc:	e691      	b.n	80051e2 <tcp_receive+0x202>
 80054be:	1a9b      	subs	r3, r3, r2
 80054c0:	2b00      	cmp	r3, #0
 80054c2:	bfbe      	ittt	lt
 80054c4:	8b63      	ldrhlt	r3, [r4, #26]
 80054c6:	f043 0302 	orrlt.w	r3, r3, #2
 80054ca:	8363      	strhlt	r3, [r4, #26]
 80054cc:	e697      	b.n	80051fe <tcp_receive+0x21e>
 80054ce:	6803      	ldr	r3, [r0, #0]
 80054d0:	6763      	str	r3, [r4, #116]	; 0x74
 80054d2:	f7fe fe0d 	bl	80040f0 <tcp_seg_free>
 80054d6:	6f60      	ldr	r0, [r4, #116]	; 0x74
 80054d8:	2800      	cmp	r0, #0
 80054da:	d1f8      	bne.n	80054ce <tcp_receive+0x4ee>
 80054dc:	883a      	ldrh	r2, [r7, #0]
 80054de:	6833      	ldr	r3, [r6, #0]
 80054e0:	4413      	add	r3, r2
 80054e2:	6263      	str	r3, [r4, #36]	; 0x24
 80054e4:	8d23      	ldrh	r3, [r4, #40]	; 0x28
 80054e6:	4293      	cmp	r3, r2
 80054e8:	d206      	bcs.n	80054f8 <tcp_receive+0x518>
 80054ea:	4b79      	ldr	r3, [pc, #484]	; (80056d0 <tcp_receive+0x6f0>)
 80054ec:	f240 6207 	movw	r2, #1543	; 0x607
 80054f0:	4978      	ldr	r1, [pc, #480]	; (80056d4 <tcp_receive+0x6f4>)
 80054f2:	4879      	ldr	r0, [pc, #484]	; (80056d8 <tcp_receive+0x6f8>)
 80054f4:	f004 fcba 	bl	8009e6c <iprintf>
 80054f8:	8d23      	ldrh	r3, [r4, #40]	; 0x28
 80054fa:	4620      	mov	r0, r4
 80054fc:	883a      	ldrh	r2, [r7, #0]
 80054fe:	1a9b      	subs	r3, r3, r2
 8005500:	8523      	strh	r3, [r4, #40]	; 0x28
 8005502:	f7fe fd81 	bl	8004008 <tcp_update_rcv_ann_wnd>
 8005506:	686b      	ldr	r3, [r5, #4]
 8005508:	891a      	ldrh	r2, [r3, #8]
 800550a:	b11a      	cbz	r2, 8005514 <tcp_receive+0x534>
 800550c:	4a73      	ldr	r2, [pc, #460]	; (80056dc <tcp_receive+0x6fc>)
 800550e:	6013      	str	r3, [r2, #0]
 8005510:	2300      	movs	r3, #0
 8005512:	606b      	str	r3, [r5, #4]
 8005514:	68eb      	ldr	r3, [r5, #12]
 8005516:	8998      	ldrh	r0, [r3, #12]
 8005518:	f7fd fdc6 	bl	80030a8 <lwip_htons>
 800551c:	07c5      	lsls	r5, r0, #31
 800551e:	d504      	bpl.n	800552a <tcp_receive+0x54a>
 8005520:	4a6f      	ldr	r2, [pc, #444]	; (80056e0 <tcp_receive+0x700>)
 8005522:	7813      	ldrb	r3, [r2, #0]
 8005524:	f043 0320 	orr.w	r3, r3, #32
 8005528:	7013      	strb	r3, [r2, #0]
 800552a:	4f69      	ldr	r7, [pc, #420]	; (80056d0 <tcp_receive+0x6f0>)
 800552c:	f8df 81b8 	ldr.w	r8, [pc, #440]	; 80056e8 <tcp_receive+0x708>
 8005530:	f8df 91a4 	ldr.w	r9, [pc, #420]	; 80056d8 <tcp_receive+0x6f8>
 8005534:	e07b      	b.n	800562e <tcp_receive+0x64e>
 8005536:	f8bc 000c 	ldrh.w	r0, [ip, #12]
 800553a:	f7fd fdb5 	bl	80030a8 <lwip_htons>
 800553e:	07c1      	lsls	r1, r0, #31
 8005540:	d51a      	bpl.n	8005578 <tcp_receive+0x598>
 8005542:	68eb      	ldr	r3, [r5, #12]
 8005544:	8998      	ldrh	r0, [r3, #12]
 8005546:	f7fd fdaf 	bl	80030a8 <lwip_htons>
 800554a:	0782      	lsls	r2, r0, #30
 800554c:	d414      	bmi.n	8005578 <tcp_receive+0x598>
 800554e:	68eb      	ldr	r3, [r5, #12]
 8005550:	2001      	movs	r0, #1
 8005552:	f8b3 900c 	ldrh.w	r9, [r3, #12]
 8005556:	f7fd fda7 	bl	80030a8 <lwip_htons>
 800555a:	68eb      	ldr	r3, [r5, #12]
 800555c:	ea49 0000 	orr.w	r0, r9, r0
 8005560:	f8b5 9008 	ldrh.w	r9, [r5, #8]
 8005564:	8198      	strh	r0, [r3, #12]
 8005566:	b280      	uxth	r0, r0
 8005568:	f7fd fd9e 	bl	80030a8 <lwip_htons>
 800556c:	f010 0003 	ands.w	r0, r0, #3
 8005570:	bf18      	it	ne
 8005572:	2001      	movne	r0, #1
 8005574:	4448      	add	r0, r9
 8005576:	8038      	strh	r0, [r7, #0]
 8005578:	f8d8 9000 	ldr.w	r9, [r8]
 800557c:	4640      	mov	r0, r8
 800557e:	f7fe fdb7 	bl	80040f0 <tcp_seg_free>
 8005582:	46c8      	mov	r8, r9
 8005584:	e6ab      	b.n	80052de <tcp_receive+0x2fe>
 8005586:	6033      	str	r3, [r6, #0]
 8005588:	8990      	ldrh	r0, [r2, #12]
 800558a:	f8b5 a008 	ldrh.w	sl, [r5, #8]
 800558e:	f7fd fd8b 	bl	80030a8 <lwip_htons>
 8005592:	6a63      	ldr	r3, [r4, #36]	; 0x24
 8005594:	f010 0003 	ands.w	r0, r0, #3
 8005598:	f8b5 b008 	ldrh.w	fp, [r5, #8]
 800559c:	bf18      	it	ne
 800559e:	2001      	movne	r0, #1
 80055a0:	449a      	add	sl, r3
 80055a2:	68eb      	ldr	r3, [r5, #12]
 80055a4:	4450      	add	r0, sl
 80055a6:	f8b4 a028 	ldrh.w	sl, [r4, #40]	; 0x28
 80055aa:	6260      	str	r0, [r4, #36]	; 0x24
 80055ac:	8998      	ldrh	r0, [r3, #12]
 80055ae:	f7fd fd7b 	bl	80030a8 <lwip_htons>
 80055b2:	f010 0003 	ands.w	r0, r0, #3
 80055b6:	bf18      	it	ne
 80055b8:	2001      	movne	r0, #1
 80055ba:	4458      	add	r0, fp
 80055bc:	4582      	cmp	sl, r0
 80055be:	d206      	bcs.n	80055ce <tcp_receive+0x5ee>
 80055c0:	463b      	mov	r3, r7
 80055c2:	f240 622b 	movw	r2, #1579	; 0x62b
 80055c6:	4641      	mov	r1, r8
 80055c8:	4648      	mov	r0, r9
 80055ca:	f004 fc4f 	bl	8009e6c <iprintf>
 80055ce:	68eb      	ldr	r3, [r5, #12]
 80055d0:	f8b5 a008 	ldrh.w	sl, [r5, #8]
 80055d4:	8998      	ldrh	r0, [r3, #12]
 80055d6:	f7fd fd67 	bl	80030a8 <lwip_htons>
 80055da:	f010 0003 	ands.w	r0, r0, #3
 80055de:	8d23      	ldrh	r3, [r4, #40]	; 0x28
 80055e0:	bf18      	it	ne
 80055e2:	2001      	movne	r0, #1
 80055e4:	4450      	add	r0, sl
 80055e6:	1a18      	subs	r0, r3, r0
 80055e8:	8520      	strh	r0, [r4, #40]	; 0x28
 80055ea:	4620      	mov	r0, r4
 80055ec:	f7fe fd0c 	bl	8004008 <tcp_update_rcv_ann_wnd>
 80055f0:	6869      	ldr	r1, [r5, #4]
 80055f2:	890b      	ldrh	r3, [r1, #8]
 80055f4:	b133      	cbz	r3, 8005604 <tcp_receive+0x624>
 80055f6:	4b39      	ldr	r3, [pc, #228]	; (80056dc <tcp_receive+0x6fc>)
 80055f8:	6818      	ldr	r0, [r3, #0]
 80055fa:	b338      	cbz	r0, 800564c <tcp_receive+0x66c>
 80055fc:	f7fe fb88 	bl	8003d10 <pbuf_cat>
 8005600:	2300      	movs	r3, #0
 8005602:	606b      	str	r3, [r5, #4]
 8005604:	68eb      	ldr	r3, [r5, #12]
 8005606:	8998      	ldrh	r0, [r3, #12]
 8005608:	f7fd fd4e 	bl	80030a8 <lwip_htons>
 800560c:	07c0      	lsls	r0, r0, #31
 800560e:	d509      	bpl.n	8005624 <tcp_receive+0x644>
 8005610:	4a33      	ldr	r2, [pc, #204]	; (80056e0 <tcp_receive+0x700>)
 8005612:	7813      	ldrb	r3, [r2, #0]
 8005614:	f043 0320 	orr.w	r3, r3, #32
 8005618:	7013      	strb	r3, [r2, #0]
 800561a:	7d23      	ldrb	r3, [r4, #20]
 800561c:	2b04      	cmp	r3, #4
 800561e:	bf04      	itt	eq
 8005620:	2307      	moveq	r3, #7
 8005622:	7523      	strbeq	r3, [r4, #20]
 8005624:	682b      	ldr	r3, [r5, #0]
 8005626:	4628      	mov	r0, r5
 8005628:	6763      	str	r3, [r4, #116]	; 0x74
 800562a:	f7fe fd61 	bl	80040f0 <tcp_seg_free>
 800562e:	6f65      	ldr	r5, [r4, #116]	; 0x74
 8005630:	b125      	cbz	r5, 800563c <tcp_receive+0x65c>
 8005632:	68ea      	ldr	r2, [r5, #12]
 8005634:	6a61      	ldr	r1, [r4, #36]	; 0x24
 8005636:	6853      	ldr	r3, [r2, #4]
 8005638:	428b      	cmp	r3, r1
 800563a:	d0a4      	beq.n	8005586 <tcp_receive+0x5a6>
 800563c:	8b63      	ldrh	r3, [r4, #26]
 800563e:	07d9      	lsls	r1, r3, #31
 8005640:	d506      	bpl.n	8005650 <tcp_receive+0x670>
 8005642:	f023 0301 	bic.w	r3, r3, #1
 8005646:	f043 0302 	orr.w	r3, r3, #2
 800564a:	e003      	b.n	8005654 <tcp_receive+0x674>
 800564c:	6019      	str	r1, [r3, #0]
 800564e:	e7d7      	b.n	8005600 <tcp_receive+0x620>
 8005650:	f043 0301 	orr.w	r3, r3, #1
 8005654:	8363      	strh	r3, [r4, #26]
 8005656:	e8bd 8ff8 	ldmia.w	sp!, {r3, r4, r5, r6, r7, r8, r9, sl, fp, pc}
 800565a:	6f65      	ldr	r5, [r4, #116]	; 0x74
 800565c:	b945      	cbnz	r5, 8005670 <tcp_receive+0x690>
 800565e:	4821      	ldr	r0, [pc, #132]	; (80056e4 <tcp_receive+0x704>)
 8005660:	f7fe fd5c 	bl	800411c <tcp_seg_copy>
 8005664:	6760      	str	r0, [r4, #116]	; 0x74
 8005666:	4620      	mov	r0, r4
 8005668:	e8bd 4ff8 	ldmia.w	sp!, {r3, r4, r5, r6, r7, r8, r9, sl, fp, lr}
 800566c:	f001 ba32 	b.w	8006ad4 <tcp_send_empty_ack>
 8005670:	f04f 0800 	mov.w	r8, #0
 8005674:	f103 3eff 	add.w	lr, r3, #4294967295
 8005678:	f8d5 c00c 	ldr.w	ip, [r5, #12]
 800567c:	f8dc 2004 	ldr.w	r2, [ip, #4]
 8005680:	4293      	cmp	r3, r2
 8005682:	d115      	bne.n	80056b0 <tcp_receive+0x6d0>
 8005684:	4817      	ldr	r0, [pc, #92]	; (80056e4 <tcp_receive+0x704>)
 8005686:	892b      	ldrh	r3, [r5, #8]
 8005688:	8902      	ldrh	r2, [r0, #8]
 800568a:	429a      	cmp	r2, r3
 800568c:	d9eb      	bls.n	8005666 <tcp_receive+0x686>
 800568e:	f7fe fd45 	bl	800411c <tcp_seg_copy>
 8005692:	2800      	cmp	r0, #0
 8005694:	d0e7      	beq.n	8005666 <tcp_receive+0x686>
 8005696:	f1b8 0f00 	cmp.w	r8, #0
 800569a:	d007      	beq.n	80056ac <tcp_receive+0x6cc>
 800569c:	f8c8 0000 	str.w	r0, [r8]
 80056a0:	4629      	mov	r1, r5
 80056a2:	f7ff fb7d 	bl	8004da0 <tcp_oos_insert_segment>
 80056a6:	e7de      	b.n	8005666 <tcp_receive+0x686>
 80056a8:	460d      	mov	r5, r1
 80056aa:	e7e5      	b.n	8005678 <tcp_receive+0x698>
 80056ac:	6760      	str	r0, [r4, #116]	; 0x74
 80056ae:	e7f7      	b.n	80056a0 <tcp_receive+0x6c0>
 80056b0:	f1b8 0f00 	cmp.w	r8, #0
 80056b4:	d11a      	bne.n	80056ec <tcp_receive+0x70c>
 80056b6:	1a99      	subs	r1, r3, r2
 80056b8:	2900      	cmp	r1, #0
 80056ba:	da3e      	bge.n	800573a <tcp_receive+0x75a>
 80056bc:	4809      	ldr	r0, [pc, #36]	; (80056e4 <tcp_receive+0x704>)
 80056be:	f7fe fd2d 	bl	800411c <tcp_seg_copy>
 80056c2:	2800      	cmp	r0, #0
 80056c4:	d0cf      	beq.n	8005666 <tcp_receive+0x686>
 80056c6:	6760      	str	r0, [r4, #116]	; 0x74
 80056c8:	e7ea      	b.n	80056a0 <tcp_receive+0x6c0>
 80056ca:	bf00      	nop
 80056cc:	20005d2c 	.word	0x20005d2c
 80056d0:	0800bb33 	.word	0x0800bb33
 80056d4:	0800bce4 	.word	0x0800bce4
 80056d8:	0800af68 	.word	0x0800af68
 80056dc:	20005d30 	.word	0x20005d30
 80056e0:	20005d34 	.word	0x20005d34
 80056e4:	20005d1c 	.word	0x20005d1c
 80056e8:	0800bd03 	.word	0x0800bd03
 80056ec:	f8d8 100c 	ldr.w	r1, [r8, #12]
 80056f0:	6849      	ldr	r1, [r1, #4]
 80056f2:	ebae 0101 	sub.w	r1, lr, r1
 80056f6:	2900      	cmp	r1, #0
 80056f8:	db1f      	blt.n	800573a <tcp_receive+0x75a>
 80056fa:	1a81      	subs	r1, r0, r2
 80056fc:	2900      	cmp	r1, #0
 80056fe:	dc1c      	bgt.n	800573a <tcp_receive+0x75a>
 8005700:	484a      	ldr	r0, [pc, #296]	; (800582c <tcp_receive+0x84c>)
 8005702:	f7fe fd0b 	bl	800411c <tcp_seg_copy>
 8005706:	4607      	mov	r7, r0
 8005708:	2800      	cmp	r0, #0
 800570a:	d0ac      	beq.n	8005666 <tcp_receive+0x686>
 800570c:	f8d8 300c 	ldr.w	r3, [r8, #12]
 8005710:	6831      	ldr	r1, [r6, #0]
 8005712:	685a      	ldr	r2, [r3, #4]
 8005714:	f8b8 3008 	ldrh.w	r3, [r8, #8]
 8005718:	4413      	add	r3, r2
 800571a:	1a5b      	subs	r3, r3, r1
 800571c:	2b00      	cmp	r3, #0
 800571e:	dd07      	ble.n	8005730 <tcp_receive+0x750>
 8005720:	1a89      	subs	r1, r1, r2
 8005722:	f8d8 0004 	ldr.w	r0, [r8, #4]
 8005726:	b289      	uxth	r1, r1
 8005728:	f8a8 1008 	strh.w	r1, [r8, #8]
 800572c:	f7fe fa7c 	bl	8003c28 <pbuf_realloc>
 8005730:	4629      	mov	r1, r5
 8005732:	4638      	mov	r0, r7
 8005734:	f8c8 7000 	str.w	r7, [r8]
 8005738:	e7b3      	b.n	80056a2 <tcp_receive+0x6c2>
 800573a:	6829      	ldr	r1, [r5, #0]
 800573c:	46a8      	mov	r8, r5
 800573e:	2900      	cmp	r1, #0
 8005740:	d1b2      	bne.n	80056a8 <tcp_receive+0x6c8>
 8005742:	1a9b      	subs	r3, r3, r2
 8005744:	2b00      	cmp	r3, #0
 8005746:	dd8e      	ble.n	8005666 <tcp_receive+0x686>
 8005748:	f8bc 000c 	ldrh.w	r0, [ip, #12]
 800574c:	f7fd fcac 	bl	80030a8 <lwip_htons>
 8005750:	07c2      	lsls	r2, r0, #31
 8005752:	d488      	bmi.n	8005666 <tcp_receive+0x686>
 8005754:	4835      	ldr	r0, [pc, #212]	; (800582c <tcp_receive+0x84c>)
 8005756:	f7fe fce1 	bl	800411c <tcp_seg_copy>
 800575a:	6028      	str	r0, [r5, #0]
 800575c:	2800      	cmp	r0, #0
 800575e:	d082      	beq.n	8005666 <tcp_receive+0x686>
 8005760:	68eb      	ldr	r3, [r5, #12]
 8005762:	6831      	ldr	r1, [r6, #0]
 8005764:	685a      	ldr	r2, [r3, #4]
 8005766:	892b      	ldrh	r3, [r5, #8]
 8005768:	4413      	add	r3, r2
 800576a:	1a5b      	subs	r3, r3, r1
 800576c:	2b00      	cmp	r3, #0
 800576e:	dd05      	ble.n	800577c <tcp_receive+0x79c>
 8005770:	1a89      	subs	r1, r1, r2
 8005772:	6868      	ldr	r0, [r5, #4]
 8005774:	b289      	uxth	r1, r1
 8005776:	8129      	strh	r1, [r5, #8]
 8005778:	f7fe fa56 	bl	8003c28 <pbuf_realloc>
 800577c:	6832      	ldr	r2, [r6, #0]
 800577e:	883b      	ldrh	r3, [r7, #0]
 8005780:	4413      	add	r3, r2
 8005782:	6a62      	ldr	r2, [r4, #36]	; 0x24
 8005784:	1a9b      	subs	r3, r3, r2
 8005786:	8d22      	ldrh	r2, [r4, #40]	; 0x28
 8005788:	1a9b      	subs	r3, r3, r2
 800578a:	2b00      	cmp	r3, #0
 800578c:	f77f af6b 	ble.w	8005666 <tcp_receive+0x686>
 8005790:	682b      	ldr	r3, [r5, #0]
 8005792:	68db      	ldr	r3, [r3, #12]
 8005794:	8998      	ldrh	r0, [r3, #12]
 8005796:	f7fd fc87 	bl	80030a8 <lwip_htons>
 800579a:	07c3      	lsls	r3, r0, #31
 800579c:	d512      	bpl.n	80057c4 <tcp_receive+0x7e4>
 800579e:	682b      	ldr	r3, [r5, #0]
 80057a0:	68db      	ldr	r3, [r3, #12]
 80057a2:	f8b3 800c 	ldrh.w	r8, [r3, #12]
 80057a6:	4640      	mov	r0, r8
 80057a8:	f428 587c 	bic.w	r8, r8, #16128	; 0x3f00
 80057ac:	f7fd fc7c 	bl	80030a8 <lwip_htons>
 80057b0:	f000 003e 	and.w	r0, r0, #62	; 0x3e
 80057b4:	f7fd fc78 	bl	80030a8 <lwip_htons>
 80057b8:	682b      	ldr	r3, [r5, #0]
 80057ba:	ea48 0800 	orr.w	r8, r8, r0
 80057be:	68db      	ldr	r3, [r3, #12]
 80057c0:	f8a3 800c 	strh.w	r8, [r3, #12]
 80057c4:	6832      	ldr	r2, [r6, #0]
 80057c6:	8d21      	ldrh	r1, [r4, #40]	; 0x28
 80057c8:	682b      	ldr	r3, [r5, #0]
 80057ca:	1a89      	subs	r1, r1, r2
 80057cc:	6a62      	ldr	r2, [r4, #36]	; 0x24
 80057ce:	6858      	ldr	r0, [r3, #4]
 80057d0:	4411      	add	r1, r2
 80057d2:	b289      	uxth	r1, r1
 80057d4:	8119      	strh	r1, [r3, #8]
 80057d6:	f7fe fa27 	bl	8003c28 <pbuf_realloc>
 80057da:	682b      	ldr	r3, [r5, #0]
 80057dc:	891d      	ldrh	r5, [r3, #8]
 80057de:	68db      	ldr	r3, [r3, #12]
 80057e0:	8998      	ldrh	r0, [r3, #12]
 80057e2:	f7fd fc61 	bl	80030a8 <lwip_htons>
 80057e6:	f010 0003 	ands.w	r0, r0, #3
 80057ea:	6833      	ldr	r3, [r6, #0]
 80057ec:	bf18      	it	ne
 80057ee:	2001      	movne	r0, #1
 80057f0:	6a62      	ldr	r2, [r4, #36]	; 0x24
 80057f2:	4428      	add	r0, r5
 80057f4:	b280      	uxth	r0, r0
 80057f6:	8038      	strh	r0, [r7, #0]
 80057f8:	4418      	add	r0, r3
 80057fa:	8d23      	ldrh	r3, [r4, #40]	; 0x28
 80057fc:	4413      	add	r3, r2
 80057fe:	4298      	cmp	r0, r3
 8005800:	f43f af31 	beq.w	8005666 <tcp_receive+0x686>
 8005804:	4b0a      	ldr	r3, [pc, #40]	; (8005830 <tcp_receive+0x850>)
 8005806:	f44f 62df 	mov.w	r2, #1784	; 0x6f8
 800580a:	490a      	ldr	r1, [pc, #40]	; (8005834 <tcp_receive+0x854>)
 800580c:	480a      	ldr	r0, [pc, #40]	; (8005838 <tcp_receive+0x858>)
 800580e:	f004 fb2d 	bl	8009e6c <iprintf>
 8005812:	e728      	b.n	8005666 <tcp_receive+0x686>
 8005814:	1a99      	subs	r1, r3, r2
 8005816:	2900      	cmp	r1, #0
 8005818:	db06      	blt.n	8005828 <tcp_receive+0x848>
 800581a:	3301      	adds	r3, #1
 800581c:	1a9b      	subs	r3, r3, r2
 800581e:	8d22      	ldrh	r2, [r4, #40]	; 0x28
 8005820:	1a9b      	subs	r3, r3, r2
 8005822:	2b00      	cmp	r3, #0
 8005824:	f77f af17 	ble.w	8005656 <tcp_receive+0x676>
 8005828:	8b63      	ldrh	r3, [r4, #26]
 800582a:	e70c      	b.n	8005646 <tcp_receive+0x666>
 800582c:	20005d1c 	.word	0x20005d1c
 8005830:	0800bb33 	.word	0x0800bb33
 8005834:	0800bc72 	.word	0x0800bc72
 8005838:	0800af68 	.word	0x0800af68

0800583c <tcp_input>:
 800583c:	e92d 4ff0 	stmdb	sp!, {r4, r5, r6, r7, r8, r9, sl, fp, lr}
 8005840:	4605      	mov	r5, r0
 8005842:	b087      	sub	sp, #28
 8005844:	b928      	cbnz	r0, 8005852 <tcp_input+0x16>
 8005846:	4b63      	ldr	r3, [pc, #396]	; (80059d4 <tcp_input+0x198>)
 8005848:	2283      	movs	r2, #131	; 0x83
 800584a:	4963      	ldr	r1, [pc, #396]	; (80059d8 <tcp_input+0x19c>)
 800584c:	4863      	ldr	r0, [pc, #396]	; (80059dc <tcp_input+0x1a0>)
 800584e:	f004 fb0d 	bl	8009e6c <iprintf>
 8005852:	686b      	ldr	r3, [r5, #4]
 8005854:	4e62      	ldr	r6, [pc, #392]	; (80059e0 <tcp_input+0x1a4>)
 8005856:	6033      	str	r3, [r6, #0]
 8005858:	896b      	ldrh	r3, [r5, #10]
 800585a:	2b13      	cmp	r3, #19
 800585c:	f240 80b3 	bls.w	80059c6 <tcp_input+0x18a>
 8005860:	4f60      	ldr	r7, [pc, #384]	; (80059e4 <tcp_input+0x1a8>)
 8005862:	6839      	ldr	r1, [r7, #0]
 8005864:	6978      	ldr	r0, [r7, #20]
 8005866:	f003 fe36 	bl	80094d6 <ip4_addr_isbroadcast_u32>
 800586a:	4604      	mov	r4, r0
 800586c:	2800      	cmp	r0, #0
 800586e:	f040 80aa 	bne.w	80059c6 <tcp_input+0x18a>
 8005872:	697b      	ldr	r3, [r7, #20]
 8005874:	f003 03f0 	and.w	r3, r3, #240	; 0xf0
 8005878:	2be0      	cmp	r3, #224	; 0xe0
 800587a:	f000 80a4 	beq.w	80059c6 <tcp_input+0x18a>
 800587e:	6833      	ldr	r3, [r6, #0]
 8005880:	8998      	ldrh	r0, [r3, #12]
 8005882:	f7fd fc11 	bl	80030a8 <lwip_htons>
 8005886:	0a81      	lsrs	r1, r0, #10
 8005888:	f001 01fc 	and.w	r1, r1, #252	; 0xfc
 800588c:	2913      	cmp	r1, #19
 800588e:	f240 809a 	bls.w	80059c6 <tcp_input+0x18a>
 8005892:	892b      	ldrh	r3, [r5, #8]
 8005894:	b28a      	uxth	r2, r1
 8005896:	428b      	cmp	r3, r1
 8005898:	f0c0 8095 	bcc.w	80059c6 <tcp_input+0x18a>
 800589c:	f1a2 0314 	sub.w	r3, r2, #20
 80058a0:	8968      	ldrh	r0, [r5, #10]
 80058a2:	f8df 8160 	ldr.w	r8, [pc, #352]	; 8005a04 <tcp_input+0x1c8>
 80058a6:	b29b      	uxth	r3, r3
 80058a8:	f8df a15c 	ldr.w	sl, [pc, #348]	; 8005a08 <tcp_input+0x1cc>
 80058ac:	4290      	cmp	r0, r2
 80058ae:	f8df 915c 	ldr.w	r9, [pc, #348]	; 8005a0c <tcp_input+0x1d0>
 80058b2:	f8a8 3000 	strh.w	r3, [r8]
 80058b6:	f8ca 4000 	str.w	r4, [sl]
 80058ba:	d342      	bcc.n	8005942 <tcp_input+0x106>
 80058bc:	4628      	mov	r0, r5
 80058be:	f8a9 3000 	strh.w	r3, [r9]
 80058c2:	f7fe f899 	bl	80039f8 <pbuf_remove_header>
 80058c6:	6834      	ldr	r4, [r6, #0]
 80058c8:	f8df b144 	ldr.w	fp, [pc, #324]	; 8005a10 <tcp_input+0x1d4>
 80058cc:	8820      	ldrh	r0, [r4, #0]
 80058ce:	f7fd fbeb 	bl	80030a8 <lwip_htons>
 80058d2:	8020      	strh	r0, [r4, #0]
 80058d4:	6834      	ldr	r4, [r6, #0]
 80058d6:	8860      	ldrh	r0, [r4, #2]
 80058d8:	f7fd fbe6 	bl	80030a8 <lwip_htons>
 80058dc:	8060      	strh	r0, [r4, #2]
 80058de:	6834      	ldr	r4, [r6, #0]
 80058e0:	6860      	ldr	r0, [r4, #4]
 80058e2:	f7fd fbe4 	bl	80030ae <lwip_htonl>
 80058e6:	4b40      	ldr	r3, [pc, #256]	; (80059e8 <tcp_input+0x1ac>)
 80058e8:	6060      	str	r0, [r4, #4]
 80058ea:	6834      	ldr	r4, [r6, #0]
 80058ec:	6018      	str	r0, [r3, #0]
 80058ee:	68a0      	ldr	r0, [r4, #8]
 80058f0:	f7fd fbdd 	bl	80030ae <lwip_htonl>
 80058f4:	60a0      	str	r0, [r4, #8]
 80058f6:	6834      	ldr	r4, [r6, #0]
 80058f8:	f8cb 0000 	str.w	r0, [fp]
 80058fc:	89e0      	ldrh	r0, [r4, #14]
 80058fe:	f7fd fbd3 	bl	80030a8 <lwip_htons>
 8005902:	6833      	ldr	r3, [r6, #0]
 8005904:	81e0      	strh	r0, [r4, #14]
 8005906:	8998      	ldrh	r0, [r3, #12]
 8005908:	f7fd fbce 	bl	80030a8 <lwip_htons>
 800590c:	4a37      	ldr	r2, [pc, #220]	; (80059ec <tcp_input+0x1b0>)
 800590e:	f000 033f 	and.w	r3, r0, #63	; 0x3f
 8005912:	7013      	strb	r3, [r2, #0]
 8005914:	0783      	lsls	r3, r0, #30
 8005916:	892a      	ldrh	r2, [r5, #8]
 8005918:	d14f      	bne.n	80059ba <tcp_input+0x17e>
 800591a:	4b35      	ldr	r3, [pc, #212]	; (80059f0 <tcp_input+0x1b4>)
 800591c:	801a      	strh	r2, [r3, #0]
 800591e:	f8df 80f4 	ldr.w	r8, [pc, #244]	; 8005a14 <tcp_input+0x1d8>
 8005922:	f04f 0a00 	mov.w	sl, #0
 8005926:	4b2b      	ldr	r3, [pc, #172]	; (80059d4 <tcp_input+0x198>)
 8005928:	f8d8 4000 	ldr.w	r4, [r8]
 800592c:	f8df 90ac 	ldr.w	r9, [pc, #172]	; 80059dc <tcp_input+0x1a0>
 8005930:	2c00      	cmp	r4, #0
 8005932:	d173      	bne.n	8005a1c <tcp_input+0x1e0>
 8005934:	4b2f      	ldr	r3, [pc, #188]	; (80059f4 <tcp_input+0x1b8>)
 8005936:	f8df a0e0 	ldr.w	sl, [pc, #224]	; 8005a18 <tcp_input+0x1dc>
 800593a:	681c      	ldr	r4, [r3, #0]
 800593c:	f8df 909c 	ldr.w	r9, [pc, #156]	; 80059dc <tcp_input+0x1a0>
 8005940:	e15a      	b.n	8005bf8 <tcp_input+0x3bc>
 8005942:	682b      	ldr	r3, [r5, #0]
 8005944:	b92b      	cbnz	r3, 8005952 <tcp_input+0x116>
 8005946:	4b23      	ldr	r3, [pc, #140]	; (80059d4 <tcp_input+0x198>)
 8005948:	22c2      	movs	r2, #194	; 0xc2
 800594a:	492b      	ldr	r1, [pc, #172]	; (80059f8 <tcp_input+0x1bc>)
 800594c:	4823      	ldr	r0, [pc, #140]	; (80059dc <tcp_input+0x1a0>)
 800594e:	f004 fa8d 	bl	8009e6c <iprintf>
 8005952:	2114      	movs	r1, #20
 8005954:	4628      	mov	r0, r5
 8005956:	f7fe f84f 	bl	80039f8 <pbuf_remove_header>
 800595a:	896c      	ldrh	r4, [r5, #10]
 800595c:	4628      	mov	r0, r5
 800595e:	f8a9 4000 	strh.w	r4, [r9]
 8005962:	4621      	mov	r1, r4
 8005964:	f8b8 9000 	ldrh.w	r9, [r8]
 8005968:	f7fe f846 	bl	80039f8 <pbuf_remove_header>
 800596c:	6828      	ldr	r0, [r5, #0]
 800596e:	eba9 0804 	sub.w	r8, r9, r4
 8005972:	8943      	ldrh	r3, [r0, #10]
 8005974:	fa1f f888 	uxth.w	r8, r8
 8005978:	4543      	cmp	r3, r8
 800597a:	d324      	bcc.n	80059c6 <tcp_input+0x18a>
 800597c:	6843      	ldr	r3, [r0, #4]
 800597e:	4641      	mov	r1, r8
 8005980:	f8ca 3000 	str.w	r3, [sl]
 8005984:	f7fe f838 	bl	80039f8 <pbuf_remove_header>
 8005988:	892b      	ldrh	r3, [r5, #8]
 800598a:	441c      	add	r4, r3
 800598c:	896b      	ldrh	r3, [r5, #10]
 800598e:	eba4 0409 	sub.w	r4, r4, r9
 8005992:	812c      	strh	r4, [r5, #8]
 8005994:	b12b      	cbz	r3, 80059a2 <tcp_input+0x166>
 8005996:	4b0f      	ldr	r3, [pc, #60]	; (80059d4 <tcp_input+0x198>)
 8005998:	22df      	movs	r2, #223	; 0xdf
 800599a:	4918      	ldr	r1, [pc, #96]	; (80059fc <tcp_input+0x1c0>)
 800599c:	480f      	ldr	r0, [pc, #60]	; (80059dc <tcp_input+0x1a0>)
 800599e:	f004 fa65 	bl	8009e6c <iprintf>
 80059a2:	682b      	ldr	r3, [r5, #0]
 80059a4:	892a      	ldrh	r2, [r5, #8]
 80059a6:	891b      	ldrh	r3, [r3, #8]
 80059a8:	429a      	cmp	r2, r3
 80059aa:	d08c      	beq.n	80058c6 <tcp_input+0x8a>
 80059ac:	4b09      	ldr	r3, [pc, #36]	; (80059d4 <tcp_input+0x198>)
 80059ae:	22e0      	movs	r2, #224	; 0xe0
 80059b0:	4913      	ldr	r1, [pc, #76]	; (8005a00 <tcp_input+0x1c4>)
 80059b2:	480a      	ldr	r0, [pc, #40]	; (80059dc <tcp_input+0x1a0>)
 80059b4:	f004 fa5a 	bl	8009e6c <iprintf>
 80059b8:	e785      	b.n	80058c6 <tcp_input+0x8a>
 80059ba:	1c53      	adds	r3, r2, #1
 80059bc:	490c      	ldr	r1, [pc, #48]	; (80059f0 <tcp_input+0x1b4>)
 80059be:	b29b      	uxth	r3, r3
 80059c0:	429a      	cmp	r2, r3
 80059c2:	800b      	strh	r3, [r1, #0]
 80059c4:	d9ab      	bls.n	800591e <tcp_input+0xe2>
 80059c6:	4628      	mov	r0, r5
 80059c8:	b007      	add	sp, #28
 80059ca:	e8bd 4ff0 	ldmia.w	sp!, {r4, r5, r6, r7, r8, r9, sl, fp, lr}
 80059ce:	f7fe b847 	b.w	8003a60 <pbuf_free>
 80059d2:	bf00      	nop
 80059d4:	0800bb33 	.word	0x0800bb33
 80059d8:	0800bd28 	.word	0x0800bd28
 80059dc:	0800af68 	.word	0x0800af68
 80059e0:	20005d44 	.word	0x20005d44
 80059e4:	200005b0 	.word	0x200005b0
 80059e8:	20005d38 	.word	0x20005d38
 80059ec:	20005d18 	.word	0x20005d18
 80059f0:	20005d52 	.word	0x20005d52
 80059f4:	20005d10 	.word	0x20005d10
 80059f8:	0800bd40 	.word	0x0800bd40
 80059fc:	0800bd50 	.word	0x0800bd50
 8005a00:	0800bd5c 	.word	0x0800bd5c
 8005a04:	20005d50 	.word	0x20005d50
 8005a08:	20005d4c 	.word	0x20005d4c
 8005a0c:	20005d48 	.word	0x20005d48
 8005a10:	20005d14 	.word	0x20005d14
 8005a14:	20005cf8 	.word	0x20005cf8
 8005a18:	0800be48 	.word	0x0800be48
 8005a1c:	7d22      	ldrb	r2, [r4, #20]
 8005a1e:	b92a      	cbnz	r2, 8005a2c <tcp_input+0x1f0>
 8005a20:	22fb      	movs	r2, #251	; 0xfb
 8005a22:	499d      	ldr	r1, [pc, #628]	; (8005c98 <tcp_input+0x45c>)
 8005a24:	4648      	mov	r0, r9
 8005a26:	f004 fa21 	bl	8009e6c <iprintf>
 8005a2a:	4b9c      	ldr	r3, [pc, #624]	; (8005c9c <tcp_input+0x460>)
 8005a2c:	7d22      	ldrb	r2, [r4, #20]
 8005a2e:	2a0a      	cmp	r2, #10
 8005a30:	d105      	bne.n	8005a3e <tcp_input+0x202>
 8005a32:	22fc      	movs	r2, #252	; 0xfc
 8005a34:	499a      	ldr	r1, [pc, #616]	; (8005ca0 <tcp_input+0x464>)
 8005a36:	4648      	mov	r0, r9
 8005a38:	f004 fa18 	bl	8009e6c <iprintf>
 8005a3c:	4b97      	ldr	r3, [pc, #604]	; (8005c9c <tcp_input+0x460>)
 8005a3e:	7d22      	ldrb	r2, [r4, #20]
 8005a40:	2a01      	cmp	r2, #1
 8005a42:	d105      	bne.n	8005a50 <tcp_input+0x214>
 8005a44:	22fd      	movs	r2, #253	; 0xfd
 8005a46:	4997      	ldr	r1, [pc, #604]	; (8005ca4 <tcp_input+0x468>)
 8005a48:	4648      	mov	r0, r9
 8005a4a:	f004 fa0f 	bl	8009e6c <iprintf>
 8005a4e:	4b93      	ldr	r3, [pc, #588]	; (8005c9c <tcp_input+0x460>)
 8005a50:	7a20      	ldrb	r0, [r4, #8]
 8005a52:	68e1      	ldr	r1, [r4, #12]
 8005a54:	b130      	cbz	r0, 8005a64 <tcp_input+0x228>
 8005a56:	687a      	ldr	r2, [r7, #4]
 8005a58:	f892 2034 	ldrb.w	r2, [r2, #52]	; 0x34
 8005a5c:	3201      	adds	r2, #1
 8005a5e:	b2d2      	uxtb	r2, r2
 8005a60:	4290      	cmp	r0, r2
 8005a62:	d173      	bne.n	8005b4c <tcp_input+0x310>
 8005a64:	6832      	ldr	r2, [r6, #0]
 8005a66:	f8b4 c018 	ldrh.w	ip, [r4, #24]
 8005a6a:	8810      	ldrh	r0, [r2, #0]
 8005a6c:	4584      	cmp	ip, r0
 8005a6e:	d16d      	bne.n	8005b4c <tcp_input+0x310>
 8005a70:	8ae0      	ldrh	r0, [r4, #22]
 8005a72:	8852      	ldrh	r2, [r2, #2]
 8005a74:	4290      	cmp	r0, r2
 8005a76:	d169      	bne.n	8005b4c <tcp_input+0x310>
 8005a78:	6860      	ldr	r0, [r4, #4]
 8005a7a:	693a      	ldr	r2, [r7, #16]
 8005a7c:	4290      	cmp	r0, r2
 8005a7e:	d165      	bne.n	8005b4c <tcp_input+0x310>
 8005a80:	6820      	ldr	r0, [r4, #0]
 8005a82:	697a      	ldr	r2, [r7, #20]
 8005a84:	4290      	cmp	r0, r2
 8005a86:	d161      	bne.n	8005b4c <tcp_input+0x310>
 8005a88:	42a1      	cmp	r1, r4
 8005a8a:	f040 8445 	bne.w	8006318 <tcp_input+0xadc>
 8005a8e:	4b83      	ldr	r3, [pc, #524]	; (8005c9c <tcp_input+0x460>)
 8005a90:	f240 120d 	movw	r2, #269	; 0x10d
 8005a94:	4984      	ldr	r1, [pc, #528]	; (8005ca8 <tcp_input+0x46c>)
 8005a96:	4885      	ldr	r0, [pc, #532]	; (8005cac <tcp_input+0x470>)
 8005a98:	f004 f9e8 	bl	8009e6c <iprintf>
 8005a9c:	f1ba 0f00 	cmp.w	sl, #0
 8005aa0:	d007      	beq.n	8005ab2 <tcp_input+0x276>
 8005aa2:	68e3      	ldr	r3, [r4, #12]
 8005aa4:	f8ca 300c 	str.w	r3, [sl, #12]
 8005aa8:	f8d8 3000 	ldr.w	r3, [r8]
 8005aac:	f8c8 4000 	str.w	r4, [r8]
 8005ab0:	60e3      	str	r3, [r4, #12]
 8005ab2:	68e3      	ldr	r3, [r4, #12]
 8005ab4:	42a3      	cmp	r3, r4
 8005ab6:	d106      	bne.n	8005ac6 <tcp_input+0x28a>
 8005ab8:	4b78      	ldr	r3, [pc, #480]	; (8005c9c <tcp_input+0x460>)
 8005aba:	f240 1215 	movw	r2, #277	; 0x115
 8005abe:	497c      	ldr	r1, [pc, #496]	; (8005cb0 <tcp_input+0x474>)
 8005ac0:	487a      	ldr	r0, [pc, #488]	; (8005cac <tcp_input+0x470>)
 8005ac2:	f004 f9d3 	bl	8009e6c <iprintf>
 8005ac6:	f8df 9210 	ldr.w	r9, [pc, #528]	; 8005cd8 <tcp_input+0x49c>
 8005aca:	2300      	movs	r3, #0
 8005acc:	892a      	ldrh	r2, [r5, #8]
 8005ace:	f8df a20c 	ldr.w	sl, [pc, #524]	; 8005cdc <tcp_input+0x4a0>
 8005ad2:	f8a9 2008 	strh.w	r2, [r9, #8]
 8005ad6:	6832      	ldr	r2, [r6, #0]
 8005ad8:	4f76      	ldr	r7, [pc, #472]	; (8005cb4 <tcp_input+0x478>)
 8005ada:	f8c9 200c 	str.w	r2, [r9, #12]
 8005ade:	4a76      	ldr	r2, [pc, #472]	; (8005cb8 <tcp_input+0x47c>)
 8005ae0:	f8c9 3000 	str.w	r3, [r9]
 8005ae4:	f8ca 3000 	str.w	r3, [sl]
 8005ae8:	703b      	strb	r3, [r7, #0]
 8005aea:	8013      	strh	r3, [r2, #0]
 8005aec:	4b73      	ldr	r3, [pc, #460]	; (8005cbc <tcp_input+0x480>)
 8005aee:	f8c9 5004 	str.w	r5, [r9, #4]
 8005af2:	781b      	ldrb	r3, [r3, #0]
 8005af4:	071b      	lsls	r3, r3, #28
 8005af6:	d503      	bpl.n	8005b00 <tcp_input+0x2c4>
 8005af8:	7b6b      	ldrb	r3, [r5, #13]
 8005afa:	f043 0301 	orr.w	r3, r3, #1
 8005afe:	736b      	strb	r3, [r5, #13]
 8005b00:	6fa3      	ldr	r3, [r4, #120]	; 0x78
 8005b02:	4d6f      	ldr	r5, [pc, #444]	; (8005cc0 <tcp_input+0x484>)
 8005b04:	2b00      	cmp	r3, #0
 8005b06:	f000 814c 	beq.w	8005da2 <tcp_input+0x566>
 8005b0a:	4620      	mov	r0, r4
 8005b0c:	f7fe fe78 	bl	8004800 <tcp_process_refused_data>
 8005b10:	300d      	adds	r0, #13
 8005b12:	d008      	beq.n	8005b26 <tcp_input+0x2ea>
 8005b14:	6fa3      	ldr	r3, [r4, #120]	; 0x78
 8005b16:	2b00      	cmp	r3, #0
 8005b18:	f000 8143 	beq.w	8005da2 <tcp_input+0x566>
 8005b1c:	4b69      	ldr	r3, [pc, #420]	; (8005cc4 <tcp_input+0x488>)
 8005b1e:	881b      	ldrh	r3, [r3, #0]
 8005b20:	2b00      	cmp	r3, #0
 8005b22:	f000 813e 	beq.w	8005da2 <tcp_input+0x566>
 8005b26:	8d63      	ldrh	r3, [r4, #42]	; 0x2a
 8005b28:	b913      	cbnz	r3, 8005b30 <tcp_input+0x2f4>
 8005b2a:	4620      	mov	r0, r4
 8005b2c:	f000 ffd2 	bl	8006ad4 <tcp_send_empty_ack>
 8005b30:	2400      	movs	r4, #0
 8005b32:	f8d9 0004 	ldr.w	r0, [r9, #4]
 8005b36:	602c      	str	r4, [r5, #0]
 8005b38:	f8ca 4000 	str.w	r4, [sl]
 8005b3c:	b118      	cbz	r0, 8005b46 <tcp_input+0x30a>
 8005b3e:	f7fd ff8f 	bl	8003a60 <pbuf_free>
 8005b42:	f8c9 4004 	str.w	r4, [r9, #4]
 8005b46:	b007      	add	sp, #28
 8005b48:	e8bd 8ff0 	ldmia.w	sp!, {r4, r5, r6, r7, r8, r9, sl, fp, pc}
 8005b4c:	46a2      	mov	sl, r4
 8005b4e:	460c      	mov	r4, r1
 8005b50:	e6ee      	b.n	8005930 <tcp_input+0xf4>
 8005b52:	7d23      	ldrb	r3, [r4, #20]
 8005b54:	2b0a      	cmp	r3, #10
 8005b56:	d006      	beq.n	8005b66 <tcp_input+0x32a>
 8005b58:	4b50      	ldr	r3, [pc, #320]	; (8005c9c <tcp_input+0x460>)
 8005b5a:	f240 121f 	movw	r2, #287	; 0x11f
 8005b5e:	4651      	mov	r1, sl
 8005b60:	4648      	mov	r0, r9
 8005b62:	f004 f983 	bl	8009e6c <iprintf>
 8005b66:	7a22      	ldrb	r2, [r4, #8]
 8005b68:	b132      	cbz	r2, 8005b78 <tcp_input+0x33c>
 8005b6a:	687b      	ldr	r3, [r7, #4]
 8005b6c:	f893 3034 	ldrb.w	r3, [r3, #52]	; 0x34
 8005b70:	3301      	adds	r3, #1
 8005b72:	b2db      	uxtb	r3, r3
 8005b74:	429a      	cmp	r2, r3
 8005b76:	d13e      	bne.n	8005bf6 <tcp_input+0x3ba>
 8005b78:	6833      	ldr	r3, [r6, #0]
 8005b7a:	8b20      	ldrh	r0, [r4, #24]
 8005b7c:	881a      	ldrh	r2, [r3, #0]
 8005b7e:	4290      	cmp	r0, r2
 8005b80:	d139      	bne.n	8005bf6 <tcp_input+0x3ba>
 8005b82:	885b      	ldrh	r3, [r3, #2]
 8005b84:	8ae1      	ldrh	r1, [r4, #22]
 8005b86:	4299      	cmp	r1, r3
 8005b88:	d135      	bne.n	8005bf6 <tcp_input+0x3ba>
 8005b8a:	6862      	ldr	r2, [r4, #4]
 8005b8c:	693b      	ldr	r3, [r7, #16]
 8005b8e:	429a      	cmp	r2, r3
 8005b90:	d131      	bne.n	8005bf6 <tcp_input+0x3ba>
 8005b92:	6822      	ldr	r2, [r4, #0]
 8005b94:	697b      	ldr	r3, [r7, #20]
 8005b96:	429a      	cmp	r2, r3
 8005b98:	d12d      	bne.n	8005bf6 <tcp_input+0x3ba>
 8005b9a:	4b48      	ldr	r3, [pc, #288]	; (8005cbc <tcp_input+0x480>)
 8005b9c:	781b      	ldrb	r3, [r3, #0]
 8005b9e:	075e      	lsls	r6, r3, #29
 8005ba0:	f53f af11 	bmi.w	80059c6 <tcp_input+0x18a>
 8005ba4:	4a47      	ldr	r2, [pc, #284]	; (8005cc4 <tcp_input+0x488>)
 8005ba6:	8816      	ldrh	r6, [r2, #0]
 8005ba8:	079a      	lsls	r2, r3, #30
 8005baa:	d514      	bpl.n	8005bd6 <tcp_input+0x39a>
 8005bac:	4b46      	ldr	r3, [pc, #280]	; (8005cc8 <tcp_input+0x48c>)
 8005bae:	681a      	ldr	r2, [r3, #0]
 8005bb0:	6a63      	ldr	r3, [r4, #36]	; 0x24
 8005bb2:	1ad3      	subs	r3, r2, r3
 8005bb4:	d414      	bmi.n	8005be0 <tcp_input+0x3a4>
 8005bb6:	8d27      	ldrh	r7, [r4, #40]	; 0x28
 8005bb8:	1bdb      	subs	r3, r3, r7
 8005bba:	2b00      	cmp	r3, #0
 8005bbc:	dc10      	bgt.n	8005be0 <tcp_input+0x3a4>
 8005bbe:	4b43      	ldr	r3, [pc, #268]	; (8005ccc <tcp_input+0x490>)
 8005bc0:	4432      	add	r2, r6
 8005bc2:	e9cd 1001 	strd	r1, r0, [sp, #4]
 8005bc6:	9300      	str	r3, [sp, #0]
 8005bc8:	4620      	mov	r0, r4
 8005bca:	3304      	adds	r3, #4
 8005bcc:	f8db 1000 	ldr.w	r1, [fp]
 8005bd0:	f000 ff3a 	bl	8006a48 <tcp_rst>
 8005bd4:	e6f7      	b.n	80059c6 <tcp_input+0x18a>
 8005bd6:	07df      	lsls	r7, r3, #31
 8005bd8:	bf42      	ittt	mi
 8005bda:	4b3d      	ldrmi	r3, [pc, #244]	; (8005cd0 <tcp_input+0x494>)
 8005bdc:	681b      	ldrmi	r3, [r3, #0]
 8005bde:	6223      	strmi	r3, [r4, #32]
 8005be0:	2e00      	cmp	r6, #0
 8005be2:	f43f aef0 	beq.w	80059c6 <tcp_input+0x18a>
 8005be6:	8b63      	ldrh	r3, [r4, #26]
 8005be8:	4620      	mov	r0, r4
 8005bea:	f043 0302 	orr.w	r3, r3, #2
 8005bee:	8363      	strh	r3, [r4, #26]
 8005bf0:	f000 ffa2 	bl	8006b38 <tcp_output>
 8005bf4:	e6e7      	b.n	80059c6 <tcp_input+0x18a>
 8005bf6:	68e4      	ldr	r4, [r4, #12]
 8005bf8:	2c00      	cmp	r4, #0
 8005bfa:	d1aa      	bne.n	8005b52 <tcp_input+0x316>
 8005bfc:	4b35      	ldr	r3, [pc, #212]	; (8005cd4 <tcp_input+0x498>)
 8005bfe:	f8d7 c004 	ldr.w	ip, [r7, #4]
 8005c02:	681a      	ldr	r2, [r3, #0]
 8005c04:	6831      	ldr	r1, [r6, #0]
 8005c06:	f8d7 e014 	ldr.w	lr, [r7, #20]
 8005c0a:	4691      	mov	r9, r2
 8005c0c:	f1b9 0f00 	cmp.w	r9, #0
 8005c10:	d113      	bne.n	8005c3a <tcp_input+0x3fe>
 8005c12:	8988      	ldrh	r0, [r1, #12]
 8005c14:	f7fd fa48 	bl	80030a8 <lwip_htons>
 8005c18:	0742      	lsls	r2, r0, #29
 8005c1a:	f53f aed4 	bmi.w	80059c6 <tcp_input+0x18a>
 8005c1e:	6833      	ldr	r3, [r6, #0]
 8005c20:	4a28      	ldr	r2, [pc, #160]	; (8005cc4 <tcp_input+0x488>)
 8005c22:	8818      	ldrh	r0, [r3, #0]
 8005c24:	8811      	ldrh	r1, [r2, #0]
 8005c26:	4a28      	ldr	r2, [pc, #160]	; (8005cc8 <tcp_input+0x48c>)
 8005c28:	6812      	ldr	r2, [r2, #0]
 8005c2a:	9002      	str	r0, [sp, #8]
 8005c2c:	885b      	ldrh	r3, [r3, #2]
 8005c2e:	440a      	add	r2, r1
 8005c30:	9301      	str	r3, [sp, #4]
 8005c32:	4b26      	ldr	r3, [pc, #152]	; (8005ccc <tcp_input+0x490>)
 8005c34:	9300      	str	r3, [sp, #0]
 8005c36:	3304      	adds	r3, #4
 8005c38:	e36a      	b.n	8006310 <tcp_input+0xad4>
 8005c3a:	f899 0008 	ldrb.w	r0, [r9, #8]
 8005c3e:	b128      	cbz	r0, 8005c4c <tcp_input+0x410>
 8005c40:	f89c 3034 	ldrb.w	r3, [ip, #52]	; 0x34
 8005c44:	3301      	adds	r3, #1
 8005c46:	b2db      	uxtb	r3, r3
 8005c48:	4298      	cmp	r0, r3
 8005c4a:	d10c      	bne.n	8005c66 <tcp_input+0x42a>
 8005c4c:	8848      	ldrh	r0, [r1, #2]
 8005c4e:	f8b9 3016 	ldrh.w	r3, [r9, #22]
 8005c52:	4283      	cmp	r3, r0
 8005c54:	d107      	bne.n	8005c66 <tcp_input+0x42a>
 8005c56:	f8d9 3000 	ldr.w	r3, [r9]
 8005c5a:	4573      	cmp	r3, lr
 8005c5c:	f000 833b 	beq.w	80062d6 <tcp_input+0xa9a>
 8005c60:	2b00      	cmp	r3, #0
 8005c62:	f000 8338 	beq.w	80062d6 <tcp_input+0xa9a>
 8005c66:	464c      	mov	r4, r9
 8005c68:	f8d9 900c 	ldr.w	r9, [r9, #12]
 8005c6c:	e7ce      	b.n	8005c0c <tcp_input+0x3d0>
 8005c6e:	0798      	lsls	r0, r3, #30
 8005c70:	f57f aea9 	bpl.w	80059c6 <tcp_input+0x18a>
 8005c74:	f899 0015 	ldrb.w	r0, [r9, #21]
 8005c78:	f7fe fc34 	bl	80044e4 <tcp_alloc>
 8005c7c:	4682      	mov	sl, r0
 8005c7e:	bb78      	cbnz	r0, 8005ce0 <tcp_input+0x4a4>
 8005c80:	f8d9 3018 	ldr.w	r3, [r9, #24]
 8005c84:	2b00      	cmp	r3, #0
 8005c86:	f43f ae9e 	beq.w	80059c6 <tcp_input+0x18a>
 8005c8a:	4601      	mov	r1, r0
 8005c8c:	f04f 32ff 	mov.w	r2, #4294967295
 8005c90:	f8d9 0010 	ldr.w	r0, [r9, #16]
 8005c94:	4798      	blx	r3
 8005c96:	e696      	b.n	80059c6 <tcp_input+0x18a>
 8005c98:	0800bd7b 	.word	0x0800bd7b
 8005c9c:	0800bb33 	.word	0x0800bb33
 8005ca0:	0800bda2 	.word	0x0800bda2
 8005ca4:	0800bdcc 	.word	0x0800bdcc
 8005ca8:	0800bdf3 	.word	0x0800bdf3
 8005cac:	0800af68 	.word	0x0800af68
 8005cb0:	0800be1e 	.word	0x0800be1e
 8005cb4:	20005d34 	.word	0x20005d34
 8005cb8:	20005d2c 	.word	0x20005d2c
 8005cbc:	20005d18 	.word	0x20005d18
 8005cc0:	20005d3c 	.word	0x20005d3c
 8005cc4:	20005d52 	.word	0x20005d52
 8005cc8:	20005d38 	.word	0x20005d38
 8005ccc:	200005c0 	.word	0x200005c0
 8005cd0:	20005d08 	.word	0x20005d08
 8005cd4:	20005d04 	.word	0x20005d04
 8005cd8:	20005d1c 	.word	0x20005d1c
 8005cdc:	20005d30 	.word	0x20005d30
 8005ce0:	697b      	ldr	r3, [r7, #20]
 8005ce2:	6832      	ldr	r2, [r6, #0]
 8005ce4:	6003      	str	r3, [r0, #0]
 8005ce6:	693b      	ldr	r3, [r7, #16]
 8005ce8:	4fa8      	ldr	r7, [pc, #672]	; (8005f8c <tcp_input+0x750>)
 8005cea:	6043      	str	r3, [r0, #4]
 8005cec:	f8b9 3016 	ldrh.w	r3, [r9, #22]
 8005cf0:	82c3      	strh	r3, [r0, #22]
 8005cf2:	7813      	ldrb	r3, [r2, #0]
 8005cf4:	7852      	ldrb	r2, [r2, #1]
 8005cf6:	ea43 2302 	orr.w	r3, r3, r2, lsl #8
 8005cfa:	8303      	strh	r3, [r0, #24]
 8005cfc:	2303      	movs	r3, #3
 8005cfe:	7503      	strb	r3, [r0, #20]
 8005d00:	683b      	ldr	r3, [r7, #0]
 8005d02:	3301      	adds	r3, #1
 8005d04:	6243      	str	r3, [r0, #36]	; 0x24
 8005d06:	62c3      	str	r3, [r0, #44]	; 0x2c
 8005d08:	f7fe fa2c 	bl	8004164 <tcp_next_iss>
 8005d0c:	683b      	ldr	r3, [r7, #0]
 8005d0e:	f8ca 0058 	str.w	r0, [sl, #88]	; 0x58
 8005d12:	3b01      	subs	r3, #1
 8005d14:	f8ca 0050 	str.w	r0, [sl, #80]	; 0x50
 8005d18:	f8ca 0044 	str.w	r0, [sl, #68]	; 0x44
 8005d1c:	f8ca 3054 	str.w	r3, [sl, #84]	; 0x54
 8005d20:	f8d9 3010 	ldr.w	r3, [r9, #16]
 8005d24:	f8ca 005c 	str.w	r0, [sl, #92]	; 0x5c
 8005d28:	f8ca 3010 	str.w	r3, [sl, #16]
 8005d2c:	f8ca 907c 	str.w	r9, [sl, #124]	; 0x7c
 8005d30:	f899 3009 	ldrb.w	r3, [r9, #9]
 8005d34:	f003 030c 	and.w	r3, r3, #12
 8005d38:	f88a 3009 	strb.w	r3, [sl, #9]
 8005d3c:	f899 3008 	ldrb.w	r3, [r9, #8]
 8005d40:	f88a 3008 	strb.w	r3, [sl, #8]
 8005d44:	f8d8 3000 	ldr.w	r3, [r8]
 8005d48:	f8c8 a000 	str.w	sl, [r8]
 8005d4c:	f8ca 300c 	str.w	r3, [sl, #12]
 8005d50:	f001 f9c8 	bl	80070e4 <tcp_timer_needed>
 8005d54:	4b8e      	ldr	r3, [pc, #568]	; (8005f90 <tcp_input+0x754>)
 8005d56:	2201      	movs	r2, #1
 8005d58:	4650      	mov	r0, sl
 8005d5a:	701a      	strb	r2, [r3, #0]
 8005d5c:	f7ff f86a 	bl	8004e34 <tcp_parseopt>
 8005d60:	6833      	ldr	r3, [r6, #0]
 8005d62:	f10a 0204 	add.w	r2, sl, #4
 8005d66:	f8ba 6032 	ldrh.w	r6, [sl, #50]	; 0x32
 8005d6a:	89db      	ldrh	r3, [r3, #14]
 8005d6c:	4610      	mov	r0, r2
 8005d6e:	9205      	str	r2, [sp, #20]
 8005d70:	f8aa 3060 	strh.w	r3, [sl, #96]	; 0x60
 8005d74:	f8aa 3062 	strh.w	r3, [sl, #98]	; 0x62
 8005d78:	f003 fa2e 	bl	80091d8 <ip4_route>
 8005d7c:	9a05      	ldr	r2, [sp, #20]
 8005d7e:	4601      	mov	r1, r0
 8005d80:	4630      	mov	r0, r6
 8005d82:	f7fe fa09 	bl	8004198 <tcp_eff_send_mss_netif>
 8005d86:	2112      	movs	r1, #18
 8005d88:	f8aa 0032 	strh.w	r0, [sl, #50]	; 0x32
 8005d8c:	4650      	mov	r0, sl
 8005d8e:	f000 fcdf 	bl	8006750 <tcp_enqueue_flags>
 8005d92:	b120      	cbz	r0, 8005d9e <tcp_input+0x562>
 8005d94:	4621      	mov	r1, r4
 8005d96:	4650      	mov	r0, sl
 8005d98:	f7fe fabe 	bl	8004318 <tcp_abandon>
 8005d9c:	e613      	b.n	80059c6 <tcp_input+0x18a>
 8005d9e:	4650      	mov	r0, sl
 8005da0:	e726      	b.n	8005bf0 <tcp_input+0x3b4>
 8005da2:	4b7c      	ldr	r3, [pc, #496]	; (8005f94 <tcp_input+0x758>)
 8005da4:	602c      	str	r4, [r5, #0]
 8005da6:	781a      	ldrb	r2, [r3, #0]
 8005da8:	0751      	lsls	r1, r2, #29
 8005daa:	d539      	bpl.n	8005e20 <tcp_input+0x5e4>
 8005dac:	7d21      	ldrb	r1, [r4, #20]
 8005dae:	2902      	cmp	r1, #2
 8005db0:	d11f      	bne.n	8005df2 <tcp_input+0x5b6>
 8005db2:	6d22      	ldr	r2, [r4, #80]	; 0x50
 8005db4:	f8db 3000 	ldr.w	r3, [fp]
 8005db8:	429a      	cmp	r2, r3
 8005dba:	d107      	bne.n	8005dcc <tcp_input+0x590>
 8005dbc:	783b      	ldrb	r3, [r7, #0]
 8005dbe:	f043 0308 	orr.w	r3, r3, #8
 8005dc2:	703b      	strb	r3, [r7, #0]
 8005dc4:	8b63      	ldrh	r3, [r4, #26]
 8005dc6:	f023 0301 	bic.w	r3, r3, #1
 8005dca:	8363      	strh	r3, [r4, #26]
 8005dcc:	783b      	ldrb	r3, [r7, #0]
 8005dce:	0718      	lsls	r0, r3, #28
 8005dd0:	f140 8204 	bpl.w	80061dc <tcp_input+0x9a0>
 8005dd4:	f8d4 3090 	ldr.w	r3, [r4, #144]	; 0x90
 8005dd8:	b11b      	cbz	r3, 8005de2 <tcp_input+0x5a6>
 8005dda:	f06f 010d 	mvn.w	r1, #13
 8005dde:	6920      	ldr	r0, [r4, #16]
 8005de0:	4798      	blx	r3
 8005de2:	4621      	mov	r1, r4
 8005de4:	486c      	ldr	r0, [pc, #432]	; (8005f98 <tcp_input+0x75c>)
 8005de6:	f7fe fa31 	bl	800424c <tcp_pcb_remove>
 8005dea:	4620      	mov	r0, r4
 8005dec:	f7fe f8f4 	bl	8003fd8 <tcp_free>
 8005df0:	e69e      	b.n	8005b30 <tcp_input+0x2f4>
 8005df2:	4b66      	ldr	r3, [pc, #408]	; (8005f8c <tcp_input+0x750>)
 8005df4:	6a62      	ldr	r2, [r4, #36]	; 0x24
 8005df6:	681b      	ldr	r3, [r3, #0]
 8005df8:	429a      	cmp	r2, r3
 8005dfa:	d007      	beq.n	8005e0c <tcp_input+0x5d0>
 8005dfc:	1a9b      	subs	r3, r3, r2
 8005dfe:	d4e5      	bmi.n	8005dcc <tcp_input+0x590>
 8005e00:	8d22      	ldrh	r2, [r4, #40]	; 0x28
 8005e02:	1a9b      	subs	r3, r3, r2
 8005e04:	2b00      	cmp	r3, #0
 8005e06:	dce1      	bgt.n	8005dcc <tcp_input+0x590>
 8005e08:	8b63      	ldrh	r3, [r4, #26]
 8005e0a:	e010      	b.n	8005e2e <tcp_input+0x5f2>
 8005e0c:	2900      	cmp	r1, #0
 8005e0e:	d1d5      	bne.n	8005dbc <tcp_input+0x580>
 8005e10:	4b62      	ldr	r3, [pc, #392]	; (8005f9c <tcp_input+0x760>)
 8005e12:	f44f 724e 	mov.w	r2, #824	; 0x338
 8005e16:	4962      	ldr	r1, [pc, #392]	; (8005fa0 <tcp_input+0x764>)
 8005e18:	4862      	ldr	r0, [pc, #392]	; (8005fa4 <tcp_input+0x768>)
 8005e1a:	f004 f827 	bl	8009e6c <iprintf>
 8005e1e:	e7cd      	b.n	8005dbc <tcp_input+0x580>
 8005e20:	0792      	lsls	r2, r2, #30
 8005e22:	8b63      	ldrh	r3, [r4, #26]
 8005e24:	d506      	bpl.n	8005e34 <tcp_input+0x5f8>
 8005e26:	7d22      	ldrb	r2, [r4, #20]
 8005e28:	3a02      	subs	r2, #2
 8005e2a:	2a01      	cmp	r2, #1
 8005e2c:	d902      	bls.n	8005e34 <tcp_input+0x5f8>
 8005e2e:	f043 0302 	orr.w	r3, r3, #2
 8005e32:	e7ca      	b.n	8005dca <tcp_input+0x58e>
 8005e34:	06d8      	lsls	r0, r3, #27
 8005e36:	4620      	mov	r0, r4
 8005e38:	bf5e      	ittt	pl
 8005e3a:	4b5b      	ldrpl	r3, [pc, #364]	; (8005fa8 <tcp_input+0x76c>)
 8005e3c:	681b      	ldrpl	r3, [r3, #0]
 8005e3e:	6223      	strpl	r3, [r4, #32]
 8005e40:	2300      	movs	r3, #0
 8005e42:	f8a4 309a 	strh.w	r3, [r4, #154]	; 0x9a
 8005e46:	f7fe fff5 	bl	8004e34 <tcp_parseopt>
 8005e4a:	7d23      	ldrb	r3, [r4, #20]
 8005e4c:	3b02      	subs	r3, #2
 8005e4e:	2b07      	cmp	r3, #7
 8005e50:	d8bc      	bhi.n	8005dcc <tcp_input+0x590>
 8005e52:	e8df f013 	tbh	[pc, r3, lsl #1]
 8005e56:	0008      	.short	0x0008
 8005e58:	012400b3 	.word	0x012400b3
 8005e5c:	01730128 	.word	0x01730128
 8005e60:	018c0124 	.word	0x018c0124
 8005e64:	01ac      	.short	0x01ac
 8005e66:	4b4b      	ldr	r3, [pc, #300]	; (8005f94 <tcp_input+0x758>)
 8005e68:	781b      	ldrb	r3, [r3, #0]
 8005e6a:	f003 0212 	and.w	r2, r3, #18
 8005e6e:	2a12      	cmp	r2, #18
 8005e70:	d16c      	bne.n	8005f4c <tcp_input+0x710>
 8005e72:	6c62      	ldr	r2, [r4, #68]	; 0x44
 8005e74:	f8db 1000 	ldr.w	r1, [fp]
 8005e78:	3201      	adds	r2, #1
 8005e7a:	428a      	cmp	r2, r1
 8005e7c:	d166      	bne.n	8005f4c <tcp_input+0x710>
 8005e7e:	4b43      	ldr	r3, [pc, #268]	; (8005f8c <tcp_input+0x750>)
 8005e80:	6462      	str	r2, [r4, #68]	; 0x44
 8005e82:	681b      	ldr	r3, [r3, #0]
 8005e84:	6832      	ldr	r2, [r6, #0]
 8005e86:	1c59      	adds	r1, r3, #1
 8005e88:	3b01      	subs	r3, #1
 8005e8a:	8e66      	ldrh	r6, [r4, #50]	; 0x32
 8005e8c:	6261      	str	r1, [r4, #36]	; 0x24
 8005e8e:	62e1      	str	r1, [r4, #44]	; 0x2c
 8005e90:	89d2      	ldrh	r2, [r2, #14]
 8005e92:	6563      	str	r3, [r4, #84]	; 0x54
 8005e94:	2304      	movs	r3, #4
 8005e96:	f8a4 2060 	strh.w	r2, [r4, #96]	; 0x60
 8005e9a:	f8a4 2062 	strh.w	r2, [r4, #98]	; 0x62
 8005e9e:	18e2      	adds	r2, r4, r3
 8005ea0:	7523      	strb	r3, [r4, #20]
 8005ea2:	4610      	mov	r0, r2
 8005ea4:	9205      	str	r2, [sp, #20]
 8005ea6:	f003 f997 	bl	80091d8 <ip4_route>
 8005eaa:	9a05      	ldr	r2, [sp, #20]
 8005eac:	4601      	mov	r1, r0
 8005eae:	4630      	mov	r0, r6
 8005eb0:	f7fe f972 	bl	8004198 <tcp_eff_send_mss_netif>
 8005eb4:	f241 131c 	movw	r3, #4380	; 0x111c
 8005eb8:	0042      	lsls	r2, r0, #1
 8005eba:	8660      	strh	r0, [r4, #50]	; 0x32
 8005ebc:	0081      	lsls	r1, r0, #2
 8005ebe:	429a      	cmp	r2, r3
 8005ec0:	4616      	mov	r6, r2
 8005ec2:	bf38      	it	cc
 8005ec4:	461e      	movcc	r6, r3
 8005ec6:	ebb6 0f80 	cmp.w	r6, r0, lsl #2
 8005eca:	d933      	bls.n	8005f34 <tcp_input+0x6f8>
 8005ecc:	b28b      	uxth	r3, r1
 8005ece:	f8a4 3048 	strh.w	r3, [r4, #72]	; 0x48
 8005ed2:	f8b4 3066 	ldrh.w	r3, [r4, #102]	; 0x66
 8005ed6:	b933      	cbnz	r3, 8005ee6 <tcp_input+0x6aa>
 8005ed8:	4b30      	ldr	r3, [pc, #192]	; (8005f9c <tcp_input+0x760>)
 8005eda:	f44f 725b 	mov.w	r2, #876	; 0x36c
 8005ede:	4933      	ldr	r1, [pc, #204]	; (8005fac <tcp_input+0x770>)
 8005ee0:	4830      	ldr	r0, [pc, #192]	; (8005fa4 <tcp_input+0x768>)
 8005ee2:	f003 ffc3 	bl	8009e6c <iprintf>
 8005ee6:	f8b4 3066 	ldrh.w	r3, [r4, #102]	; 0x66
 8005eea:	6f26      	ldr	r6, [r4, #112]	; 0x70
 8005eec:	3b01      	subs	r3, #1
 8005eee:	f8a4 3066 	strh.w	r3, [r4, #102]	; 0x66
 8005ef2:	bb1e      	cbnz	r6, 8005f3c <tcp_input+0x700>
 8005ef4:	6ee6      	ldr	r6, [r4, #108]	; 0x6c
 8005ef6:	b936      	cbnz	r6, 8005f06 <tcp_input+0x6ca>
 8005ef8:	4b28      	ldr	r3, [pc, #160]	; (8005f9c <tcp_input+0x760>)
 8005efa:	f44f 725d 	mov.w	r2, #884	; 0x374
 8005efe:	492c      	ldr	r1, [pc, #176]	; (8005fb0 <tcp_input+0x774>)
 8005f00:	4828      	ldr	r0, [pc, #160]	; (8005fa4 <tcp_input+0x768>)
 8005f02:	f003 ffb3 	bl	8009e6c <iprintf>
 8005f06:	6833      	ldr	r3, [r6, #0]
 8005f08:	66e3      	str	r3, [r4, #108]	; 0x6c
 8005f0a:	4630      	mov	r0, r6
 8005f0c:	f7fe f8f0 	bl	80040f0 <tcp_seg_free>
 8005f10:	6f23      	ldr	r3, [r4, #112]	; 0x70
 8005f12:	b9b3      	cbnz	r3, 8005f42 <tcp_input+0x706>
 8005f14:	f64f 73ff 	movw	r3, #65535	; 0xffff
 8005f18:	8623      	strh	r3, [r4, #48]	; 0x30
 8005f1a:	f8d4 3088 	ldr.w	r3, [r4, #136]	; 0x88
 8005f1e:	2b00      	cmp	r3, #0
 8005f20:	f43f af72 	beq.w	8005e08 <tcp_input+0x5cc>
 8005f24:	2200      	movs	r2, #0
 8005f26:	4621      	mov	r1, r4
 8005f28:	6920      	ldr	r0, [r4, #16]
 8005f2a:	4798      	blx	r3
 8005f2c:	300d      	adds	r0, #13
 8005f2e:	f47f af6b 	bne.w	8005e08 <tcp_input+0x5cc>
 8005f32:	e5fd      	b.n	8005b30 <tcp_input+0x2f4>
 8005f34:	429a      	cmp	r2, r3
 8005f36:	bf88      	it	hi
 8005f38:	b293      	uxthhi	r3, r2
 8005f3a:	e7c8      	b.n	8005ece <tcp_input+0x692>
 8005f3c:	6833      	ldr	r3, [r6, #0]
 8005f3e:	6723      	str	r3, [r4, #112]	; 0x70
 8005f40:	e7e3      	b.n	8005f0a <tcp_input+0x6ce>
 8005f42:	2300      	movs	r3, #0
 8005f44:	8623      	strh	r3, [r4, #48]	; 0x30
 8005f46:	f884 3042 	strb.w	r3, [r4, #66]	; 0x42
 8005f4a:	e7e6      	b.n	8005f1a <tcp_input+0x6de>
 8005f4c:	06d9      	lsls	r1, r3, #27
 8005f4e:	f57f af3d 	bpl.w	8005dcc <tcp_input+0x590>
 8005f52:	6833      	ldr	r3, [r6, #0]
 8005f54:	4a17      	ldr	r2, [pc, #92]	; (8005fb4 <tcp_input+0x778>)
 8005f56:	8818      	ldrh	r0, [r3, #0]
 8005f58:	8811      	ldrh	r1, [r2, #0]
 8005f5a:	4a0c      	ldr	r2, [pc, #48]	; (8005f8c <tcp_input+0x750>)
 8005f5c:	6812      	ldr	r2, [r2, #0]
 8005f5e:	9002      	str	r0, [sp, #8]
 8005f60:	4620      	mov	r0, r4
 8005f62:	885b      	ldrh	r3, [r3, #2]
 8005f64:	440a      	add	r2, r1
 8005f66:	f8db 1000 	ldr.w	r1, [fp]
 8005f6a:	9301      	str	r3, [sp, #4]
 8005f6c:	4b12      	ldr	r3, [pc, #72]	; (8005fb8 <tcp_input+0x77c>)
 8005f6e:	9300      	str	r3, [sp, #0]
 8005f70:	3304      	adds	r3, #4
 8005f72:	f000 fd69 	bl	8006a48 <tcp_rst>
 8005f76:	f894 3042 	ldrb.w	r3, [r4, #66]	; 0x42
 8005f7a:	2b05      	cmp	r3, #5
 8005f7c:	f63f af26 	bhi.w	8005dcc <tcp_input+0x590>
 8005f80:	2300      	movs	r3, #0
 8005f82:	4620      	mov	r0, r4
 8005f84:	8623      	strh	r3, [r4, #48]	; 0x30
 8005f86:	f000 ff9d 	bl	8006ec4 <tcp_rexmit_rto>
 8005f8a:	e71f      	b.n	8005dcc <tcp_input+0x590>
 8005f8c:	20005d38 	.word	0x20005d38
 8005f90:	20005cfc 	.word	0x20005cfc
 8005f94:	20005d18 	.word	0x20005d18
 8005f98:	20005cf8 	.word	0x20005cf8
 8005f9c:	0800bb33 	.word	0x0800bb33
 8005fa0:	0800be75 	.word	0x0800be75
 8005fa4:	0800af68 	.word	0x0800af68
 8005fa8:	20005d08 	.word	0x20005d08
 8005fac:	0800be95 	.word	0x0800be95
 8005fb0:	0800beab 	.word	0x0800beab
 8005fb4:	20005d52 	.word	0x20005d52
 8005fb8:	200005c0 	.word	0x200005c0
 8005fbc:	4b9d      	ldr	r3, [pc, #628]	; (8006234 <tcp_input+0x9f8>)
 8005fbe:	781b      	ldrb	r3, [r3, #0]
 8005fc0:	06da      	lsls	r2, r3, #27
 8005fc2:	d55e      	bpl.n	8006082 <tcp_input+0x846>
 8005fc4:	6c63      	ldr	r3, [r4, #68]	; 0x44
 8005fc6:	f8db 1000 	ldr.w	r1, [fp]
 8005fca:	43db      	mvns	r3, r3
 8005fcc:	42cb      	cmn	r3, r1
 8005fce:	d447      	bmi.n	8006060 <tcp_input+0x824>
 8005fd0:	6d23      	ldr	r3, [r4, #80]	; 0x50
 8005fd2:	1acb      	subs	r3, r1, r3
 8005fd4:	2b00      	cmp	r3, #0
 8005fd6:	dc43      	bgt.n	8006060 <tcp_input+0x824>
 8005fd8:	2304      	movs	r3, #4
 8005fda:	7523      	strb	r3, [r4, #20]
 8005fdc:	6fe3      	ldr	r3, [r4, #124]	; 0x7c
 8005fde:	b91b      	cbnz	r3, 8005fe8 <tcp_input+0x7ac>
 8005fe0:	4620      	mov	r0, r4
 8005fe2:	f7fe fa1b 	bl	800441c <tcp_abort>
 8005fe6:	e5a3      	b.n	8005b30 <tcp_input+0x2f4>
 8005fe8:	699b      	ldr	r3, [r3, #24]
 8005fea:	b933      	cbnz	r3, 8005ffa <tcp_input+0x7be>
 8005fec:	4b92      	ldr	r3, [pc, #584]	; (8006238 <tcp_input+0x9fc>)
 8005fee:	f44f 726a 	mov.w	r2, #936	; 0x3a8
 8005ff2:	4992      	ldr	r1, [pc, #584]	; (800623c <tcp_input+0xa00>)
 8005ff4:	4892      	ldr	r0, [pc, #584]	; (8006240 <tcp_input+0xa04>)
 8005ff6:	f003 ff39 	bl	8009e6c <iprintf>
 8005ffa:	6fe3      	ldr	r3, [r4, #124]	; 0x7c
 8005ffc:	699b      	ldr	r3, [r3, #24]
 8005ffe:	2b00      	cmp	r3, #0
 8006000:	d0ee      	beq.n	8005fe0 <tcp_input+0x7a4>
 8006002:	2200      	movs	r2, #0
 8006004:	4621      	mov	r1, r4
 8006006:	6920      	ldr	r0, [r4, #16]
 8006008:	4798      	blx	r3
 800600a:	b118      	cbz	r0, 8006014 <tcp_input+0x7d8>
 800600c:	300d      	adds	r0, #13
 800600e:	f43f ad8f 	beq.w	8005b30 <tcp_input+0x2f4>
 8006012:	e7e5      	b.n	8005fe0 <tcp_input+0x7a4>
 8006014:	4620      	mov	r0, r4
 8006016:	f7fe ffe3 	bl	8004fe0 <tcp_receive>
 800601a:	4a8a      	ldr	r2, [pc, #552]	; (8006244 <tcp_input+0xa08>)
 800601c:	8813      	ldrh	r3, [r2, #0]
 800601e:	b10b      	cbz	r3, 8006024 <tcp_input+0x7e8>
 8006020:	3b01      	subs	r3, #1
 8006022:	8013      	strh	r3, [r2, #0]
 8006024:	8e61      	ldrh	r1, [r4, #50]	; 0x32
 8006026:	f241 131c 	movw	r3, #4380	; 0x111c
 800602a:	004a      	lsls	r2, r1, #1
 800602c:	0088      	lsls	r0, r1, #2
 800602e:	429a      	cmp	r2, r3
 8006030:	4616      	mov	r6, r2
 8006032:	bf38      	it	cc
 8006034:	461e      	movcc	r6, r3
 8006036:	ebb6 0f81 	cmp.w	r6, r1, lsl #2
 800603a:	d90d      	bls.n	8006058 <tcp_input+0x81c>
 800603c:	b283      	uxth	r3, r0
 800603e:	f8a4 3048 	strh.w	r3, [r4, #72]	; 0x48
 8006042:	783b      	ldrb	r3, [r7, #0]
 8006044:	0698      	lsls	r0, r3, #26
 8006046:	f57f aec1 	bpl.w	8005dcc <tcp_input+0x590>
 800604a:	8b63      	ldrh	r3, [r4, #26]
 800604c:	f043 0302 	orr.w	r3, r3, #2
 8006050:	8363      	strh	r3, [r4, #26]
 8006052:	2307      	movs	r3, #7
 8006054:	7523      	strb	r3, [r4, #20]
 8006056:	e6b9      	b.n	8005dcc <tcp_input+0x590>
 8006058:	429a      	cmp	r2, r3
 800605a:	bf88      	it	hi
 800605c:	b293      	uxthhi	r3, r2
 800605e:	e7ee      	b.n	800603e <tcp_input+0x802>
 8006060:	6833      	ldr	r3, [r6, #0]
 8006062:	4a79      	ldr	r2, [pc, #484]	; (8006248 <tcp_input+0xa0c>)
 8006064:	881e      	ldrh	r6, [r3, #0]
 8006066:	8810      	ldrh	r0, [r2, #0]
 8006068:	4a78      	ldr	r2, [pc, #480]	; (800624c <tcp_input+0xa10>)
 800606a:	6812      	ldr	r2, [r2, #0]
 800606c:	9602      	str	r6, [sp, #8]
 800606e:	885b      	ldrh	r3, [r3, #2]
 8006070:	4402      	add	r2, r0
 8006072:	4620      	mov	r0, r4
 8006074:	9301      	str	r3, [sp, #4]
 8006076:	4b76      	ldr	r3, [pc, #472]	; (8006250 <tcp_input+0xa14>)
 8006078:	9300      	str	r3, [sp, #0]
 800607a:	3304      	adds	r3, #4
 800607c:	f000 fce4 	bl	8006a48 <tcp_rst>
 8006080:	e6a4      	b.n	8005dcc <tcp_input+0x590>
 8006082:	079e      	lsls	r6, r3, #30
 8006084:	f57f aea2 	bpl.w	8005dcc <tcp_input+0x590>
 8006088:	6a63      	ldr	r3, [r4, #36]	; 0x24
 800608a:	4a70      	ldr	r2, [pc, #448]	; (800624c <tcp_input+0xa10>)
 800608c:	3b01      	subs	r3, #1
 800608e:	6812      	ldr	r2, [r2, #0]
 8006090:	4293      	cmp	r3, r2
 8006092:	f47f ae9b 	bne.w	8005dcc <tcp_input+0x590>
 8006096:	4620      	mov	r0, r4
 8006098:	f000 fc62 	bl	8006960 <tcp_rexmit>
 800609c:	e696      	b.n	8005dcc <tcp_input+0x590>
 800609e:	4620      	mov	r0, r4
 80060a0:	f7fe ff9e 	bl	8004fe0 <tcp_receive>
 80060a4:	e7cd      	b.n	8006042 <tcp_input+0x806>
 80060a6:	4620      	mov	r0, r4
 80060a8:	f7fe ff9a 	bl	8004fe0 <tcp_receive>
 80060ac:	783b      	ldrb	r3, [r7, #0]
 80060ae:	f013 0f20 	tst.w	r3, #32
 80060b2:	4b60      	ldr	r3, [pc, #384]	; (8006234 <tcp_input+0x9f8>)
 80060b4:	781b      	ldrb	r3, [r3, #0]
 80060b6:	d032      	beq.n	800611e <tcp_input+0x8e2>
 80060b8:	f013 0f10 	tst.w	r3, #16
 80060bc:	8b63      	ldrh	r3, [r4, #26]
 80060be:	d029      	beq.n	8006114 <tcp_input+0x8d8>
 80060c0:	6d21      	ldr	r1, [r4, #80]	; 0x50
 80060c2:	f8db 2000 	ldr.w	r2, [fp]
 80060c6:	4291      	cmp	r1, r2
 80060c8:	d124      	bne.n	8006114 <tcp_input+0x8d8>
 80060ca:	6ee2      	ldr	r2, [r4, #108]	; 0x6c
 80060cc:	bb12      	cbnz	r2, 8006114 <tcp_input+0x8d8>
 80060ce:	f043 0302 	orr.w	r3, r3, #2
 80060d2:	4620      	mov	r0, r4
 80060d4:	8363      	strh	r3, [r4, #26]
 80060d6:	f7fe f887 	bl	80041e8 <tcp_pcb_purge>
 80060da:	f8d8 3000 	ldr.w	r3, [r8]
 80060de:	429c      	cmp	r4, r3
 80060e0:	d10a      	bne.n	80060f8 <tcp_input+0x8bc>
 80060e2:	68e3      	ldr	r3, [r4, #12]
 80060e4:	f8c8 3000 	str.w	r3, [r8]
 80060e8:	e008      	b.n	80060fc <tcp_input+0x8c0>
 80060ea:	68da      	ldr	r2, [r3, #12]
 80060ec:	4294      	cmp	r4, r2
 80060ee:	d102      	bne.n	80060f6 <tcp_input+0x8ba>
 80060f0:	68e2      	ldr	r2, [r4, #12]
 80060f2:	60da      	str	r2, [r3, #12]
 80060f4:	e002      	b.n	80060fc <tcp_input+0x8c0>
 80060f6:	4613      	mov	r3, r2
 80060f8:	2b00      	cmp	r3, #0
 80060fa:	d1f6      	bne.n	80060ea <tcp_input+0x8ae>
 80060fc:	4b55      	ldr	r3, [pc, #340]	; (8006254 <tcp_input+0xa18>)
 80060fe:	2201      	movs	r2, #1
 8006100:	701a      	strb	r2, [r3, #0]
 8006102:	230a      	movs	r3, #10
 8006104:	7523      	strb	r3, [r4, #20]
 8006106:	4b54      	ldr	r3, [pc, #336]	; (8006258 <tcp_input+0xa1c>)
 8006108:	681a      	ldr	r2, [r3, #0]
 800610a:	601c      	str	r4, [r3, #0]
 800610c:	60e2      	str	r2, [r4, #12]
 800610e:	f000 ffe9 	bl	80070e4 <tcp_timer_needed>
 8006112:	e65b      	b.n	8005dcc <tcp_input+0x590>
 8006114:	f043 0302 	orr.w	r3, r3, #2
 8006118:	8363      	strh	r3, [r4, #26]
 800611a:	2308      	movs	r3, #8
 800611c:	e79a      	b.n	8006054 <tcp_input+0x818>
 800611e:	06d9      	lsls	r1, r3, #27
 8006120:	f57f ae54 	bpl.w	8005dcc <tcp_input+0x590>
 8006124:	6d22      	ldr	r2, [r4, #80]	; 0x50
 8006126:	f8db 3000 	ldr.w	r3, [fp]
 800612a:	429a      	cmp	r2, r3
 800612c:	f47f ae4e 	bne.w	8005dcc <tcp_input+0x590>
 8006130:	6ee3      	ldr	r3, [r4, #108]	; 0x6c
 8006132:	2b00      	cmp	r3, #0
 8006134:	f47f ae4a 	bne.w	8005dcc <tcp_input+0x590>
 8006138:	2306      	movs	r3, #6
 800613a:	e78b      	b.n	8006054 <tcp_input+0x818>
 800613c:	4620      	mov	r0, r4
 800613e:	f7fe ff4f 	bl	8004fe0 <tcp_receive>
 8006142:	783b      	ldrb	r3, [r7, #0]
 8006144:	069a      	lsls	r2, r3, #26
 8006146:	f57f ae41 	bpl.w	8005dcc <tcp_input+0x590>
 800614a:	8b63      	ldrh	r3, [r4, #26]
 800614c:	4620      	mov	r0, r4
 800614e:	f043 0302 	orr.w	r3, r3, #2
 8006152:	8363      	strh	r3, [r4, #26]
 8006154:	f7fe f848 	bl	80041e8 <tcp_pcb_purge>
 8006158:	f8d8 3000 	ldr.w	r3, [r8]
 800615c:	429c      	cmp	r4, r3
 800615e:	d0c0      	beq.n	80060e2 <tcp_input+0x8a6>
 8006160:	2b00      	cmp	r3, #0
 8006162:	d0cb      	beq.n	80060fc <tcp_input+0x8c0>
 8006164:	68da      	ldr	r2, [r3, #12]
 8006166:	4294      	cmp	r4, r2
 8006168:	d0c2      	beq.n	80060f0 <tcp_input+0x8b4>
 800616a:	4613      	mov	r3, r2
 800616c:	e7f8      	b.n	8006160 <tcp_input+0x924>
 800616e:	4620      	mov	r0, r4
 8006170:	f7fe ff36 	bl	8004fe0 <tcp_receive>
 8006174:	4b2f      	ldr	r3, [pc, #188]	; (8006234 <tcp_input+0x9f8>)
 8006176:	781b      	ldrb	r3, [r3, #0]
 8006178:	06db      	lsls	r3, r3, #27
 800617a:	f57f ae27 	bpl.w	8005dcc <tcp_input+0x590>
 800617e:	6d22      	ldr	r2, [r4, #80]	; 0x50
 8006180:	f8db 3000 	ldr.w	r3, [fp]
 8006184:	429a      	cmp	r2, r3
 8006186:	f47f ae21 	bne.w	8005dcc <tcp_input+0x590>
 800618a:	6ee3      	ldr	r3, [r4, #108]	; 0x6c
 800618c:	2b00      	cmp	r3, #0
 800618e:	f47f ae1d 	bne.w	8005dcc <tcp_input+0x590>
 8006192:	4620      	mov	r0, r4
 8006194:	f7fe f828 	bl	80041e8 <tcp_pcb_purge>
 8006198:	f8d8 3000 	ldr.w	r3, [r8]
 800619c:	429c      	cmp	r4, r3
 800619e:	d0a0      	beq.n	80060e2 <tcp_input+0x8a6>
 80061a0:	2b00      	cmp	r3, #0
 80061a2:	d0ab      	beq.n	80060fc <tcp_input+0x8c0>
 80061a4:	68da      	ldr	r2, [r3, #12]
 80061a6:	4294      	cmp	r4, r2
 80061a8:	d0a2      	beq.n	80060f0 <tcp_input+0x8b4>
 80061aa:	4613      	mov	r3, r2
 80061ac:	e7f8      	b.n	80061a0 <tcp_input+0x964>
 80061ae:	4620      	mov	r0, r4
 80061b0:	f7fe ff16 	bl	8004fe0 <tcp_receive>
 80061b4:	4b1f      	ldr	r3, [pc, #124]	; (8006234 <tcp_input+0x9f8>)
 80061b6:	781b      	ldrb	r3, [r3, #0]
 80061b8:	06de      	lsls	r6, r3, #27
 80061ba:	f57f ae07 	bpl.w	8005dcc <tcp_input+0x590>
 80061be:	6d22      	ldr	r2, [r4, #80]	; 0x50
 80061c0:	f8db 3000 	ldr.w	r3, [fp]
 80061c4:	429a      	cmp	r2, r3
 80061c6:	f47f ae01 	bne.w	8005dcc <tcp_input+0x590>
 80061ca:	6ee3      	ldr	r3, [r4, #108]	; 0x6c
 80061cc:	2b00      	cmp	r3, #0
 80061ce:	f47f adfd 	bne.w	8005dcc <tcp_input+0x590>
 80061d2:	783b      	ldrb	r3, [r7, #0]
 80061d4:	f043 0310 	orr.w	r3, r3, #16
 80061d8:	703b      	strb	r3, [r7, #0]
 80061da:	e5f7      	b.n	8005dcc <tcp_input+0x590>
 80061dc:	4b19      	ldr	r3, [pc, #100]	; (8006244 <tcp_input+0xa08>)
 80061de:	881a      	ldrh	r2, [r3, #0]
 80061e0:	b12a      	cbz	r2, 80061ee <tcp_input+0x9b2>
 80061e2:	f8d4 3080 	ldr.w	r3, [r4, #128]	; 0x80
 80061e6:	b9fb      	cbnz	r3, 8006228 <tcp_input+0x9ec>
 80061e8:	2300      	movs	r3, #0
 80061ea:	4a16      	ldr	r2, [pc, #88]	; (8006244 <tcp_input+0xa08>)
 80061ec:	8013      	strh	r3, [r2, #0]
 80061ee:	4620      	mov	r0, r4
 80061f0:	f7fe fe68 	bl	8004ec4 <tcp_input_delayed_close>
 80061f4:	2800      	cmp	r0, #0
 80061f6:	f47f ac9b 	bne.w	8005b30 <tcp_input+0x2f4>
 80061fa:	f8da 3000 	ldr.w	r3, [sl]
 80061fe:	2b00      	cmp	r3, #0
 8006200:	d03c      	beq.n	800627c <tcp_input+0xa40>
 8006202:	6fa3      	ldr	r3, [r4, #120]	; 0x78
 8006204:	b133      	cbz	r3, 8006214 <tcp_input+0x9d8>
 8006206:	4b0c      	ldr	r3, [pc, #48]	; (8006238 <tcp_input+0x9fc>)
 8006208:	f44f 72f3 	mov.w	r2, #486	; 0x1e6
 800620c:	4913      	ldr	r1, [pc, #76]	; (800625c <tcp_input+0xa20>)
 800620e:	480c      	ldr	r0, [pc, #48]	; (8006240 <tcp_input+0xa04>)
 8006210:	f003 fe2c 	bl	8009e6c <iprintf>
 8006214:	8b63      	ldrh	r3, [r4, #26]
 8006216:	f8da 2000 	ldr.w	r2, [sl]
 800621a:	f013 0310 	ands.w	r3, r3, #16
 800621e:	d01f      	beq.n	8006260 <tcp_input+0xa24>
 8006220:	4610      	mov	r0, r2
 8006222:	f7fd fc1d 	bl	8003a60 <pbuf_free>
 8006226:	e6db      	b.n	8005fe0 <tcp_input+0x7a4>
 8006228:	4621      	mov	r1, r4
 800622a:	6920      	ldr	r0, [r4, #16]
 800622c:	4798      	blx	r3
 800622e:	300d      	adds	r0, #13
 8006230:	d1da      	bne.n	80061e8 <tcp_input+0x9ac>
 8006232:	e47d      	b.n	8005b30 <tcp_input+0x2f4>
 8006234:	20005d18 	.word	0x20005d18
 8006238:	0800bb33 	.word	0x0800bb33
 800623c:	0800bebe 	.word	0x0800bebe
 8006240:	0800af68 	.word	0x0800af68
 8006244:	20005d2c 	.word	0x20005d2c
 8006248:	20005d52 	.word	0x20005d52
 800624c:	20005d38 	.word	0x20005d38
 8006250:	200005c0 	.word	0x200005c0
 8006254:	20005cfc 	.word	0x20005cfc
 8006258:	20005d10 	.word	0x20005d10
 800625c:	0800bedc 	.word	0x0800bedc
 8006260:	f8d4 6084 	ldr.w	r6, [r4, #132]	; 0x84
 8006264:	b1fe      	cbz	r6, 80062a6 <tcp_input+0xa6a>
 8006266:	4621      	mov	r1, r4
 8006268:	6920      	ldr	r0, [r4, #16]
 800626a:	47b0      	blx	r6
 800626c:	f110 0f0d 	cmn.w	r0, #13
 8006270:	f43f ac5e 	beq.w	8005b30 <tcp_input+0x2f4>
 8006274:	b110      	cbz	r0, 800627c <tcp_input+0xa40>
 8006276:	f8da 3000 	ldr.w	r3, [sl]
 800627a:	67a3      	str	r3, [r4, #120]	; 0x78
 800627c:	783b      	ldrb	r3, [r7, #0]
 800627e:	0699      	lsls	r1, r3, #26
 8006280:	d505      	bpl.n	800628e <tcp_input+0xa52>
 8006282:	6fa3      	ldr	r3, [r4, #120]	; 0x78
 8006284:	b1ab      	cbz	r3, 80062b2 <tcp_input+0xa76>
 8006286:	7b5a      	ldrb	r2, [r3, #13]
 8006288:	f042 0220 	orr.w	r2, r2, #32
 800628c:	735a      	strb	r2, [r3, #13]
 800628e:	2300      	movs	r3, #0
 8006290:	4620      	mov	r0, r4
 8006292:	602b      	str	r3, [r5, #0]
 8006294:	f7fe fe16 	bl	8004ec4 <tcp_input_delayed_close>
 8006298:	2800      	cmp	r0, #0
 800629a:	f47f ac49 	bne.w	8005b30 <tcp_input+0x2f4>
 800629e:	4620      	mov	r0, r4
 80062a0:	f000 fc4a 	bl	8006b38 <tcp_output>
 80062a4:	e444      	b.n	8005b30 <tcp_input+0x2f4>
 80062a6:	4633      	mov	r3, r6
 80062a8:	4621      	mov	r1, r4
 80062aa:	4630      	mov	r0, r6
 80062ac:	f7fe fa84 	bl	80047b8 <tcp_recv_null>
 80062b0:	e7dc      	b.n	800626c <tcp_input+0xa30>
 80062b2:	8d23      	ldrh	r3, [r4, #40]	; 0x28
 80062b4:	f8d4 6084 	ldr.w	r6, [r4, #132]	; 0x84
 80062b8:	f5b3 6f06 	cmp.w	r3, #2144	; 0x860
 80062bc:	bf1c      	itt	ne
 80062be:	3301      	addne	r3, #1
 80062c0:	8523      	strhne	r3, [r4, #40]	; 0x28
 80062c2:	2e00      	cmp	r6, #0
 80062c4:	d0e3      	beq.n	800628e <tcp_input+0xa52>
 80062c6:	2300      	movs	r3, #0
 80062c8:	4621      	mov	r1, r4
 80062ca:	6920      	ldr	r0, [r4, #16]
 80062cc:	461a      	mov	r2, r3
 80062ce:	47b0      	blx	r6
 80062d0:	300d      	adds	r0, #13
 80062d2:	d1dc      	bne.n	800628e <tcp_input+0xa52>
 80062d4:	e42c      	b.n	8005b30 <tcp_input+0x2f4>
 80062d6:	b13c      	cbz	r4, 80062e8 <tcp_input+0xaac>
 80062d8:	f8d9 300c 	ldr.w	r3, [r9, #12]
 80062dc:	60e3      	str	r3, [r4, #12]
 80062de:	4b11      	ldr	r3, [pc, #68]	; (8006324 <tcp_input+0xae8>)
 80062e0:	f8c9 200c 	str.w	r2, [r9, #12]
 80062e4:	f8c3 9000 	str.w	r9, [r3]
 80062e8:	4b0f      	ldr	r3, [pc, #60]	; (8006328 <tcp_input+0xaec>)
 80062ea:	781b      	ldrb	r3, [r3, #0]
 80062ec:	075c      	lsls	r4, r3, #29
 80062ee:	f53f ab6a 	bmi.w	80059c6 <tcp_input+0x18a>
 80062f2:	f013 0410 	ands.w	r4, r3, #16
 80062f6:	f43f acba 	beq.w	8005c6e <tcp_input+0x432>
 80062fa:	4b0c      	ldr	r3, [pc, #48]	; (800632c <tcp_input+0xaf0>)
 80062fc:	881c      	ldrh	r4, [r3, #0]
 80062fe:	4b0c      	ldr	r3, [pc, #48]	; (8006330 <tcp_input+0xaf4>)
 8006300:	681a      	ldr	r2, [r3, #0]
 8006302:	880b      	ldrh	r3, [r1, #0]
 8006304:	4422      	add	r2, r4
 8006306:	e9cd 0301 	strd	r0, r3, [sp, #4]
 800630a:	4b0a      	ldr	r3, [pc, #40]	; (8006334 <tcp_input+0xaf8>)
 800630c:	9300      	str	r3, [sp, #0]
 800630e:	3304      	adds	r3, #4
 8006310:	f8db 1000 	ldr.w	r1, [fp]
 8006314:	4648      	mov	r0, r9
 8006316:	e45b      	b.n	8005bd0 <tcp_input+0x394>
 8006318:	f1ba 0f00 	cmp.w	sl, #0
 800631c:	f47f abc1 	bne.w	8005aa2 <tcp_input+0x266>
 8006320:	f7ff bbd1 	b.w	8005ac6 <tcp_input+0x28a>
 8006324:	20005d04 	.word	0x20005d04
 8006328:	20005d18 	.word	0x20005d18
 800632c:	20005d52 	.word	0x20005d52
 8006330:	20005d38 	.word	0x20005d38
 8006334:	200005c0 	.word	0x200005c0

08006338 <tcp_trigger_input_pcb_close>:
 8006338:	4a02      	ldr	r2, [pc, #8]	; (8006344 <tcp_trigger_input_pcb_close+0xc>)
 800633a:	7813      	ldrb	r3, [r2, #0]
 800633c:	f043 0310 	orr.w	r3, r3, #16
 8006340:	7013      	strb	r3, [r2, #0]
 8006342:	4770      	bx	lr
 8006344:	20005d34 	.word	0x20005d34

08006348 <tcp_output_segment_busy>:
 8006348:	b510      	push	{r4, lr}
 800634a:	4604      	mov	r4, r0
 800634c:	b930      	cbnz	r0, 800635c <tcp_output_segment_busy+0x14>
 800634e:	4b06      	ldr	r3, [pc, #24]	; (8006368 <tcp_output_segment_busy+0x20>)
 8006350:	f240 529a 	movw	r2, #1434	; 0x59a
 8006354:	4905      	ldr	r1, [pc, #20]	; (800636c <tcp_output_segment_busy+0x24>)
 8006356:	4806      	ldr	r0, [pc, #24]	; (8006370 <tcp_output_segment_busy+0x28>)
 8006358:	f003 fd88 	bl	8009e6c <iprintf>
 800635c:	6863      	ldr	r3, [r4, #4]
 800635e:	7b98      	ldrb	r0, [r3, #14]
 8006360:	3801      	subs	r0, #1
 8006362:	bf18      	it	ne
 8006364:	2001      	movne	r0, #1
 8006366:	bd10      	pop	{r4, pc}
 8006368:	0800bef6 	.word	0x0800bef6
 800636c:	0800bf29 	.word	0x0800bf29
 8006370:	0800af68 	.word	0x0800af68

08006374 <tcp_create_segment>:
 8006374:	e92d 47f0 	stmdb	sp!, {r4, r5, r6, r7, r8, r9, sl, lr}
 8006378:	460e      	mov	r6, r1
 800637a:	4690      	mov	r8, r2
 800637c:	4699      	mov	r9, r3
 800637e:	f89d a020 	ldrb.w	sl, [sp, #32]
 8006382:	4607      	mov	r7, r0
 8006384:	b928      	cbnz	r0, 8006392 <tcp_create_segment+0x1e>
 8006386:	4b2f      	ldr	r3, [pc, #188]	; (8006444 <tcp_create_segment+0xd0>)
 8006388:	22a3      	movs	r2, #163	; 0xa3
 800638a:	492f      	ldr	r1, [pc, #188]	; (8006448 <tcp_create_segment+0xd4>)
 800638c:	482f      	ldr	r0, [pc, #188]	; (800644c <tcp_create_segment+0xd8>)
 800638e:	f003 fd6d 	bl	8009e6c <iprintf>
 8006392:	b92e      	cbnz	r6, 80063a0 <tcp_create_segment+0x2c>
 8006394:	4b2b      	ldr	r3, [pc, #172]	; (8006444 <tcp_create_segment+0xd0>)
 8006396:	22a4      	movs	r2, #164	; 0xa4
 8006398:	492d      	ldr	r1, [pc, #180]	; (8006450 <tcp_create_segment+0xdc>)
 800639a:	482c      	ldr	r0, [pc, #176]	; (800644c <tcp_create_segment+0xd8>)
 800639c:	f003 fd66 	bl	8009e6c <iprintf>
 80063a0:	ea4f 058a 	mov.w	r5, sl, lsl #2
 80063a4:	2003      	movs	r0, #3
 80063a6:	f7fd f909 	bl	80035bc <memp_malloc>
 80063aa:	4604      	mov	r4, r0
 80063ac:	f005 0504 	and.w	r5, r5, #4
 80063b0:	b928      	cbnz	r0, 80063be <tcp_create_segment+0x4a>
 80063b2:	4630      	mov	r0, r6
 80063b4:	f7fd fb54 	bl	8003a60 <pbuf_free>
 80063b8:	4620      	mov	r0, r4
 80063ba:	e8bd 87f0 	ldmia.w	sp!, {r4, r5, r6, r7, r8, r9, sl, pc}
 80063be:	2300      	movs	r3, #0
 80063c0:	f880 a00a 	strb.w	sl, [r0, #10]
 80063c4:	fa1f fa85 	uxth.w	sl, r5
 80063c8:	e9c0 3600 	strd	r3, r6, [r0]
 80063cc:	8933      	ldrh	r3, [r6, #8]
 80063ce:	42ab      	cmp	r3, r5
 80063d0:	d205      	bcs.n	80063de <tcp_create_segment+0x6a>
 80063d2:	4b1c      	ldr	r3, [pc, #112]	; (8006444 <tcp_create_segment+0xd0>)
 80063d4:	22b0      	movs	r2, #176	; 0xb0
 80063d6:	491f      	ldr	r1, [pc, #124]	; (8006454 <tcp_create_segment+0xe0>)
 80063d8:	481c      	ldr	r0, [pc, #112]	; (800644c <tcp_create_segment+0xd8>)
 80063da:	f003 fd47 	bl	8009e6c <iprintf>
 80063de:	8933      	ldrh	r3, [r6, #8]
 80063e0:	4630      	mov	r0, r6
 80063e2:	2114      	movs	r1, #20
 80063e4:	eba3 030a 	sub.w	r3, r3, sl
 80063e8:	8123      	strh	r3, [r4, #8]
 80063ea:	f7fd fb01 	bl	80039f0 <pbuf_add_header>
 80063ee:	4606      	mov	r6, r0
 80063f0:	b120      	cbz	r0, 80063fc <tcp_create_segment+0x88>
 80063f2:	4620      	mov	r0, r4
 80063f4:	2400      	movs	r4, #0
 80063f6:	f7fd fe7b 	bl	80040f0 <tcp_seg_free>
 80063fa:	e7dd      	b.n	80063b8 <tcp_create_segment+0x44>
 80063fc:	6863      	ldr	r3, [r4, #4]
 80063fe:	02ad      	lsls	r5, r5, #10
 8006400:	8af8      	ldrh	r0, [r7, #22]
 8006402:	f8d3 a004 	ldr.w	sl, [r3, #4]
 8006406:	f505 45a0 	add.w	r5, r5, #20480	; 0x5000
 800640a:	f8c4 a00c 	str.w	sl, [r4, #12]
 800640e:	f7fc fe4b 	bl	80030a8 <lwip_htons>
 8006412:	f8aa 0000 	strh.w	r0, [sl]
 8006416:	f8d4 a00c 	ldr.w	sl, [r4, #12]
 800641a:	8b38      	ldrh	r0, [r7, #24]
 800641c:	f7fc fe44 	bl	80030a8 <lwip_htons>
 8006420:	68e7      	ldr	r7, [r4, #12]
 8006422:	f8aa 0002 	strh.w	r0, [sl, #2]
 8006426:	4648      	mov	r0, r9
 8006428:	f7fc fe41 	bl	80030ae <lwip_htonl>
 800642c:	6078      	str	r0, [r7, #4]
 800642e:	ea45 0008 	orr.w	r0, r5, r8
 8006432:	68e7      	ldr	r7, [r4, #12]
 8006434:	f7fc fe38 	bl	80030a8 <lwip_htons>
 8006438:	68e3      	ldr	r3, [r4, #12]
 800643a:	81b8      	strh	r0, [r7, #12]
 800643c:	749e      	strb	r6, [r3, #18]
 800643e:	74de      	strb	r6, [r3, #19]
 8006440:	e7ba      	b.n	80063b8 <tcp_create_segment+0x44>
 8006442:	bf00      	nop
 8006444:	0800bef6 	.word	0x0800bef6
 8006448:	0800bf4e 	.word	0x0800bf4e
 800644c:	0800af68 	.word	0x0800af68
 8006450:	0800bf6e 	.word	0x0800bf6e
 8006454:	0800bf8f 	.word	0x0800bf8f

08006458 <tcp_output_alloc_header_common.constprop.0>:
 8006458:	3114      	adds	r1, #20
 800645a:	e92d 41f0 	stmdb	sp!, {r4, r5, r6, r7, r8, lr}
 800645e:	b289      	uxth	r1, r1
 8006460:	4606      	mov	r6, r0
 8006462:	4617      	mov	r7, r2
 8006464:	2022      	movs	r0, #34	; 0x22
 8006466:	f44f 7220 	mov.w	r2, #640	; 0x280
 800646a:	4698      	mov	r8, r3
 800646c:	f7fd fb5c 	bl	8003b28 <pbuf_alloc>
 8006470:	4605      	mov	r5, r0
 8006472:	b348      	cbz	r0, 80064c8 <tcp_output_alloc_header_common.constprop.0+0x70>
 8006474:	8943      	ldrh	r3, [r0, #10]
 8006476:	2b13      	cmp	r3, #19
 8006478:	d806      	bhi.n	8006488 <tcp_output_alloc_header_common.constprop.0+0x30>
 800647a:	4b15      	ldr	r3, [pc, #84]	; (80064d0 <tcp_output_alloc_header_common.constprop.0+0x78>)
 800647c:	f240 7223 	movw	r2, #1827	; 0x723
 8006480:	4914      	ldr	r1, [pc, #80]	; (80064d4 <tcp_output_alloc_header_common.constprop.0+0x7c>)
 8006482:	4815      	ldr	r0, [pc, #84]	; (80064d8 <tcp_output_alloc_header_common.constprop.0+0x80>)
 8006484:	f003 fcf2 	bl	8009e6c <iprintf>
 8006488:	686c      	ldr	r4, [r5, #4]
 800648a:	4640      	mov	r0, r8
 800648c:	f7fc fe0c 	bl	80030a8 <lwip_htons>
 8006490:	8020      	strh	r0, [r4, #0]
 8006492:	f8bd 0018 	ldrh.w	r0, [sp, #24]
 8006496:	f7fc fe07 	bl	80030a8 <lwip_htons>
 800649a:	6067      	str	r7, [r4, #4]
 800649c:	8060      	strh	r0, [r4, #2]
 800649e:	4630      	mov	r0, r6
 80064a0:	f7fc fe05 	bl	80030ae <lwip_htonl>
 80064a4:	60a0      	str	r0, [r4, #8]
 80064a6:	f89d 001c 	ldrb.w	r0, [sp, #28]
 80064aa:	f440 40a0 	orr.w	r0, r0, #20480	; 0x5000
 80064ae:	f7fc fdfb 	bl	80030a8 <lwip_htons>
 80064b2:	81a0      	strh	r0, [r4, #12]
 80064b4:	f8bd 0020 	ldrh.w	r0, [sp, #32]
 80064b8:	f7fc fdf6 	bl	80030a8 <lwip_htons>
 80064bc:	2300      	movs	r3, #0
 80064be:	81e0      	strh	r0, [r4, #14]
 80064c0:	7423      	strb	r3, [r4, #16]
 80064c2:	7463      	strb	r3, [r4, #17]
 80064c4:	74a3      	strb	r3, [r4, #18]
 80064c6:	74e3      	strb	r3, [r4, #19]
 80064c8:	4628      	mov	r0, r5
 80064ca:	e8bd 81f0 	ldmia.w	sp!, {r4, r5, r6, r7, r8, pc}
 80064ce:	bf00      	nop
 80064d0:	0800bef6 	.word	0x0800bef6
 80064d4:	0800bfa4 	.word	0x0800bfa4
 80064d8:	0800af68 	.word	0x0800af68

080064dc <tcp_output_alloc_header.constprop.0>:
 80064dc:	b57f      	push	{r0, r1, r2, r3, r4, r5, r6, lr}
 80064de:	460d      	mov	r5, r1
 80064e0:	4616      	mov	r6, r2
 80064e2:	4604      	mov	r4, r0
 80064e4:	b930      	cbnz	r0, 80064f4 <tcp_output_alloc_header.constprop.0+0x18>
 80064e6:	4b0d      	ldr	r3, [pc, #52]	; (800651c <tcp_output_alloc_header.constprop.0+0x40>)
 80064e8:	f240 7242 	movw	r2, #1858	; 0x742
 80064ec:	490c      	ldr	r1, [pc, #48]	; (8006520 <tcp_output_alloc_header.constprop.0+0x44>)
 80064ee:	480d      	ldr	r0, [pc, #52]	; (8006524 <tcp_output_alloc_header.constprop.0+0x48>)
 80064f0:	f003 fcbc 	bl	8009e6c <iprintf>
 80064f4:	8d63      	ldrh	r3, [r4, #42]	; 0x2a
 80064f6:	4632      	mov	r2, r6
 80064f8:	4629      	mov	r1, r5
 80064fa:	9302      	str	r3, [sp, #8]
 80064fc:	2310      	movs	r3, #16
 80064fe:	9301      	str	r3, [sp, #4]
 8006500:	8b23      	ldrh	r3, [r4, #24]
 8006502:	9300      	str	r3, [sp, #0]
 8006504:	8ae3      	ldrh	r3, [r4, #22]
 8006506:	6a60      	ldr	r0, [r4, #36]	; 0x24
 8006508:	f7ff ffa6 	bl	8006458 <tcp_output_alloc_header_common.constprop.0>
 800650c:	b118      	cbz	r0, 8006516 <tcp_output_alloc_header.constprop.0+0x3a>
 800650e:	8d62      	ldrh	r2, [r4, #42]	; 0x2a
 8006510:	6a63      	ldr	r3, [r4, #36]	; 0x24
 8006512:	4413      	add	r3, r2
 8006514:	62e3      	str	r3, [r4, #44]	; 0x2c
 8006516:	b004      	add	sp, #16
 8006518:	bd70      	pop	{r4, r5, r6, pc}
 800651a:	bf00      	nop
 800651c:	0800bef6 	.word	0x0800bef6
 8006520:	0800bfd2 	.word	0x0800bfd2
 8006524:	0800af68 	.word	0x0800af68

08006528 <tcp_output_fill_options.constprop.0>:
 8006528:	b930      	cbnz	r0, 8006538 <tcp_output_fill_options.constprop.0+0x10>
 800652a:	4b04      	ldr	r3, [pc, #16]	; (800653c <tcp_output_fill_options.constprop.0+0x14>)
 800652c:	f240 7256 	movw	r2, #1878	; 0x756
 8006530:	4903      	ldr	r1, [pc, #12]	; (8006540 <tcp_output_fill_options.constprop.0+0x18>)
 8006532:	4804      	ldr	r0, [pc, #16]	; (8006544 <tcp_output_fill_options.constprop.0+0x1c>)
 8006534:	f003 bc9a 	b.w	8009e6c <iprintf>
 8006538:	4770      	bx	lr
 800653a:	bf00      	nop
 800653c:	0800bef6 	.word	0x0800bef6
 8006540:	0800bff7 	.word	0x0800bff7
 8006544:	0800af68 	.word	0x0800af68

08006548 <tcp_output_control_segment>:
 8006548:	b5f0      	push	{r4, r5, r6, r7, lr}
 800654a:	4604      	mov	r4, r0
 800654c:	b085      	sub	sp, #20
 800654e:	4617      	mov	r7, r2
 8006550:	461e      	mov	r6, r3
 8006552:	460d      	mov	r5, r1
 8006554:	b931      	cbnz	r1, 8006564 <tcp_output_control_segment+0x1c>
 8006556:	4b15      	ldr	r3, [pc, #84]	; (80065ac <tcp_output_control_segment+0x64>)
 8006558:	f240 7287 	movw	r2, #1927	; 0x787
 800655c:	4914      	ldr	r1, [pc, #80]	; (80065b0 <tcp_output_control_segment+0x68>)
 800655e:	4815      	ldr	r0, [pc, #84]	; (80065b4 <tcp_output_control_segment+0x6c>)
 8006560:	f003 fc84 	bl	8009e6c <iprintf>
 8006564:	b164      	cbz	r4, 8006580 <tcp_output_control_segment+0x38>
 8006566:	7a20      	ldrb	r0, [r4, #8]
 8006568:	b150      	cbz	r0, 8006580 <tcp_output_control_segment+0x38>
 800656a:	f7fd f9ad 	bl	80038c8 <netif_get_by_index>
 800656e:	b968      	cbnz	r0, 800658c <tcp_output_control_segment+0x44>
 8006570:	f06f 0403 	mvn.w	r4, #3
 8006574:	4628      	mov	r0, r5
 8006576:	f7fd fa73 	bl	8003a60 <pbuf_free>
 800657a:	4620      	mov	r0, r4
 800657c:	b005      	add	sp, #20
 800657e:	bdf0      	pop	{r4, r5, r6, r7, pc}
 8006580:	4630      	mov	r0, r6
 8006582:	f002 fe29 	bl	80091d8 <ip4_route>
 8006586:	2800      	cmp	r0, #0
 8006588:	d0f2      	beq.n	8006570 <tcp_output_control_segment+0x28>
 800658a:	b164      	cbz	r4, 80065a6 <tcp_output_control_segment+0x5e>
 800658c:	7ae3      	ldrb	r3, [r4, #11]
 800658e:	7aa4      	ldrb	r4, [r4, #10]
 8006590:	2206      	movs	r2, #6
 8006592:	9002      	str	r0, [sp, #8]
 8006594:	4639      	mov	r1, r7
 8006596:	4628      	mov	r0, r5
 8006598:	e9cd 4200 	strd	r4, r2, [sp]
 800659c:	4632      	mov	r2, r6
 800659e:	f002 ff89 	bl	80094b4 <ip4_output_if>
 80065a2:	4604      	mov	r4, r0
 80065a4:	e7e6      	b.n	8006574 <tcp_output_control_segment+0x2c>
 80065a6:	23ff      	movs	r3, #255	; 0xff
 80065a8:	e7f2      	b.n	8006590 <tcp_output_control_segment+0x48>
 80065aa:	bf00      	nop
 80065ac:	0800bef6 	.word	0x0800bef6
 80065b0:	0800c01d 	.word	0x0800c01d
 80065b4:	0800af68 	.word	0x0800af68

080065b8 <tcp_split_unsent_seg>:
 80065b8:	e92d 4ff7 	stmdb	sp!, {r0, r1, r2, r4, r5, r6, r7, r8, r9, sl, fp, lr}
 80065bc:	460d      	mov	r5, r1
 80065be:	4606      	mov	r6, r0
 80065c0:	b930      	cbnz	r0, 80065d0 <tcp_split_unsent_seg+0x18>
 80065c2:	4b5d      	ldr	r3, [pc, #372]	; (8006738 <tcp_split_unsent_seg+0x180>)
 80065c4:	f240 324b 	movw	r2, #843	; 0x34b
 80065c8:	495c      	ldr	r1, [pc, #368]	; (800673c <tcp_split_unsent_seg+0x184>)
 80065ca:	485d      	ldr	r0, [pc, #372]	; (8006740 <tcp_split_unsent_seg+0x188>)
 80065cc:	f003 fc4e 	bl	8009e6c <iprintf>
 80065d0:	6ef4      	ldr	r4, [r6, #108]	; 0x6c
 80065d2:	b914      	cbnz	r4, 80065da <tcp_split_unsent_seg+0x22>
 80065d4:	f04f 30ff 	mov.w	r0, #4294967295
 80065d8:	e009      	b.n	80065ee <tcp_split_unsent_seg+0x36>
 80065da:	b95d      	cbnz	r5, 80065f4 <tcp_split_unsent_seg+0x3c>
 80065dc:	4b56      	ldr	r3, [pc, #344]	; (8006738 <tcp_split_unsent_seg+0x180>)
 80065de:	f240 3253 	movw	r2, #851	; 0x353
 80065e2:	4958      	ldr	r1, [pc, #352]	; (8006744 <tcp_split_unsent_seg+0x18c>)
 80065e4:	4856      	ldr	r0, [pc, #344]	; (8006740 <tcp_split_unsent_seg+0x188>)
 80065e6:	f003 fc41 	bl	8009e6c <iprintf>
 80065ea:	f06f 0005 	mvn.w	r0, #5
 80065ee:	b003      	add	sp, #12
 80065f0:	e8bd 8ff0 	ldmia.w	sp!, {r4, r5, r6, r7, r8, r9, sl, fp, pc}
 80065f4:	8923      	ldrh	r3, [r4, #8]
 80065f6:	42ab      	cmp	r3, r5
 80065f8:	d801      	bhi.n	80065fe <tcp_split_unsent_seg+0x46>
 80065fa:	2000      	movs	r0, #0
 80065fc:	e7f7      	b.n	80065ee <tcp_split_unsent_seg+0x36>
 80065fe:	8e73      	ldrh	r3, [r6, #50]	; 0x32
 8006600:	42ab      	cmp	r3, r5
 8006602:	d20f      	bcs.n	8006624 <tcp_split_unsent_seg+0x6c>
 8006604:	4b4c      	ldr	r3, [pc, #304]	; (8006738 <tcp_split_unsent_seg+0x180>)
 8006606:	f240 325b 	movw	r2, #859	; 0x35b
 800660a:	494f      	ldr	r1, [pc, #316]	; (8006748 <tcp_split_unsent_seg+0x190>)
 800660c:	484c      	ldr	r0, [pc, #304]	; (8006740 <tcp_split_unsent_seg+0x188>)
 800660e:	f003 fc2d 	bl	8009e6c <iprintf>
 8006612:	8923      	ldrh	r3, [r4, #8]
 8006614:	b933      	cbnz	r3, 8006624 <tcp_split_unsent_seg+0x6c>
 8006616:	4b48      	ldr	r3, [pc, #288]	; (8006738 <tcp_split_unsent_seg+0x180>)
 8006618:	f44f 7257 	mov.w	r2, #860	; 0x35c
 800661c:	494b      	ldr	r1, [pc, #300]	; (800674c <tcp_split_unsent_seg+0x194>)
 800661e:	4848      	ldr	r0, [pc, #288]	; (8006740 <tcp_split_unsent_seg+0x188>)
 8006620:	f003 fc24 	bl	8009e6c <iprintf>
 8006624:	f894 b00a 	ldrb.w	fp, [r4, #10]
 8006628:	f44f 7220 	mov.w	r2, #640	; 0x280
 800662c:	f8b4 a008 	ldrh.w	sl, [r4, #8]
 8006630:	2036      	movs	r0, #54	; 0x36
 8006632:	ea4f 078b 	mov.w	r7, fp, lsl #2
 8006636:	ebaa 0105 	sub.w	r1, sl, r5
 800663a:	f007 0704 	and.w	r7, r7, #4
 800663e:	fa1f f881 	uxth.w	r8, r1
 8006642:	fa17 f181 	uxtah	r1, r7, r1
 8006646:	b289      	uxth	r1, r1
 8006648:	f7fd fa6e 	bl	8003b28 <pbuf_alloc>
 800664c:	4681      	mov	r9, r0
 800664e:	2800      	cmp	r0, #0
 8006650:	d0c0      	beq.n	80065d4 <tcp_split_unsent_seg+0x1c>
 8006652:	6860      	ldr	r0, [r4, #4]
 8006654:	8922      	ldrh	r2, [r4, #8]
 8006656:	8903      	ldrh	r3, [r0, #8]
 8006658:	f8d9 1004 	ldr.w	r1, [r9, #4]
 800665c:	1a9b      	subs	r3, r3, r2
 800665e:	4642      	mov	r2, r8
 8006660:	4439      	add	r1, r7
 8006662:	442b      	add	r3, r5
 8006664:	b29b      	uxth	r3, r3
 8006666:	f7fd fc19 	bl	8003e9c <pbuf_copy_partial>
 800666a:	4540      	cmp	r0, r8
 800666c:	d160      	bne.n	8006730 <tcp_split_unsent_seg+0x178>
 800666e:	68e3      	ldr	r3, [r4, #12]
 8006670:	8998      	ldrh	r0, [r3, #12]
 8006672:	f7fc fd19 	bl	80030a8 <lwip_htons>
 8006676:	f010 0808 	ands.w	r8, r0, #8
 800667a:	b2c7      	uxtb	r7, r0
 800667c:	bf16      	itet	ne
 800667e:	f04f 0808 	movne.w	r8, #8
 8006682:	f007 073f 	andeq.w	r7, r7, #63	; 0x3f
 8006686:	f007 0737 	andne.w	r7, r7, #55	; 0x37
 800668a:	07fb      	lsls	r3, r7, #31
 800668c:	68e3      	ldr	r3, [r4, #12]
 800668e:	bf48      	it	mi
 8006690:	f048 0801 	orrmi.w	r8, r8, #1
 8006694:	6858      	ldr	r0, [r3, #4]
 8006696:	bf48      	it	mi
 8006698:	f007 07fe 	andmi.w	r7, r7, #254	; 0xfe
 800669c:	f7fc fd07 	bl	80030ae <lwip_htonl>
 80066a0:	4642      	mov	r2, r8
 80066a2:	182b      	adds	r3, r5, r0
 80066a4:	4649      	mov	r1, r9
 80066a6:	4630      	mov	r0, r6
 80066a8:	f8cd b000 	str.w	fp, [sp]
 80066ac:	f7ff fe62 	bl	8006374 <tcp_create_segment>
 80066b0:	4680      	mov	r8, r0
 80066b2:	2800      	cmp	r0, #0
 80066b4:	d03c      	beq.n	8006730 <tcp_split_unsent_seg+0x178>
 80066b6:	6860      	ldr	r0, [r4, #4]
 80066b8:	eba5 050a 	sub.w	r5, r5, sl
 80066bc:	f7fd fb0c 	bl	8003cd8 <pbuf_clen>
 80066c0:	f8b6 3066 	ldrh.w	r3, [r6, #102]	; 0x66
 80066c4:	fa1f f985 	uxth.w	r9, r5
 80066c8:	1a18      	subs	r0, r3, r0
 80066ca:	f8a6 0066 	strh.w	r0, [r6, #102]	; 0x66
 80066ce:	6860      	ldr	r0, [r4, #4]
 80066d0:	8901      	ldrh	r1, [r0, #8]
 80066d2:	fa11 f185 	uxtah	r1, r1, r5
 80066d6:	b289      	uxth	r1, r1
 80066d8:	f7fd faa6 	bl	8003c28 <pbuf_realloc>
 80066dc:	8923      	ldrh	r3, [r4, #8]
 80066de:	4638      	mov	r0, r7
 80066e0:	4499      	add	r9, r3
 80066e2:	68e3      	ldr	r3, [r4, #12]
 80066e4:	f8a4 9008 	strh.w	r9, [r4, #8]
 80066e8:	899d      	ldrh	r5, [r3, #12]
 80066ea:	f7fc fcdd 	bl	80030a8 <lwip_htons>
 80066ee:	68e3      	ldr	r3, [r4, #12]
 80066f0:	4328      	orrs	r0, r5
 80066f2:	8198      	strh	r0, [r3, #12]
 80066f4:	6860      	ldr	r0, [r4, #4]
 80066f6:	f7fd faef 	bl	8003cd8 <pbuf_clen>
 80066fa:	f8b6 3066 	ldrh.w	r3, [r6, #102]	; 0x66
 80066fe:	4418      	add	r0, r3
 8006700:	f8a6 0066 	strh.w	r0, [r6, #102]	; 0x66
 8006704:	f8d8 0004 	ldr.w	r0, [r8, #4]
 8006708:	f7fd fae6 	bl	8003cd8 <pbuf_clen>
 800670c:	f8b6 3066 	ldrh.w	r3, [r6, #102]	; 0x66
 8006710:	4418      	add	r0, r3
 8006712:	6823      	ldr	r3, [r4, #0]
 8006714:	f8a6 0066 	strh.w	r0, [r6, #102]	; 0x66
 8006718:	f8c8 3000 	str.w	r3, [r8]
 800671c:	f8c4 8000 	str.w	r8, [r4]
 8006720:	f8d8 0000 	ldr.w	r0, [r8]
 8006724:	2800      	cmp	r0, #0
 8006726:	f47f af68 	bne.w	80065fa <tcp_split_unsent_seg+0x42>
 800672a:	f8a6 0068 	strh.w	r0, [r6, #104]	; 0x68
 800672e:	e75e      	b.n	80065ee <tcp_split_unsent_seg+0x36>
 8006730:	4648      	mov	r0, r9
 8006732:	f7fd f995 	bl	8003a60 <pbuf_free>
 8006736:	e74d      	b.n	80065d4 <tcp_split_unsent_seg+0x1c>
 8006738:	0800bef6 	.word	0x0800bef6
 800673c:	0800c046 	.word	0x0800c046
 8006740:	0800af68 	.word	0x0800af68
 8006744:	0800c068 	.word	0x0800c068
 8006748:	0800c08a 	.word	0x0800c08a
 800674c:	0800c097 	.word	0x0800c097

08006750 <tcp_enqueue_flags>:
 8006750:	e92d 43f7 	stmdb	sp!, {r0, r1, r2, r4, r5, r6, r7, r8, r9, lr}
 8006754:	f011 0803 	ands.w	r8, r1, #3
 8006758:	4604      	mov	r4, r0
 800675a:	460e      	mov	r6, r1
 800675c:	d106      	bne.n	800676c <tcp_enqueue_flags+0x1c>
 800675e:	4b3e      	ldr	r3, [pc, #248]	; (8006858 <tcp_enqueue_flags+0x108>)
 8006760:	f240 4211 	movw	r2, #1041	; 0x411
 8006764:	493d      	ldr	r1, [pc, #244]	; (800685c <tcp_enqueue_flags+0x10c>)
 8006766:	483e      	ldr	r0, [pc, #248]	; (8006860 <tcp_enqueue_flags+0x110>)
 8006768:	f003 fb80 	bl	8009e6c <iprintf>
 800676c:	b934      	cbnz	r4, 800677c <tcp_enqueue_flags+0x2c>
 800676e:	4b3a      	ldr	r3, [pc, #232]	; (8006858 <tcp_enqueue_flags+0x108>)
 8006770:	f240 4213 	movw	r2, #1043	; 0x413
 8006774:	493b      	ldr	r1, [pc, #236]	; (8006864 <tcp_enqueue_flags+0x114>)
 8006776:	483a      	ldr	r0, [pc, #232]	; (8006860 <tcp_enqueue_flags+0x110>)
 8006778:	f003 fb78 	bl	8009e6c <iprintf>
 800677c:	f3c6 0740 	ubfx	r7, r6, #1, #1
 8006780:	f44f 7220 	mov.w	r2, #640	; 0x280
 8006784:	2036      	movs	r0, #54	; 0x36
 8006786:	ea4f 0987 	mov.w	r9, r7, lsl #2
 800678a:	4649      	mov	r1, r9
 800678c:	f7fd f9cc 	bl	8003b28 <pbuf_alloc>
 8006790:	4605      	mov	r5, r0
 8006792:	b940      	cbnz	r0, 80067a6 <tcp_enqueue_flags+0x56>
 8006794:	8b63      	ldrh	r3, [r4, #26]
 8006796:	f04f 30ff 	mov.w	r0, #4294967295
 800679a:	f043 0380 	orr.w	r3, r3, #128	; 0x80
 800679e:	8363      	strh	r3, [r4, #26]
 80067a0:	b003      	add	sp, #12
 80067a2:	e8bd 83f0 	ldmia.w	sp!, {r4, r5, r6, r7, r8, r9, pc}
 80067a6:	8943      	ldrh	r3, [r0, #10]
 80067a8:	454b      	cmp	r3, r9
 80067aa:	d206      	bcs.n	80067ba <tcp_enqueue_flags+0x6a>
 80067ac:	4b2a      	ldr	r3, [pc, #168]	; (8006858 <tcp_enqueue_flags+0x108>)
 80067ae:	f240 4239 	movw	r2, #1081	; 0x439
 80067b2:	492d      	ldr	r1, [pc, #180]	; (8006868 <tcp_enqueue_flags+0x118>)
 80067b4:	482a      	ldr	r0, [pc, #168]	; (8006860 <tcp_enqueue_flags+0x110>)
 80067b6:	f003 fb59 	bl	8009e6c <iprintf>
 80067ba:	4629      	mov	r1, r5
 80067bc:	9700      	str	r7, [sp, #0]
 80067be:	4632      	mov	r2, r6
 80067c0:	6de3      	ldr	r3, [r4, #92]	; 0x5c
 80067c2:	4620      	mov	r0, r4
 80067c4:	f7ff fdd6 	bl	8006374 <tcp_create_segment>
 80067c8:	4605      	mov	r5, r0
 80067ca:	2800      	cmp	r0, #0
 80067cc:	d0e2      	beq.n	8006794 <tcp_enqueue_flags+0x44>
 80067ce:	68c3      	ldr	r3, [r0, #12]
 80067d0:	079a      	lsls	r2, r3, #30
 80067d2:	d006      	beq.n	80067e2 <tcp_enqueue_flags+0x92>
 80067d4:	4b20      	ldr	r3, [pc, #128]	; (8006858 <tcp_enqueue_flags+0x108>)
 80067d6:	f240 4242 	movw	r2, #1090	; 0x442
 80067da:	4924      	ldr	r1, [pc, #144]	; (800686c <tcp_enqueue_flags+0x11c>)
 80067dc:	4820      	ldr	r0, [pc, #128]	; (8006860 <tcp_enqueue_flags+0x110>)
 80067de:	f003 fb45 	bl	8009e6c <iprintf>
 80067e2:	892b      	ldrh	r3, [r5, #8]
 80067e4:	b133      	cbz	r3, 80067f4 <tcp_enqueue_flags+0xa4>
 80067e6:	4b1c      	ldr	r3, [pc, #112]	; (8006858 <tcp_enqueue_flags+0x108>)
 80067e8:	f240 4243 	movw	r2, #1091	; 0x443
 80067ec:	4920      	ldr	r1, [pc, #128]	; (8006870 <tcp_enqueue_flags+0x120>)
 80067ee:	481c      	ldr	r0, [pc, #112]	; (8006860 <tcp_enqueue_flags+0x110>)
 80067f0:	f003 fb3c 	bl	8009e6c <iprintf>
 80067f4:	6ee3      	ldr	r3, [r4, #108]	; 0x6c
 80067f6:	bb43      	cbnz	r3, 800684a <tcp_enqueue_flags+0xfa>
 80067f8:	66e5      	str	r5, [r4, #108]	; 0x6c
 80067fa:	2300      	movs	r3, #0
 80067fc:	f8a4 3068 	strh.w	r3, [r4, #104]	; 0x68
 8006800:	f1b8 0f00 	cmp.w	r8, #0
 8006804:	d002      	beq.n	800680c <tcp_enqueue_flags+0xbc>
 8006806:	6de3      	ldr	r3, [r4, #92]	; 0x5c
 8006808:	3301      	adds	r3, #1
 800680a:	65e3      	str	r3, [r4, #92]	; 0x5c
 800680c:	07f3      	lsls	r3, r6, #31
 800680e:	6868      	ldr	r0, [r5, #4]
 8006810:	bf42      	ittt	mi
 8006812:	8b63      	ldrhmi	r3, [r4, #26]
 8006814:	f043 0320 	orrmi.w	r3, r3, #32
 8006818:	8363      	strhmi	r3, [r4, #26]
 800681a:	f7fd fa5d 	bl	8003cd8 <pbuf_clen>
 800681e:	f8b4 3066 	ldrh.w	r3, [r4, #102]	; 0x66
 8006822:	4418      	add	r0, r3
 8006824:	b280      	uxth	r0, r0
 8006826:	f8a4 0066 	strh.w	r0, [r4, #102]	; 0x66
 800682a:	2800      	cmp	r0, #0
 800682c:	d0b8      	beq.n	80067a0 <tcp_enqueue_flags+0x50>
 800682e:	6f20      	ldr	r0, [r4, #112]	; 0x70
 8006830:	b948      	cbnz	r0, 8006846 <tcp_enqueue_flags+0xf6>
 8006832:	6ee4      	ldr	r4, [r4, #108]	; 0x6c
 8006834:	2c00      	cmp	r4, #0
 8006836:	d1b3      	bne.n	80067a0 <tcp_enqueue_flags+0x50>
 8006838:	4b07      	ldr	r3, [pc, #28]	; (8006858 <tcp_enqueue_flags+0x108>)
 800683a:	f240 4265 	movw	r2, #1125	; 0x465
 800683e:	490d      	ldr	r1, [pc, #52]	; (8006874 <tcp_enqueue_flags+0x124>)
 8006840:	4807      	ldr	r0, [pc, #28]	; (8006860 <tcp_enqueue_flags+0x110>)
 8006842:	f003 fb13 	bl	8009e6c <iprintf>
 8006846:	2000      	movs	r0, #0
 8006848:	e7aa      	b.n	80067a0 <tcp_enqueue_flags+0x50>
 800684a:	461a      	mov	r2, r3
 800684c:	681b      	ldr	r3, [r3, #0]
 800684e:	2b00      	cmp	r3, #0
 8006850:	d1fb      	bne.n	800684a <tcp_enqueue_flags+0xfa>
 8006852:	6015      	str	r5, [r2, #0]
 8006854:	e7d1      	b.n	80067fa <tcp_enqueue_flags+0xaa>
 8006856:	bf00      	nop
 8006858:	0800bef6 	.word	0x0800bef6
 800685c:	0800c0a5 	.word	0x0800c0a5
 8006860:	0800af68 	.word	0x0800af68
 8006864:	0800c0fa 	.word	0x0800c0fa
 8006868:	0800c119 	.word	0x0800c119
 800686c:	0800c152 	.word	0x0800c152
 8006870:	0800c16a 	.word	0x0800c16a
 8006874:	0800c194 	.word	0x0800c194

08006878 <tcp_send_fin>:
 8006878:	b5f8      	push	{r3, r4, r5, r6, r7, lr}
 800687a:	4604      	mov	r4, r0
 800687c:	b930      	cbnz	r0, 800688c <tcp_send_fin+0x14>
 800687e:	4b13      	ldr	r3, [pc, #76]	; (80068cc <tcp_send_fin+0x54>)
 8006880:	f240 32eb 	movw	r2, #1003	; 0x3eb
 8006884:	4912      	ldr	r1, [pc, #72]	; (80068d0 <tcp_send_fin+0x58>)
 8006886:	4813      	ldr	r0, [pc, #76]	; (80068d4 <tcp_send_fin+0x5c>)
 8006888:	f003 faf0 	bl	8009e6c <iprintf>
 800688c:	6ee5      	ldr	r5, [r4, #108]	; 0x6c
 800688e:	b14d      	cbz	r5, 80068a4 <tcp_send_fin+0x2c>
 8006890:	462f      	mov	r7, r5
 8006892:	682d      	ldr	r5, [r5, #0]
 8006894:	2d00      	cmp	r5, #0
 8006896:	d1fb      	bne.n	8006890 <tcp_send_fin+0x18>
 8006898:	68fb      	ldr	r3, [r7, #12]
 800689a:	8998      	ldrh	r0, [r3, #12]
 800689c:	f7fc fc04 	bl	80030a8 <lwip_htons>
 80068a0:	0743      	lsls	r3, r0, #29
 80068a2:	d005      	beq.n	80068b0 <tcp_send_fin+0x38>
 80068a4:	4620      	mov	r0, r4
 80068a6:	2101      	movs	r1, #1
 80068a8:	e8bd 40f8 	ldmia.w	sp!, {r3, r4, r5, r6, r7, lr}
 80068ac:	f7ff bf50 	b.w	8006750 <tcp_enqueue_flags>
 80068b0:	68fb      	ldr	r3, [r7, #12]
 80068b2:	2001      	movs	r0, #1
 80068b4:	899e      	ldrh	r6, [r3, #12]
 80068b6:	f7fc fbf7 	bl	80030a8 <lwip_htons>
 80068ba:	68fb      	ldr	r3, [r7, #12]
 80068bc:	4330      	orrs	r0, r6
 80068be:	8198      	strh	r0, [r3, #12]
 80068c0:	4628      	mov	r0, r5
 80068c2:	8b63      	ldrh	r3, [r4, #26]
 80068c4:	f043 0320 	orr.w	r3, r3, #32
 80068c8:	8363      	strh	r3, [r4, #26]
 80068ca:	bdf8      	pop	{r3, r4, r5, r6, r7, pc}
 80068cc:	0800bef6 	.word	0x0800bef6
 80068d0:	0800c1bc 	.word	0x0800c1bc
 80068d4:	0800af68 	.word	0x0800af68

080068d8 <tcp_rexmit_rto_prepare>:
 80068d8:	e92d 41f0 	stmdb	sp!, {r4, r5, r6, r7, r8, lr}
 80068dc:	4604      	mov	r4, r0
 80068de:	b930      	cbnz	r0, 80068ee <tcp_rexmit_rto_prepare+0x16>
 80068e0:	4b1c      	ldr	r3, [pc, #112]	; (8006954 <tcp_rexmit_rto_prepare+0x7c>)
 80068e2:	f240 6263 	movw	r2, #1635	; 0x663
 80068e6:	491c      	ldr	r1, [pc, #112]	; (8006958 <tcp_rexmit_rto_prepare+0x80>)
 80068e8:	481c      	ldr	r0, [pc, #112]	; (800695c <tcp_rexmit_rto_prepare+0x84>)
 80068ea:	f003 fabf 	bl	8009e6c <iprintf>
 80068ee:	6f25      	ldr	r5, [r4, #112]	; 0x70
 80068f0:	b945      	cbnz	r5, 8006904 <tcp_rexmit_rto_prepare+0x2c>
 80068f2:	f06f 0005 	mvn.w	r0, #5
 80068f6:	e8bd 81f0 	ldmia.w	sp!, {r4, r5, r6, r7, r8, pc}
 80068fa:	f7ff fd25 	bl	8006348 <tcp_output_segment_busy>
 80068fe:	2800      	cmp	r0, #0
 8006900:	d1f7      	bne.n	80068f2 <tcp_rexmit_rto_prepare+0x1a>
 8006902:	682d      	ldr	r5, [r5, #0]
 8006904:	682b      	ldr	r3, [r5, #0]
 8006906:	4628      	mov	r0, r5
 8006908:	2b00      	cmp	r3, #0
 800690a:	d1f6      	bne.n	80068fa <tcp_rexmit_rto_prepare+0x22>
 800690c:	f7ff fd1c 	bl	8006348 <tcp_output_segment_busy>
 8006910:	4606      	mov	r6, r0
 8006912:	2800      	cmp	r0, #0
 8006914:	d1ed      	bne.n	80068f2 <tcp_rexmit_rto_prepare+0x1a>
 8006916:	6ee3      	ldr	r3, [r4, #108]	; 0x6c
 8006918:	602b      	str	r3, [r5, #0]
 800691a:	6f23      	ldr	r3, [r4, #112]	; 0x70
 800691c:	e9c4 301b 	strd	r3, r0, [r4, #108]	; 0x6c
 8006920:	8b63      	ldrh	r3, [r4, #26]
 8006922:	f443 6300 	orr.w	r3, r3, #2048	; 0x800
 8006926:	8363      	strh	r3, [r4, #26]
 8006928:	68eb      	ldr	r3, [r5, #12]
 800692a:	6858      	ldr	r0, [r3, #4]
 800692c:	f7fc fbbf 	bl	80030ae <lwip_htonl>
 8006930:	68eb      	ldr	r3, [r5, #12]
 8006932:	4607      	mov	r7, r0
 8006934:	f8b5 8008 	ldrh.w	r8, [r5, #8]
 8006938:	8998      	ldrh	r0, [r3, #12]
 800693a:	f7fc fbb5 	bl	80030a8 <lwip_htons>
 800693e:	f010 0303 	ands.w	r3, r0, #3
 8006942:	4447      	add	r7, r8
 8006944:	4630      	mov	r0, r6
 8006946:	bf18      	it	ne
 8006948:	2301      	movne	r3, #1
 800694a:	6366      	str	r6, [r4, #52]	; 0x34
 800694c:	443b      	add	r3, r7
 800694e:	64e3      	str	r3, [r4, #76]	; 0x4c
 8006950:	e7d1      	b.n	80068f6 <tcp_rexmit_rto_prepare+0x1e>
 8006952:	bf00      	nop
 8006954:	0800bef6 	.word	0x0800bef6
 8006958:	0800c1d6 	.word	0x0800c1d6
 800695c:	0800af68 	.word	0x0800af68

08006960 <tcp_rexmit>:
 8006960:	b5f8      	push	{r3, r4, r5, r6, r7, lr}
 8006962:	4604      	mov	r4, r0
 8006964:	b930      	cbnz	r0, 8006974 <tcp_rexmit+0x14>
 8006966:	4b1b      	ldr	r3, [pc, #108]	; (80069d4 <tcp_rexmit+0x74>)
 8006968:	f240 62c1 	movw	r2, #1729	; 0x6c1
 800696c:	491a      	ldr	r1, [pc, #104]	; (80069d8 <tcp_rexmit+0x78>)
 800696e:	481b      	ldr	r0, [pc, #108]	; (80069dc <tcp_rexmit+0x7c>)
 8006970:	f003 fa7c 	bl	8009e6c <iprintf>
 8006974:	6f25      	ldr	r5, [r4, #112]	; 0x70
 8006976:	b915      	cbnz	r5, 800697e <tcp_rexmit+0x1e>
 8006978:	f06f 0005 	mvn.w	r0, #5
 800697c:	bdf8      	pop	{r3, r4, r5, r6, r7, pc}
 800697e:	4628      	mov	r0, r5
 8006980:	f7ff fce2 	bl	8006348 <tcp_output_segment_busy>
 8006984:	2800      	cmp	r0, #0
 8006986:	d1f7      	bne.n	8006978 <tcp_rexmit+0x18>
 8006988:	682b      	ldr	r3, [r5, #0]
 800698a:	f104 066c 	add.w	r6, r4, #108	; 0x6c
 800698e:	6723      	str	r3, [r4, #112]	; 0x70
 8006990:	6833      	ldr	r3, [r6, #0]
 8006992:	b983      	cbnz	r3, 80069b6 <tcp_rexmit+0x56>
 8006994:	6833      	ldr	r3, [r6, #0]
 8006996:	602b      	str	r3, [r5, #0]
 8006998:	6035      	str	r5, [r6, #0]
 800699a:	682b      	ldr	r3, [r5, #0]
 800699c:	b90b      	cbnz	r3, 80069a2 <tcp_rexmit+0x42>
 800699e:	f8a4 3068 	strh.w	r3, [r4, #104]	; 0x68
 80069a2:	f894 3042 	ldrb.w	r3, [r4, #66]	; 0x42
 80069a6:	2000      	movs	r0, #0
 80069a8:	2bff      	cmp	r3, #255	; 0xff
 80069aa:	6360      	str	r0, [r4, #52]	; 0x34
 80069ac:	bf1c      	itt	ne
 80069ae:	3301      	addne	r3, #1
 80069b0:	f884 3042 	strbne.w	r3, [r4, #66]	; 0x42
 80069b4:	e7e2      	b.n	800697c <tcp_rexmit+0x1c>
 80069b6:	68db      	ldr	r3, [r3, #12]
 80069b8:	6858      	ldr	r0, [r3, #4]
 80069ba:	f7fc fb78 	bl	80030ae <lwip_htonl>
 80069be:	68eb      	ldr	r3, [r5, #12]
 80069c0:	4607      	mov	r7, r0
 80069c2:	6858      	ldr	r0, [r3, #4]
 80069c4:	f7fc fb73 	bl	80030ae <lwip_htonl>
 80069c8:	1a38      	subs	r0, r7, r0
 80069ca:	2800      	cmp	r0, #0
 80069cc:	dae2      	bge.n	8006994 <tcp_rexmit+0x34>
 80069ce:	6836      	ldr	r6, [r6, #0]
 80069d0:	e7de      	b.n	8006990 <tcp_rexmit+0x30>
 80069d2:	bf00      	nop
 80069d4:	0800bef6 	.word	0x0800bef6
 80069d8:	0800c1fa 	.word	0x0800c1fa
 80069dc:	0800af68 	.word	0x0800af68

080069e0 <tcp_rexmit_fast>:
 80069e0:	b538      	push	{r3, r4, r5, lr}
 80069e2:	4604      	mov	r4, r0
 80069e4:	b930      	cbnz	r0, 80069f4 <tcp_rexmit_fast+0x14>
 80069e6:	4b15      	ldr	r3, [pc, #84]	; (8006a3c <tcp_rexmit_fast+0x5c>)
 80069e8:	f240 62f9 	movw	r2, #1785	; 0x6f9
 80069ec:	4914      	ldr	r1, [pc, #80]	; (8006a40 <tcp_rexmit_fast+0x60>)
 80069ee:	4815      	ldr	r0, [pc, #84]	; (8006a44 <tcp_rexmit_fast+0x64>)
 80069f0:	f003 fa3c 	bl	8009e6c <iprintf>
 80069f4:	6f23      	ldr	r3, [r4, #112]	; 0x70
 80069f6:	b1fb      	cbz	r3, 8006a38 <tcp_rexmit_fast+0x58>
 80069f8:	8b63      	ldrh	r3, [r4, #26]
 80069fa:	075b      	lsls	r3, r3, #29
 80069fc:	d41c      	bmi.n	8006a38 <tcp_rexmit_fast+0x58>
 80069fe:	4620      	mov	r0, r4
 8006a00:	f7ff ffae 	bl	8006960 <tcp_rexmit>
 8006a04:	b9c0      	cbnz	r0, 8006a38 <tcp_rexmit_fast+0x58>
 8006a06:	f8b4 1060 	ldrh.w	r1, [r4, #96]	; 0x60
 8006a0a:	f8b4 3048 	ldrh.w	r3, [r4, #72]	; 0x48
 8006a0e:	8620      	strh	r0, [r4, #48]	; 0x30
 8006a10:	4299      	cmp	r1, r3
 8006a12:	bf28      	it	cs
 8006a14:	4619      	movcs	r1, r3
 8006a16:	8e63      	ldrh	r3, [r4, #50]	; 0x32
 8006a18:	005d      	lsls	r5, r3, #1
 8006a1a:	104a      	asrs	r2, r1, #1
 8006a1c:	ebb5 0f51 	cmp.w	r5, r1, lsr #1
 8006a20:	442b      	add	r3, r5
 8006a22:	bf88      	it	hi
 8006a24:	462a      	movhi	r2, r5
 8006a26:	4413      	add	r3, r2
 8006a28:	f8a4 204a 	strh.w	r2, [r4, #74]	; 0x4a
 8006a2c:	f8a4 3048 	strh.w	r3, [r4, #72]	; 0x48
 8006a30:	8b63      	ldrh	r3, [r4, #26]
 8006a32:	f043 0304 	orr.w	r3, r3, #4
 8006a36:	8363      	strh	r3, [r4, #26]
 8006a38:	bd38      	pop	{r3, r4, r5, pc}
 8006a3a:	bf00      	nop
 8006a3c:	0800bef6 	.word	0x0800bef6
 8006a40:	0800c212 	.word	0x0800c212
 8006a44:	0800af68 	.word	0x0800af68

08006a48 <tcp_rst>:
 8006a48:	e92d 47ff 	stmdb	sp!, {r0, r1, r2, r3, r4, r5, r6, r7, r8, r9, sl, lr}
 8006a4c:	f8dd 8030 	ldr.w	r8, [sp, #48]	; 0x30
 8006a50:	4606      	mov	r6, r0
 8006a52:	460f      	mov	r7, r1
 8006a54:	4614      	mov	r4, r2
 8006a56:	f8bd 9034 	ldrh.w	r9, [sp, #52]	; 0x34
 8006a5a:	461d      	mov	r5, r3
 8006a5c:	f8bd a038 	ldrh.w	sl, [sp, #56]	; 0x38
 8006a60:	b933      	cbnz	r3, 8006a70 <tcp_rst+0x28>
 8006a62:	4b18      	ldr	r3, [pc, #96]	; (8006ac4 <tcp_rst+0x7c>)
 8006a64:	f240 72c4 	movw	r2, #1988	; 0x7c4
 8006a68:	4917      	ldr	r1, [pc, #92]	; (8006ac8 <tcp_rst+0x80>)
 8006a6a:	4818      	ldr	r0, [pc, #96]	; (8006acc <tcp_rst+0x84>)
 8006a6c:	f003 f9fe 	bl	8009e6c <iprintf>
 8006a70:	f1b8 0f00 	cmp.w	r8, #0
 8006a74:	d106      	bne.n	8006a84 <tcp_rst+0x3c>
 8006a76:	4b13      	ldr	r3, [pc, #76]	; (8006ac4 <tcp_rst+0x7c>)
 8006a78:	f240 72c5 	movw	r2, #1989	; 0x7c5
 8006a7c:	4914      	ldr	r1, [pc, #80]	; (8006ad0 <tcp_rst+0x88>)
 8006a7e:	4813      	ldr	r0, [pc, #76]	; (8006acc <tcp_rst+0x84>)
 8006a80:	f003 f9f4 	bl	8009e6c <iprintf>
 8006a84:	4638      	mov	r0, r7
 8006a86:	f7fc fb12 	bl	80030ae <lwip_htonl>
 8006a8a:	2314      	movs	r3, #20
 8006a8c:	f246 0108 	movw	r1, #24584	; 0x6008
 8006a90:	4602      	mov	r2, r0
 8006a92:	f8cd a000 	str.w	sl, [sp]
 8006a96:	4620      	mov	r0, r4
 8006a98:	e9cd 3101 	strd	r3, r1, [sp, #4]
 8006a9c:	464b      	mov	r3, r9
 8006a9e:	2100      	movs	r1, #0
 8006aa0:	f7ff fcda 	bl	8006458 <tcp_output_alloc_header_common.constprop.0>
 8006aa4:	4604      	mov	r4, r0
 8006aa6:	b150      	cbz	r0, 8006abe <tcp_rst+0x76>
 8006aa8:	f7ff fd3e 	bl	8006528 <tcp_output_fill_options.constprop.0>
 8006aac:	4643      	mov	r3, r8
 8006aae:	462a      	mov	r2, r5
 8006ab0:	4621      	mov	r1, r4
 8006ab2:	4630      	mov	r0, r6
 8006ab4:	b004      	add	sp, #16
 8006ab6:	e8bd 47f0 	ldmia.w	sp!, {r4, r5, r6, r7, r8, r9, sl, lr}
 8006aba:	f7ff bd45 	b.w	8006548 <tcp_output_control_segment>
 8006abe:	b004      	add	sp, #16
 8006ac0:	e8bd 87f0 	ldmia.w	sp!, {r4, r5, r6, r7, r8, r9, sl, pc}
 8006ac4:	0800bef6 	.word	0x0800bef6
 8006ac8:	0800c22f 	.word	0x0800c22f
 8006acc:	0800af68 	.word	0x0800af68
 8006ad0:	0800c249 	.word	0x0800c249

08006ad4 <tcp_send_empty_ack>:
 8006ad4:	b538      	push	{r3, r4, r5, lr}
 8006ad6:	4604      	mov	r4, r0
 8006ad8:	b930      	cbnz	r0, 8006ae8 <tcp_send_empty_ack+0x14>
 8006ada:	4b14      	ldr	r3, [pc, #80]	; (8006b2c <tcp_send_empty_ack+0x58>)
 8006adc:	f240 72ea 	movw	r2, #2026	; 0x7ea
 8006ae0:	4913      	ldr	r1, [pc, #76]	; (8006b30 <tcp_send_empty_ack+0x5c>)
 8006ae2:	4814      	ldr	r0, [pc, #80]	; (8006b34 <tcp_send_empty_ack+0x60>)
 8006ae4:	f003 f9c2 	bl	8009e6c <iprintf>
 8006ae8:	6d20      	ldr	r0, [r4, #80]	; 0x50
 8006aea:	f7fc fae0 	bl	80030ae <lwip_htonl>
 8006aee:	2100      	movs	r1, #0
 8006af0:	4602      	mov	r2, r0
 8006af2:	4620      	mov	r0, r4
 8006af4:	f7ff fcf2 	bl	80064dc <tcp_output_alloc_header.constprop.0>
 8006af8:	4605      	mov	r5, r0
 8006afa:	b930      	cbnz	r0, 8006b0a <tcp_send_empty_ack+0x36>
 8006afc:	8b63      	ldrh	r3, [r4, #26]
 8006afe:	f06f 0001 	mvn.w	r0, #1
 8006b02:	f043 0303 	orr.w	r3, r3, #3
 8006b06:	8363      	strh	r3, [r4, #26]
 8006b08:	bd38      	pop	{r3, r4, r5, pc}
 8006b0a:	f7ff fd0d 	bl	8006528 <tcp_output_fill_options.constprop.0>
 8006b0e:	1d23      	adds	r3, r4, #4
 8006b10:	4622      	mov	r2, r4
 8006b12:	4629      	mov	r1, r5
 8006b14:	4620      	mov	r0, r4
 8006b16:	f7ff fd17 	bl	8006548 <tcp_output_control_segment>
 8006b1a:	8b63      	ldrh	r3, [r4, #26]
 8006b1c:	b118      	cbz	r0, 8006b26 <tcp_send_empty_ack+0x52>
 8006b1e:	f043 0303 	orr.w	r3, r3, #3
 8006b22:	8363      	strh	r3, [r4, #26]
 8006b24:	e7f0      	b.n	8006b08 <tcp_send_empty_ack+0x34>
 8006b26:	f023 0303 	bic.w	r3, r3, #3
 8006b2a:	e7fa      	b.n	8006b22 <tcp_send_empty_ack+0x4e>
 8006b2c:	0800bef6 	.word	0x0800bef6
 8006b30:	0800c264 	.word	0x0800c264
 8006b34:	0800af68 	.word	0x0800af68

08006b38 <tcp_output>:
 8006b38:	e92d 4ff0 	stmdb	sp!, {r4, r5, r6, r7, r8, r9, sl, fp, lr}
 8006b3c:	4604      	mov	r4, r0
 8006b3e:	b087      	sub	sp, #28
 8006b40:	b930      	cbnz	r0, 8006b50 <tcp_output+0x18>
 8006b42:	4b8f      	ldr	r3, [pc, #572]	; (8006d80 <tcp_output+0x248>)
 8006b44:	f240 42e1 	movw	r2, #1249	; 0x4e1
 8006b48:	498e      	ldr	r1, [pc, #568]	; (8006d84 <tcp_output+0x24c>)
 8006b4a:	488f      	ldr	r0, [pc, #572]	; (8006d88 <tcp_output+0x250>)
 8006b4c:	f003 f98e 	bl	8009e6c <iprintf>
 8006b50:	7d23      	ldrb	r3, [r4, #20]
 8006b52:	2b01      	cmp	r3, #1
 8006b54:	d106      	bne.n	8006b64 <tcp_output+0x2c>
 8006b56:	4b8a      	ldr	r3, [pc, #552]	; (8006d80 <tcp_output+0x248>)
 8006b58:	f240 42e3 	movw	r2, #1251	; 0x4e3
 8006b5c:	498b      	ldr	r1, [pc, #556]	; (8006d8c <tcp_output+0x254>)
 8006b5e:	488a      	ldr	r0, [pc, #552]	; (8006d88 <tcp_output+0x250>)
 8006b60:	f003 f984 	bl	8009e6c <iprintf>
 8006b64:	4b8a      	ldr	r3, [pc, #552]	; (8006d90 <tcp_output+0x258>)
 8006b66:	681b      	ldr	r3, [r3, #0]
 8006b68:	42a3      	cmp	r3, r4
 8006b6a:	f000 8171 	beq.w	8006e50 <tcp_output+0x318>
 8006b6e:	6ee5      	ldr	r5, [r4, #108]	; 0x6c
 8006b70:	b94d      	cbnz	r5, 8006b86 <tcp_output+0x4e>
 8006b72:	8b63      	ldrh	r3, [r4, #26]
 8006b74:	0798      	lsls	r0, r3, #30
 8006b76:	f140 8167 	bpl.w	8006e48 <tcp_output+0x310>
 8006b7a:	4620      	mov	r0, r4
 8006b7c:	b007      	add	sp, #28
 8006b7e:	e8bd 4ff0 	ldmia.w	sp!, {r4, r5, r6, r7, r8, r9, sl, fp, lr}
 8006b82:	f7ff bfa7 	b.w	8006ad4 <tcp_send_empty_ack>
 8006b86:	7a20      	ldrb	r0, [r4, #8]
 8006b88:	f104 0904 	add.w	r9, r4, #4
 8006b8c:	f8b4 8048 	ldrh.w	r8, [r4, #72]	; 0x48
 8006b90:	f8b4 6060 	ldrh.w	r6, [r4, #96]	; 0x60
 8006b94:	b340      	cbz	r0, 8006be8 <tcp_output+0xb0>
 8006b96:	f7fc fe97 	bl	80038c8 <netif_get_by_index>
 8006b9a:	4607      	mov	r7, r0
 8006b9c:	2800      	cmp	r0, #0
 8006b9e:	f000 8170 	beq.w	8006e82 <tcp_output+0x34a>
 8006ba2:	6823      	ldr	r3, [r4, #0]
 8006ba4:	b90b      	cbnz	r3, 8006baa <tcp_output+0x72>
 8006ba6:	6843      	ldr	r3, [r0, #4]
 8006ba8:	6023      	str	r3, [r4, #0]
 8006baa:	68eb      	ldr	r3, [r5, #12]
 8006bac:	45b0      	cmp	r8, r6
 8006bae:	6858      	ldr	r0, [r3, #4]
 8006bb0:	bf28      	it	cs
 8006bb2:	46b0      	movcs	r8, r6
 8006bb4:	f7fc fa7b 	bl	80030ae <lwip_htonl>
 8006bb8:	892b      	ldrh	r3, [r5, #8]
 8006bba:	6c62      	ldr	r2, [r4, #68]	; 0x44
 8006bbc:	1a9b      	subs	r3, r3, r2
 8006bbe:	4418      	add	r0, r3
 8006bc0:	4540      	cmp	r0, r8
 8006bc2:	d915      	bls.n	8006bf0 <tcp_output+0xb8>
 8006bc4:	f8b4 3060 	ldrh.w	r3, [r4, #96]	; 0x60
 8006bc8:	4543      	cmp	r3, r8
 8006bca:	d1d2      	bne.n	8006b72 <tcp_output+0x3a>
 8006bcc:	6f23      	ldr	r3, [r4, #112]	; 0x70
 8006bce:	2b00      	cmp	r3, #0
 8006bd0:	d1cf      	bne.n	8006b72 <tcp_output+0x3a>
 8006bd2:	f894 3099 	ldrb.w	r3, [r4, #153]	; 0x99
 8006bd6:	2b00      	cmp	r3, #0
 8006bd8:	d1cb      	bne.n	8006b72 <tcp_output+0x3a>
 8006bda:	f44f 7280 	mov.w	r2, #256	; 0x100
 8006bde:	f884 309a 	strb.w	r3, [r4, #154]	; 0x9a
 8006be2:	f8a4 2098 	strh.w	r2, [r4, #152]	; 0x98
 8006be6:	e7c4      	b.n	8006b72 <tcp_output+0x3a>
 8006be8:	4648      	mov	r0, r9
 8006bea:	f002 faf5 	bl	80091d8 <ip4_route>
 8006bee:	e7d4      	b.n	8006b9a <tcp_output+0x62>
 8006bf0:	2300      	movs	r3, #0
 8006bf2:	6f26      	ldr	r6, [r4, #112]	; 0x70
 8006bf4:	f884 3099 	strb.w	r3, [r4, #153]	; 0x99
 8006bf8:	b126      	cbz	r6, 8006c04 <tcp_output+0xcc>
 8006bfa:	4633      	mov	r3, r6
 8006bfc:	6836      	ldr	r6, [r6, #0]
 8006bfe:	2e00      	cmp	r6, #0
 8006c00:	d1fb      	bne.n	8006bfa <tcp_output+0xc2>
 8006c02:	461e      	mov	r6, r3
 8006c04:	f8df a178 	ldr.w	sl, [pc, #376]	; 8006d80 <tcp_output+0x248>
 8006c08:	f8df b17c 	ldr.w	fp, [pc, #380]	; 8006d88 <tcp_output+0x250>
 8006c0c:	e0de      	b.n	8006dcc <tcp_output+0x294>
 8006c0e:	7d23      	ldrb	r3, [r4, #20]
 8006c10:	2b02      	cmp	r3, #2
 8006c12:	d009      	beq.n	8006c28 <tcp_output+0xf0>
 8006c14:	68eb      	ldr	r3, [r5, #12]
 8006c16:	2010      	movs	r0, #16
 8006c18:	899b      	ldrh	r3, [r3, #12]
 8006c1a:	9304      	str	r3, [sp, #16]
 8006c1c:	f7fc fa44 	bl	80030a8 <lwip_htons>
 8006c20:	9b04      	ldr	r3, [sp, #16]
 8006c22:	68ea      	ldr	r2, [r5, #12]
 8006c24:	4318      	orrs	r0, r3
 8006c26:	8190      	strh	r0, [r2, #12]
 8006c28:	4628      	mov	r0, r5
 8006c2a:	f7ff fb8d 	bl	8006348 <tcp_output_segment_busy>
 8006c2e:	2800      	cmp	r0, #0
 8006c30:	d16f      	bne.n	8006d12 <tcp_output+0x1da>
 8006c32:	68eb      	ldr	r3, [r5, #12]
 8006c34:	6a60      	ldr	r0, [r4, #36]	; 0x24
 8006c36:	9304      	str	r3, [sp, #16]
 8006c38:	f7fc fa39 	bl	80030ae <lwip_htonl>
 8006c3c:	9b04      	ldr	r3, [sp, #16]
 8006c3e:	6098      	str	r0, [r3, #8]
 8006c40:	68eb      	ldr	r3, [r5, #12]
 8006c42:	8d60      	ldrh	r0, [r4, #42]	; 0x2a
 8006c44:	9304      	str	r3, [sp, #16]
 8006c46:	f7fc fa2f 	bl	80030a8 <lwip_htons>
 8006c4a:	9b04      	ldr	r3, [sp, #16]
 8006c4c:	8d62      	ldrh	r2, [r4, #42]	; 0x2a
 8006c4e:	81d8      	strh	r0, [r3, #14]
 8006c50:	6a63      	ldr	r3, [r4, #36]	; 0x24
 8006c52:	4413      	add	r3, r2
 8006c54:	62e3      	str	r3, [r4, #44]	; 0x2c
 8006c56:	7aaa      	ldrb	r2, [r5, #10]
 8006c58:	68eb      	ldr	r3, [r5, #12]
 8006c5a:	07d2      	lsls	r2, r2, #31
 8006c5c:	d449      	bmi.n	8006cf2 <tcp_output+0x1ba>
 8006c5e:	f103 0214 	add.w	r2, r3, #20
 8006c62:	f9b4 3030 	ldrsh.w	r3, [r4, #48]	; 0x30
 8006c66:	2b00      	cmp	r3, #0
 8006c68:	bfbc      	itt	lt
 8006c6a:	2300      	movlt	r3, #0
 8006c6c:	8623      	strhlt	r3, [r4, #48]	; 0x30
 8006c6e:	6b63      	ldr	r3, [r4, #52]	; 0x34
 8006c70:	b94b      	cbnz	r3, 8006c86 <tcp_output+0x14e>
 8006c72:	4948      	ldr	r1, [pc, #288]	; (8006d94 <tcp_output+0x25c>)
 8006c74:	68eb      	ldr	r3, [r5, #12]
 8006c76:	6809      	ldr	r1, [r1, #0]
 8006c78:	9204      	str	r2, [sp, #16]
 8006c7a:	6361      	str	r1, [r4, #52]	; 0x34
 8006c7c:	6858      	ldr	r0, [r3, #4]
 8006c7e:	f7fc fa16 	bl	80030ae <lwip_htonl>
 8006c82:	9a04      	ldr	r2, [sp, #16]
 8006c84:	63a0      	str	r0, [r4, #56]	; 0x38
 8006c86:	6869      	ldr	r1, [r5, #4]
 8006c88:	68eb      	ldr	r3, [r5, #12]
 8006c8a:	6848      	ldr	r0, [r1, #4]
 8006c8c:	f8b1 c00a 	ldrh.w	ip, [r1, #10]
 8006c90:	1a18      	subs	r0, r3, r0
 8006c92:	604b      	str	r3, [r1, #4]
 8006c94:	b280      	uxth	r0, r0
 8006c96:	ebac 0c00 	sub.w	ip, ip, r0
 8006c9a:	f8a1 c00a 	strh.w	ip, [r1, #10]
 8006c9e:	f8b1 c008 	ldrh.w	ip, [r1, #8]
 8006ca2:	ebac 0000 	sub.w	r0, ip, r0
 8006ca6:	8108      	strh	r0, [r1, #8]
 8006ca8:	2100      	movs	r1, #0
 8006caa:	7419      	strb	r1, [r3, #16]
 8006cac:	7459      	strb	r1, [r3, #17]
 8006cae:	7aa9      	ldrb	r1, [r5, #10]
 8006cb0:	0089      	lsls	r1, r1, #2
 8006cb2:	f001 0104 	and.w	r1, r1, #4
 8006cb6:	3114      	adds	r1, #20
 8006cb8:	440b      	add	r3, r1
 8006cba:	429a      	cmp	r2, r3
 8006cbc:	d006      	beq.n	8006ccc <tcp_output+0x194>
 8006cbe:	4653      	mov	r3, sl
 8006cc0:	f240 621c 	movw	r2, #1564	; 0x61c
 8006cc4:	4934      	ldr	r1, [pc, #208]	; (8006d98 <tcp_output+0x260>)
 8006cc6:	4658      	mov	r0, fp
 8006cc8:	f003 f8d0 	bl	8009e6c <iprintf>
 8006ccc:	2306      	movs	r3, #6
 8006cce:	9702      	str	r7, [sp, #8]
 8006cd0:	464a      	mov	r2, r9
 8006cd2:	4621      	mov	r1, r4
 8006cd4:	9301      	str	r3, [sp, #4]
 8006cd6:	7aa3      	ldrb	r3, [r4, #10]
 8006cd8:	9300      	str	r3, [sp, #0]
 8006cda:	7ae3      	ldrb	r3, [r4, #11]
 8006cdc:	6868      	ldr	r0, [r5, #4]
 8006cde:	f002 fbe9 	bl	80094b4 <ip4_output_if>
 8006ce2:	b1b0      	cbz	r0, 8006d12 <tcp_output+0x1da>
 8006ce4:	8b63      	ldrh	r3, [r4, #26]
 8006ce6:	f043 0380 	orr.w	r3, r3, #128	; 0x80
 8006cea:	8363      	strh	r3, [r4, #26]
 8006cec:	b007      	add	sp, #28
 8006cee:	e8bd 8ff0 	ldmia.w	sp!, {r4, r5, r6, r7, r8, r9, sl, fp, pc}
 8006cf2:	464a      	mov	r2, r9
 8006cf4:	4639      	mov	r1, r7
 8006cf6:	f44f 7006 	mov.w	r0, #536	; 0x218
 8006cfa:	9304      	str	r3, [sp, #16]
 8006cfc:	f7fd fa4c 	bl	8004198 <tcp_eff_send_mss_netif>
 8006d00:	f040 7001 	orr.w	r0, r0, #33816576	; 0x2040000
 8006d04:	f7fc f9d3 	bl	80030ae <lwip_htonl>
 8006d08:	9b04      	ldr	r3, [sp, #16]
 8006d0a:	f103 0218 	add.w	r2, r3, #24
 8006d0e:	6158      	str	r0, [r3, #20]
 8006d10:	e7a7      	b.n	8006c62 <tcp_output+0x12a>
 8006d12:	682b      	ldr	r3, [r5, #0]
 8006d14:	66e3      	str	r3, [r4, #108]	; 0x6c
 8006d16:	7d23      	ldrb	r3, [r4, #20]
 8006d18:	2b02      	cmp	r3, #2
 8006d1a:	bf1e      	ittt	ne
 8006d1c:	8b63      	ldrhne	r3, [r4, #26]
 8006d1e:	f023 0303 	bicne.w	r3, r3, #3
 8006d22:	8363      	strhne	r3, [r4, #26]
 8006d24:	68eb      	ldr	r3, [r5, #12]
 8006d26:	6858      	ldr	r0, [r3, #4]
 8006d28:	f7fc f9c1 	bl	80030ae <lwip_htonl>
 8006d2c:	8929      	ldrh	r1, [r5, #8]
 8006d2e:	68eb      	ldr	r3, [r5, #12]
 8006d30:	9104      	str	r1, [sp, #16]
 8006d32:	9005      	str	r0, [sp, #20]
 8006d34:	8998      	ldrh	r0, [r3, #12]
 8006d36:	f7fc f9b7 	bl	80030a8 <lwip_htons>
 8006d3a:	f010 0303 	ands.w	r3, r0, #3
 8006d3e:	e9dd 1204 	ldrd	r1, r2, [sp, #16]
 8006d42:	bf18      	it	ne
 8006d44:	2301      	movne	r3, #1
 8006d46:	440a      	add	r2, r1
 8006d48:	4413      	add	r3, r2
 8006d4a:	6d22      	ldr	r2, [r4, #80]	; 0x50
 8006d4c:	1ad2      	subs	r2, r2, r3
 8006d4e:	2a00      	cmp	r2, #0
 8006d50:	68ea      	ldr	r2, [r5, #12]
 8006d52:	bfb8      	it	lt
 8006d54:	6523      	strlt	r3, [r4, #80]	; 0x50
 8006d56:	892b      	ldrh	r3, [r5, #8]
 8006d58:	9304      	str	r3, [sp, #16]
 8006d5a:	8990      	ldrh	r0, [r2, #12]
 8006d5c:	f7fc f9a4 	bl	80030a8 <lwip_htons>
 8006d60:	f010 0003 	ands.w	r0, r0, #3
 8006d64:	9b04      	ldr	r3, [sp, #16]
 8006d66:	bf18      	it	ne
 8006d68:	2001      	movne	r0, #1
 8006d6a:	42d8      	cmn	r0, r3
 8006d6c:	f000 8085 	beq.w	8006e7a <tcp_output+0x342>
 8006d70:	2300      	movs	r3, #0
 8006d72:	602b      	str	r3, [r5, #0]
 8006d74:	6f23      	ldr	r3, [r4, #112]	; 0x70
 8006d76:	b98b      	cbnz	r3, 8006d9c <tcp_output+0x264>
 8006d78:	6725      	str	r5, [r4, #112]	; 0x70
 8006d7a:	462e      	mov	r6, r5
 8006d7c:	e023      	b.n	8006dc6 <tcp_output+0x28e>
 8006d7e:	bf00      	nop
 8006d80:	0800bef6 	.word	0x0800bef6
 8006d84:	0800c284 	.word	0x0800c284
 8006d88:	0800af68 	.word	0x0800af68
 8006d8c:	0800c29c 	.word	0x0800c29c
 8006d90:	20005d3c 	.word	0x20005d3c
 8006d94:	20005d08 	.word	0x20005d08
 8006d98:	0800c2d9 	.word	0x0800c2d9
 8006d9c:	68eb      	ldr	r3, [r5, #12]
 8006d9e:	6858      	ldr	r0, [r3, #4]
 8006da0:	f7fc f985 	bl	80030ae <lwip_htonl>
 8006da4:	68f2      	ldr	r2, [r6, #12]
 8006da6:	9004      	str	r0, [sp, #16]
 8006da8:	6850      	ldr	r0, [r2, #4]
 8006daa:	f7fc f980 	bl	80030ae <lwip_htonl>
 8006dae:	9b04      	ldr	r3, [sp, #16]
 8006db0:	1a18      	subs	r0, r3, r0
 8006db2:	2800      	cmp	r0, #0
 8006db4:	da5f      	bge.n	8006e76 <tcp_output+0x33e>
 8006db6:	f104 0370 	add.w	r3, r4, #112	; 0x70
 8006dba:	681a      	ldr	r2, [r3, #0]
 8006dbc:	2a00      	cmp	r2, #0
 8006dbe:	d149      	bne.n	8006e54 <tcp_output+0x31c>
 8006dc0:	681a      	ldr	r2, [r3, #0]
 8006dc2:	602a      	str	r2, [r5, #0]
 8006dc4:	601d      	str	r5, [r3, #0]
 8006dc6:	6ee5      	ldr	r5, [r4, #108]	; 0x6c
 8006dc8:	2d00      	cmp	r5, #0
 8006dca:	d03a      	beq.n	8006e42 <tcp_output+0x30a>
 8006dcc:	68eb      	ldr	r3, [r5, #12]
 8006dce:	6858      	ldr	r0, [r3, #4]
 8006dd0:	f7fc f96d 	bl	80030ae <lwip_htonl>
 8006dd4:	6c63      	ldr	r3, [r4, #68]	; 0x44
 8006dd6:	1ac0      	subs	r0, r0, r3
 8006dd8:	892b      	ldrh	r3, [r5, #8]
 8006dda:	4418      	add	r0, r3
 8006ddc:	4540      	cmp	r0, r8
 8006dde:	d82e      	bhi.n	8006e3e <tcp_output+0x306>
 8006de0:	68eb      	ldr	r3, [r5, #12]
 8006de2:	8998      	ldrh	r0, [r3, #12]
 8006de4:	f7fc f960 	bl	80030a8 <lwip_htons>
 8006de8:	0741      	lsls	r1, r0, #29
 8006dea:	d506      	bpl.n	8006dfa <tcp_output+0x2c2>
 8006dec:	4653      	mov	r3, sl
 8006dee:	f240 5236 	movw	r2, #1334	; 0x536
 8006df2:	4925      	ldr	r1, [pc, #148]	; (8006e88 <tcp_output+0x350>)
 8006df4:	4658      	mov	r0, fp
 8006df6:	f003 f839 	bl	8009e6c <iprintf>
 8006dfa:	6f23      	ldr	r3, [r4, #112]	; 0x70
 8006dfc:	2b00      	cmp	r3, #0
 8006dfe:	f43f af06 	beq.w	8006c0e <tcp_output+0xd6>
 8006e02:	8b62      	ldrh	r2, [r4, #26]
 8006e04:	f012 0f44 	tst.w	r2, #68	; 0x44
 8006e08:	f47f af01 	bne.w	8006c0e <tcp_output+0xd6>
 8006e0c:	6ee3      	ldr	r3, [r4, #108]	; 0x6c
 8006e0e:	b143      	cbz	r3, 8006e22 <tcp_output+0x2ea>
 8006e10:	6819      	ldr	r1, [r3, #0]
 8006e12:	2900      	cmp	r1, #0
 8006e14:	f47f aefb 	bne.w	8006c0e <tcp_output+0xd6>
 8006e18:	8919      	ldrh	r1, [r3, #8]
 8006e1a:	8e63      	ldrh	r3, [r4, #50]	; 0x32
 8006e1c:	4299      	cmp	r1, r3
 8006e1e:	f4bf aef6 	bcs.w	8006c0e <tcp_output+0xd6>
 8006e22:	f8b4 3064 	ldrh.w	r3, [r4, #100]	; 0x64
 8006e26:	2b00      	cmp	r3, #0
 8006e28:	f43f aef1 	beq.w	8006c0e <tcp_output+0xd6>
 8006e2c:	f8b4 3066 	ldrh.w	r3, [r4, #102]	; 0x66
 8006e30:	2b08      	cmp	r3, #8
 8006e32:	f63f aeec 	bhi.w	8006c0e <tcp_output+0xd6>
 8006e36:	f012 0fa0 	tst.w	r2, #160	; 0xa0
 8006e3a:	f47f aee8 	bne.w	8006c0e <tcp_output+0xd6>
 8006e3e:	6ee3      	ldr	r3, [r4, #108]	; 0x6c
 8006e40:	b913      	cbnz	r3, 8006e48 <tcp_output+0x310>
 8006e42:	2300      	movs	r3, #0
 8006e44:	f8a4 3068 	strh.w	r3, [r4, #104]	; 0x68
 8006e48:	8b63      	ldrh	r3, [r4, #26]
 8006e4a:	f023 0380 	bic.w	r3, r3, #128	; 0x80
 8006e4e:	8363      	strh	r3, [r4, #26]
 8006e50:	2000      	movs	r0, #0
 8006e52:	e74b      	b.n	8006cec <tcp_output+0x1b4>
 8006e54:	68d2      	ldr	r2, [r2, #12]
 8006e56:	9305      	str	r3, [sp, #20]
 8006e58:	6850      	ldr	r0, [r2, #4]
 8006e5a:	f7fc f928 	bl	80030ae <lwip_htonl>
 8006e5e:	68e9      	ldr	r1, [r5, #12]
 8006e60:	9004      	str	r0, [sp, #16]
 8006e62:	6848      	ldr	r0, [r1, #4]
 8006e64:	f7fc f923 	bl	80030ae <lwip_htonl>
 8006e68:	9a04      	ldr	r2, [sp, #16]
 8006e6a:	9b05      	ldr	r3, [sp, #20]
 8006e6c:	1a10      	subs	r0, r2, r0
 8006e6e:	2800      	cmp	r0, #0
 8006e70:	daa6      	bge.n	8006dc0 <tcp_output+0x288>
 8006e72:	681b      	ldr	r3, [r3, #0]
 8006e74:	e7a1      	b.n	8006dba <tcp_output+0x282>
 8006e76:	6035      	str	r5, [r6, #0]
 8006e78:	e77f      	b.n	8006d7a <tcp_output+0x242>
 8006e7a:	4628      	mov	r0, r5
 8006e7c:	f7fd f938 	bl	80040f0 <tcp_seg_free>
 8006e80:	e7a1      	b.n	8006dc6 <tcp_output+0x28e>
 8006e82:	f06f 0003 	mvn.w	r0, #3
 8006e86:	e731      	b.n	8006cec <tcp_output+0x1b4>
 8006e88:	0800c2c2 	.word	0x0800c2c2

08006e8c <tcp_rexmit_rto_commit>:
 8006e8c:	b510      	push	{r4, lr}
 8006e8e:	4604      	mov	r4, r0
 8006e90:	b930      	cbnz	r0, 8006ea0 <tcp_rexmit_rto_commit+0x14>
 8006e92:	4b09      	ldr	r3, [pc, #36]	; (8006eb8 <tcp_rexmit_rto_commit+0x2c>)
 8006e94:	f44f 62d3 	mov.w	r2, #1688	; 0x698
 8006e98:	4908      	ldr	r1, [pc, #32]	; (8006ebc <tcp_rexmit_rto_commit+0x30>)
 8006e9a:	4809      	ldr	r0, [pc, #36]	; (8006ec0 <tcp_rexmit_rto_commit+0x34>)
 8006e9c:	f002 ffe6 	bl	8009e6c <iprintf>
 8006ea0:	f894 3042 	ldrb.w	r3, [r4, #66]	; 0x42
 8006ea4:	4620      	mov	r0, r4
 8006ea6:	2bff      	cmp	r3, #255	; 0xff
 8006ea8:	bf1c      	itt	ne
 8006eaa:	3301      	addne	r3, #1
 8006eac:	f884 3042 	strbne.w	r3, [r4, #66]	; 0x42
 8006eb0:	e8bd 4010 	ldmia.w	sp!, {r4, lr}
 8006eb4:	f7ff be40 	b.w	8006b38 <tcp_output>
 8006eb8:	0800bef6 	.word	0x0800bef6
 8006ebc:	0800c2ec 	.word	0x0800c2ec
 8006ec0:	0800af68 	.word	0x0800af68

08006ec4 <tcp_rexmit_rto>:
 8006ec4:	b510      	push	{r4, lr}
 8006ec6:	4604      	mov	r4, r0
 8006ec8:	b930      	cbnz	r0, 8006ed8 <tcp_rexmit_rto+0x14>
 8006eca:	4b08      	ldr	r3, [pc, #32]	; (8006eec <tcp_rexmit_rto+0x28>)
 8006ecc:	f240 62ad 	movw	r2, #1709	; 0x6ad
 8006ed0:	4907      	ldr	r1, [pc, #28]	; (8006ef0 <tcp_rexmit_rto+0x2c>)
 8006ed2:	4808      	ldr	r0, [pc, #32]	; (8006ef4 <tcp_rexmit_rto+0x30>)
 8006ed4:	f002 ffca 	bl	8009e6c <iprintf>
 8006ed8:	4620      	mov	r0, r4
 8006eda:	f7ff fcfd 	bl	80068d8 <tcp_rexmit_rto_prepare>
 8006ede:	b920      	cbnz	r0, 8006eea <tcp_rexmit_rto+0x26>
 8006ee0:	4620      	mov	r0, r4
 8006ee2:	e8bd 4010 	ldmia.w	sp!, {r4, lr}
 8006ee6:	f7ff bfd1 	b.w	8006e8c <tcp_rexmit_rto_commit>
 8006eea:	bd10      	pop	{r4, pc}
 8006eec:	0800bef6 	.word	0x0800bef6
 8006ef0:	0800c30f 	.word	0x0800c30f
 8006ef4:	0800af68 	.word	0x0800af68

08006ef8 <tcp_keepalive>:
 8006ef8:	b570      	push	{r4, r5, r6, lr}
 8006efa:	4604      	mov	r4, r0
 8006efc:	b930      	cbnz	r0, 8006f0c <tcp_keepalive+0x14>
 8006efe:	4b0f      	ldr	r3, [pc, #60]	; (8006f3c <tcp_keepalive+0x44>)
 8006f00:	f640 0224 	movw	r2, #2084	; 0x824
 8006f04:	490e      	ldr	r1, [pc, #56]	; (8006f40 <tcp_keepalive+0x48>)
 8006f06:	480f      	ldr	r0, [pc, #60]	; (8006f44 <tcp_keepalive+0x4c>)
 8006f08:	f002 ffb0 	bl	8009e6c <iprintf>
 8006f0c:	6d20      	ldr	r0, [r4, #80]	; 0x50
 8006f0e:	3801      	subs	r0, #1
 8006f10:	f7fc f8cd 	bl	80030ae <lwip_htonl>
 8006f14:	2100      	movs	r1, #0
 8006f16:	4602      	mov	r2, r0
 8006f18:	4620      	mov	r0, r4
 8006f1a:	f7ff fadf 	bl	80064dc <tcp_output_alloc_header.constprop.0>
 8006f1e:	4605      	mov	r5, r0
 8006f20:	b148      	cbz	r0, 8006f36 <tcp_keepalive+0x3e>
 8006f22:	f7ff fb01 	bl	8006528 <tcp_output_fill_options.constprop.0>
 8006f26:	1d23      	adds	r3, r4, #4
 8006f28:	4622      	mov	r2, r4
 8006f2a:	4629      	mov	r1, r5
 8006f2c:	4620      	mov	r0, r4
 8006f2e:	e8bd 4070 	ldmia.w	sp!, {r4, r5, r6, lr}
 8006f32:	f7ff bb09 	b.w	8006548 <tcp_output_control_segment>
 8006f36:	f04f 30ff 	mov.w	r0, #4294967295
 8006f3a:	bd70      	pop	{r4, r5, r6, pc}
 8006f3c:	0800bef6 	.word	0x0800bef6
 8006f40:	0800c32b 	.word	0x0800c32b
 8006f44:	0800af68 	.word	0x0800af68

08006f48 <tcp_zero_window_probe>:
 8006f48:	e92d 41f0 	stmdb	sp!, {r4, r5, r6, r7, r8, lr}
 8006f4c:	4606      	mov	r6, r0
 8006f4e:	b930      	cbnz	r0, 8006f5e <tcp_zero_window_probe+0x16>
 8006f50:	4b2c      	ldr	r3, [pc, #176]	; (8007004 <tcp_zero_window_probe+0xbc>)
 8006f52:	f640 024f 	movw	r2, #2127	; 0x84f
 8006f56:	492c      	ldr	r1, [pc, #176]	; (8007008 <tcp_zero_window_probe+0xc0>)
 8006f58:	482c      	ldr	r0, [pc, #176]	; (800700c <tcp_zero_window_probe+0xc4>)
 8006f5a:	f002 ff87 	bl	8009e6c <iprintf>
 8006f5e:	6ef5      	ldr	r5, [r6, #108]	; 0x6c
 8006f60:	2d00      	cmp	r5, #0
 8006f62:	d048      	beq.n	8006ff6 <tcp_zero_window_probe+0xae>
 8006f64:	f896 309a 	ldrb.w	r3, [r6, #154]	; 0x9a
 8006f68:	2bff      	cmp	r3, #255	; 0xff
 8006f6a:	bf1c      	itt	ne
 8006f6c:	3301      	addne	r3, #1
 8006f6e:	f886 309a 	strbne.w	r3, [r6, #154]	; 0x9a
 8006f72:	68eb      	ldr	r3, [r5, #12]
 8006f74:	8998      	ldrh	r0, [r3, #12]
 8006f76:	f7fc f897 	bl	80030a8 <lwip_htons>
 8006f7a:	f010 0401 	ands.w	r4, r0, #1
 8006f7e:	68eb      	ldr	r3, [r5, #12]
 8006f80:	4630      	mov	r0, r6
 8006f82:	bf18      	it	ne
 8006f84:	892c      	ldrhne	r4, [r5, #8]
 8006f86:	685a      	ldr	r2, [r3, #4]
 8006f88:	bf1c      	itt	ne
 8006f8a:	fab4 f484 	clzne	r4, r4
 8006f8e:	0964      	lsrne	r4, r4, #5
 8006f90:	f084 0101 	eor.w	r1, r4, #1
 8006f94:	f7ff faa2 	bl	80064dc <tcp_output_alloc_header.constprop.0>
 8006f98:	4607      	mov	r7, r0
 8006f9a:	b378      	cbz	r0, 8006ffc <tcp_zero_window_probe+0xb4>
 8006f9c:	f8d0 8004 	ldr.w	r8, [r0, #4]
 8006fa0:	b1f4      	cbz	r4, 8006fe0 <tcp_zero_window_probe+0x98>
 8006fa2:	f9b8 400c 	ldrsh.w	r4, [r8, #12]
 8006fa6:	2011      	movs	r0, #17
 8006fa8:	f7fc f87e 	bl	80030a8 <lwip_htons>
 8006fac:	f424 547c 	bic.w	r4, r4, #16128	; 0x3f00
 8006fb0:	4320      	orrs	r0, r4
 8006fb2:	f8a8 000c 	strh.w	r0, [r8, #12]
 8006fb6:	68eb      	ldr	r3, [r5, #12]
 8006fb8:	6858      	ldr	r0, [r3, #4]
 8006fba:	f7fc f878 	bl	80030ae <lwip_htonl>
 8006fbe:	6d33      	ldr	r3, [r6, #80]	; 0x50
 8006fc0:	3001      	adds	r0, #1
 8006fc2:	1a1b      	subs	r3, r3, r0
 8006fc4:	2b00      	cmp	r3, #0
 8006fc6:	bfb8      	it	lt
 8006fc8:	6530      	strlt	r0, [r6, #80]	; 0x50
 8006fca:	4638      	mov	r0, r7
 8006fcc:	f7ff faac 	bl	8006528 <tcp_output_fill_options.constprop.0>
 8006fd0:	1d33      	adds	r3, r6, #4
 8006fd2:	4632      	mov	r2, r6
 8006fd4:	4639      	mov	r1, r7
 8006fd6:	4630      	mov	r0, r6
 8006fd8:	e8bd 41f0 	ldmia.w	sp!, {r4, r5, r6, r7, r8, lr}
 8006fdc:	f7ff bab4 	b.w	8006548 <tcp_output_control_segment>
 8006fe0:	6868      	ldr	r0, [r5, #4]
 8006fe2:	f108 0114 	add.w	r1, r8, #20
 8006fe6:	892a      	ldrh	r2, [r5, #8]
 8006fe8:	8903      	ldrh	r3, [r0, #8]
 8006fea:	1a9b      	subs	r3, r3, r2
 8006fec:	2201      	movs	r2, #1
 8006fee:	b29b      	uxth	r3, r3
 8006ff0:	f7fc ff54 	bl	8003e9c <pbuf_copy_partial>
 8006ff4:	e7df      	b.n	8006fb6 <tcp_zero_window_probe+0x6e>
 8006ff6:	4628      	mov	r0, r5
 8006ff8:	e8bd 81f0 	ldmia.w	sp!, {r4, r5, r6, r7, r8, pc}
 8006ffc:	f04f 30ff 	mov.w	r0, #4294967295
 8007000:	e7fa      	b.n	8006ff8 <tcp_zero_window_probe+0xb0>
 8007002:	bf00      	nop
 8007004:	0800bef6 	.word	0x0800bef6
 8007008:	0800c346 	.word	0x0800c346
 800700c:	0800af68 	.word	0x0800af68

08007010 <sys_timeout_abs>:
 8007010:	b570      	push	{r4, r5, r6, lr}
 8007012:	4604      	mov	r4, r0
 8007014:	2006      	movs	r0, #6
 8007016:	460e      	mov	r6, r1
 8007018:	4615      	mov	r5, r2
 800701a:	f7fc facf 	bl	80035bc <memp_malloc>
 800701e:	b938      	cbnz	r0, 8007030 <sys_timeout_abs+0x20>
 8007020:	4b10      	ldr	r3, [pc, #64]	; (8007064 <sys_timeout_abs+0x54>)
 8007022:	22be      	movs	r2, #190	; 0xbe
 8007024:	4910      	ldr	r1, [pc, #64]	; (8007068 <sys_timeout_abs+0x58>)
 8007026:	4811      	ldr	r0, [pc, #68]	; (800706c <sys_timeout_abs+0x5c>)
 8007028:	e8bd 4070 	ldmia.w	sp!, {r4, r5, r6, lr}
 800702c:	f002 bf1e 	b.w	8009e6c <iprintf>
 8007030:	2300      	movs	r3, #0
 8007032:	4a0f      	ldr	r2, [pc, #60]	; (8007070 <sys_timeout_abs+0x60>)
 8007034:	6044      	str	r4, [r0, #4]
 8007036:	6003      	str	r3, [r0, #0]
 8007038:	6813      	ldr	r3, [r2, #0]
 800703a:	e9c0 6502 	strd	r6, r5, [r0, #8]
 800703e:	b90b      	cbnz	r3, 8007044 <sys_timeout_abs+0x34>
 8007040:	6010      	str	r0, [r2, #0]
 8007042:	bd70      	pop	{r4, r5, r6, pc}
 8007044:	6859      	ldr	r1, [r3, #4]
 8007046:	1a61      	subs	r1, r4, r1
 8007048:	2900      	cmp	r1, #0
 800704a:	da01      	bge.n	8007050 <sys_timeout_abs+0x40>
 800704c:	6003      	str	r3, [r0, #0]
 800704e:	e7f7      	b.n	8007040 <sys_timeout_abs+0x30>
 8007050:	4619      	mov	r1, r3
 8007052:	681b      	ldr	r3, [r3, #0]
 8007054:	b11b      	cbz	r3, 800705e <sys_timeout_abs+0x4e>
 8007056:	685a      	ldr	r2, [r3, #4]
 8007058:	1aa2      	subs	r2, r4, r2
 800705a:	2a00      	cmp	r2, #0
 800705c:	daf8      	bge.n	8007050 <sys_timeout_abs+0x40>
 800705e:	6003      	str	r3, [r0, #0]
 8007060:	6008      	str	r0, [r1, #0]
 8007062:	e7ee      	b.n	8007042 <sys_timeout_abs+0x32>
 8007064:	0800c369 	.word	0x0800c369
 8007068:	0800c39d 	.word	0x0800c39d
 800706c:	0800af68 	.word	0x0800af68
 8007070:	20005d58 	.word	0x20005d58

08007074 <lwip_cyclic_timer>:
 8007074:	b538      	push	{r3, r4, r5, lr}
 8007076:	6843      	ldr	r3, [r0, #4]
 8007078:	4604      	mov	r4, r0
 800707a:	4798      	blx	r3
 800707c:	f7fb ffbc 	bl	8002ff8 <sys_now>
 8007080:	4b07      	ldr	r3, [pc, #28]	; (80070a0 <lwip_cyclic_timer+0x2c>)
 8007082:	6825      	ldr	r5, [r4, #0]
 8007084:	681b      	ldr	r3, [r3, #0]
 8007086:	4907      	ldr	r1, [pc, #28]	; (80070a4 <lwip_cyclic_timer+0x30>)
 8007088:	442b      	add	r3, r5
 800708a:	1a1a      	subs	r2, r3, r0
 800708c:	2a00      	cmp	r2, #0
 800708e:	4622      	mov	r2, r4
 8007090:	bfb4      	ite	lt
 8007092:	1940      	addlt	r0, r0, r5
 8007094:	4618      	movge	r0, r3
 8007096:	e8bd 4038 	ldmia.w	sp!, {r3, r4, r5, lr}
 800709a:	f7ff bfb9 	b.w	8007010 <sys_timeout_abs>
 800709e:	bf00      	nop
 80070a0:	20005d54 	.word	0x20005d54
 80070a4:	08007075 	.word	0x08007075

080070a8 <sys_timeout>:
 80070a8:	f1b0 4f80 	cmp.w	r0, #1073741824	; 0x40000000
 80070ac:	b570      	push	{r4, r5, r6, lr}
 80070ae:	4604      	mov	r4, r0
 80070b0:	460d      	mov	r5, r1
 80070b2:	4616      	mov	r6, r2
 80070b4:	d306      	bcc.n	80070c4 <sys_timeout+0x1c>
 80070b6:	4b08      	ldr	r3, [pc, #32]	; (80070d8 <sys_timeout+0x30>)
 80070b8:	f240 1229 	movw	r2, #297	; 0x129
 80070bc:	4907      	ldr	r1, [pc, #28]	; (80070dc <sys_timeout+0x34>)
 80070be:	4808      	ldr	r0, [pc, #32]	; (80070e0 <sys_timeout+0x38>)
 80070c0:	f002 fed4 	bl	8009e6c <iprintf>
 80070c4:	f7fb ff98 	bl	8002ff8 <sys_now>
 80070c8:	4632      	mov	r2, r6
 80070ca:	4629      	mov	r1, r5
 80070cc:	4420      	add	r0, r4
 80070ce:	e8bd 4070 	ldmia.w	sp!, {r4, r5, r6, lr}
 80070d2:	f7ff bf9d 	b.w	8007010 <sys_timeout_abs>
 80070d6:	bf00      	nop
 80070d8:	0800c369 	.word	0x0800c369
 80070dc:	0800c3da 	.word	0x0800c3da
 80070e0:	0800af68 	.word	0x0800af68

080070e4 <tcp_timer_needed>:
 80070e4:	4b08      	ldr	r3, [pc, #32]	; (8007108 <tcp_timer_needed+0x24>)
 80070e6:	681a      	ldr	r2, [r3, #0]
 80070e8:	b962      	cbnz	r2, 8007104 <tcp_timer_needed+0x20>
 80070ea:	4a08      	ldr	r2, [pc, #32]	; (800710c <tcp_timer_needed+0x28>)
 80070ec:	6812      	ldr	r2, [r2, #0]
 80070ee:	b912      	cbnz	r2, 80070f6 <tcp_timer_needed+0x12>
 80070f0:	4a07      	ldr	r2, [pc, #28]	; (8007110 <tcp_timer_needed+0x2c>)
 80070f2:	6812      	ldr	r2, [r2, #0]
 80070f4:	b132      	cbz	r2, 8007104 <tcp_timer_needed+0x20>
 80070f6:	2201      	movs	r2, #1
 80070f8:	4906      	ldr	r1, [pc, #24]	; (8007114 <tcp_timer_needed+0x30>)
 80070fa:	20fa      	movs	r0, #250	; 0xfa
 80070fc:	601a      	str	r2, [r3, #0]
 80070fe:	2200      	movs	r2, #0
 8007100:	f7ff bfd2 	b.w	80070a8 <sys_timeout>
 8007104:	4770      	bx	lr
 8007106:	bf00      	nop
 8007108:	20005d5c 	.word	0x20005d5c
 800710c:	20005cf8 	.word	0x20005cf8
 8007110:	20005d10 	.word	0x20005d10
 8007114:	08007119 	.word	0x08007119

08007118 <tcpip_tcp_timer>:
 8007118:	b508      	push	{r3, lr}
 800711a:	f7fd fe13 	bl	8004d44 <tcp_tmr>
 800711e:	4b08      	ldr	r3, [pc, #32]	; (8007140 <tcpip_tcp_timer+0x28>)
 8007120:	681b      	ldr	r3, [r3, #0]
 8007122:	b913      	cbnz	r3, 800712a <tcpip_tcp_timer+0x12>
 8007124:	4b07      	ldr	r3, [pc, #28]	; (8007144 <tcpip_tcp_timer+0x2c>)
 8007126:	681b      	ldr	r3, [r3, #0]
 8007128:	b133      	cbz	r3, 8007138 <tcpip_tcp_timer+0x20>
 800712a:	2200      	movs	r2, #0
 800712c:	4906      	ldr	r1, [pc, #24]	; (8007148 <tcpip_tcp_timer+0x30>)
 800712e:	20fa      	movs	r0, #250	; 0xfa
 8007130:	e8bd 4008 	ldmia.w	sp!, {r3, lr}
 8007134:	f7ff bfb8 	b.w	80070a8 <sys_timeout>
 8007138:	4a04      	ldr	r2, [pc, #16]	; (800714c <tcpip_tcp_timer+0x34>)
 800713a:	6013      	str	r3, [r2, #0]
 800713c:	bd08      	pop	{r3, pc}
 800713e:	bf00      	nop
 8007140:	20005cf8 	.word	0x20005cf8
 8007144:	20005d10 	.word	0x20005d10
 8007148:	08007119 	.word	0x08007119
 800714c:	20005d5c 	.word	0x20005d5c

08007150 <sys_timeouts_init>:
 8007150:	b570      	push	{r4, r5, r6, lr}
 8007152:	4d06      	ldr	r5, [pc, #24]	; (800716c <sys_timeouts_init+0x1c>)
 8007154:	2401      	movs	r4, #1
 8007156:	4e06      	ldr	r6, [pc, #24]	; (8007170 <sys_timeouts_init+0x20>)
 8007158:	f855 0f08 	ldr.w	r0, [r5, #8]!
 800715c:	3401      	adds	r4, #1
 800715e:	4631      	mov	r1, r6
 8007160:	462a      	mov	r2, r5
 8007162:	f7ff ffa1 	bl	80070a8 <sys_timeout>
 8007166:	2c05      	cmp	r4, #5
 8007168:	d1f6      	bne.n	8007158 <sys_timeouts_init+0x8>
 800716a:	bd70      	pop	{r4, r5, r6, pc}
 800716c:	0800c410 	.word	0x0800c410
 8007170:	08007075 	.word	0x08007075

08007174 <sys_check_timeouts>:
 8007174:	e92d 43f8 	stmdb	sp!, {r3, r4, r5, r6, r7, r8, r9, lr}
 8007178:	f7fb ff3e 	bl	8002ff8 <sys_now>
 800717c:	f8df 8044 	ldr.w	r8, [pc, #68]	; 80071c4 <sys_check_timeouts+0x50>
 8007180:	4604      	mov	r4, r0
 8007182:	f8df 9044 	ldr.w	r9, [pc, #68]	; 80071c8 <sys_check_timeouts+0x54>
 8007186:	4e0e      	ldr	r6, [pc, #56]	; (80071c0 <sys_check_timeouts+0x4c>)
 8007188:	f898 3000 	ldrb.w	r3, [r8]
 800718c:	b10b      	cbz	r3, 8007192 <sys_check_timeouts+0x1e>
 800718e:	f7fc fbdf 	bl	8003950 <pbuf_free_ooseq>
 8007192:	6831      	ldr	r1, [r6, #0]
 8007194:	b189      	cbz	r1, 80071ba <sys_check_timeouts+0x46>
 8007196:	684b      	ldr	r3, [r1, #4]
 8007198:	1ae2      	subs	r2, r4, r3
 800719a:	2a00      	cmp	r2, #0
 800719c:	db0d      	blt.n	80071ba <sys_check_timeouts+0x46>
 800719e:	680a      	ldr	r2, [r1, #0]
 80071a0:	2006      	movs	r0, #6
 80071a2:	f8c9 3000 	str.w	r3, [r9]
 80071a6:	6032      	str	r2, [r6, #0]
 80071a8:	e9d1 5702 	ldrd	r5, r7, [r1, #8]
 80071ac:	f7fc fa22 	bl	80035f4 <memp_free>
 80071b0:	2d00      	cmp	r5, #0
 80071b2:	d0e9      	beq.n	8007188 <sys_check_timeouts+0x14>
 80071b4:	4638      	mov	r0, r7
 80071b6:	47a8      	blx	r5
 80071b8:	e7e5      	b.n	8007186 <sys_check_timeouts+0x12>
 80071ba:	e8bd 83f8 	ldmia.w	sp!, {r3, r4, r5, r6, r7, r8, r9, pc}
 80071be:	bf00      	nop
 80071c0:	20005d58 	.word	0x20005d58
 80071c4:	20005cf5 	.word	0x20005cf5
 80071c8:	20005d54 	.word	0x20005d54

080071cc <udp_init>:
 80071cc:	b508      	push	{r3, lr}
 80071ce:	f002 fe65 	bl	8009e9c <rand>
 80071d2:	ea6f 4080 	mvn.w	r0, r0, lsl #18
 80071d6:	4b02      	ldr	r3, [pc, #8]	; (80071e0 <udp_init+0x14>)
 80071d8:	ea6f 4090 	mvn.w	r0, r0, lsr #18
 80071dc:	8018      	strh	r0, [r3, #0]
 80071de:	bd08      	pop	{r3, pc}
 80071e0:	20000012 	.word	0x20000012

080071e4 <udp_input>:
 80071e4:	e92d 4ff0 	stmdb	sp!, {r4, r5, r6, r7, r8, r9, sl, fp, lr}
 80071e8:	4688      	mov	r8, r1
 80071ea:	b085      	sub	sp, #20
 80071ec:	4606      	mov	r6, r0
 80071ee:	b928      	cbnz	r0, 80071fc <udp_input+0x18>
 80071f0:	4b5f      	ldr	r3, [pc, #380]	; (8007370 <udp_input+0x18c>)
 80071f2:	22cf      	movs	r2, #207	; 0xcf
 80071f4:	495f      	ldr	r1, [pc, #380]	; (8007374 <udp_input+0x190>)
 80071f6:	4860      	ldr	r0, [pc, #384]	; (8007378 <udp_input+0x194>)
 80071f8:	f002 fe38 	bl	8009e6c <iprintf>
 80071fc:	f1b8 0f00 	cmp.w	r8, #0
 8007200:	d105      	bne.n	800720e <udp_input+0x2a>
 8007202:	4b5b      	ldr	r3, [pc, #364]	; (8007370 <udp_input+0x18c>)
 8007204:	22d0      	movs	r2, #208	; 0xd0
 8007206:	495d      	ldr	r1, [pc, #372]	; (800737c <udp_input+0x198>)
 8007208:	485b      	ldr	r0, [pc, #364]	; (8007378 <udp_input+0x194>)
 800720a:	f002 fe2f 	bl	8009e6c <iprintf>
 800720e:	8973      	ldrh	r3, [r6, #10]
 8007210:	2b07      	cmp	r3, #7
 8007212:	d805      	bhi.n	8007220 <udp_input+0x3c>
 8007214:	4630      	mov	r0, r6
 8007216:	b005      	add	sp, #20
 8007218:	e8bd 4ff0 	ldmia.w	sp!, {r4, r5, r6, r7, r8, r9, sl, fp, lr}
 800721c:	f7fc bc20 	b.w	8003a60 <pbuf_free>
 8007220:	4f57      	ldr	r7, [pc, #348]	; (8007380 <udp_input+0x19c>)
 8007222:	2500      	movs	r5, #0
 8007224:	6874      	ldr	r4, [r6, #4]
 8007226:	6839      	ldr	r1, [r7, #0]
 8007228:	46aa      	mov	sl, r5
 800722a:	6978      	ldr	r0, [r7, #20]
 800722c:	f002 f953 	bl	80094d6 <ip4_addr_isbroadcast_u32>
 8007230:	f8df b15c 	ldr.w	fp, [pc, #348]	; 8007390 <udp_input+0x1ac>
 8007234:	4681      	mov	r9, r0
 8007236:	8820      	ldrh	r0, [r4, #0]
 8007238:	f7fb ff36 	bl	80030a8 <lwip_htons>
 800723c:	9002      	str	r0, [sp, #8]
 800723e:	8860      	ldrh	r0, [r4, #2]
 8007240:	f7fb ff32 	bl	80030a8 <lwip_htons>
 8007244:	f8db 4000 	ldr.w	r4, [fp]
 8007248:	f8df c124 	ldr.w	ip, [pc, #292]	; 8007370 <udp_input+0x18c>
 800724c:	494d      	ldr	r1, [pc, #308]	; (8007384 <udp_input+0x1a0>)
 800724e:	9003      	str	r0, [sp, #12]
 8007250:	b99c      	cbnz	r4, 800727a <udp_input+0x96>
 8007252:	b925      	cbnz	r5, 800725e <udp_input+0x7a>
 8007254:	f8d8 2004 	ldr.w	r2, [r8, #4]
 8007258:	697b      	ldr	r3, [r7, #20]
 800725a:	429a      	cmp	r2, r3
 800725c:	d1da      	bne.n	8007214 <udp_input+0x30>
 800725e:	2108      	movs	r1, #8
 8007260:	4630      	mov	r0, r6
 8007262:	f7fc fbc9 	bl	80039f8 <pbuf_remove_header>
 8007266:	2800      	cmp	r0, #0
 8007268:	d05e      	beq.n	8007328 <udp_input+0x144>
 800726a:	4b41      	ldr	r3, [pc, #260]	; (8007370 <udp_input+0x18c>)
 800726c:	f44f 72b8 	mov.w	r2, #368	; 0x170
 8007270:	4945      	ldr	r1, [pc, #276]	; (8007388 <udp_input+0x1a4>)
 8007272:	4841      	ldr	r0, [pc, #260]	; (8007378 <udp_input+0x194>)
 8007274:	f002 fdfa 	bl	8009e6c <iprintf>
 8007278:	e7cc      	b.n	8007214 <udp_input+0x30>
 800727a:	8a62      	ldrh	r2, [r4, #18]
 800727c:	9803      	ldr	r0, [sp, #12]
 800727e:	4282      	cmp	r2, r0
 8007280:	d14d      	bne.n	800731e <udp_input+0x13a>
 8007282:	f1b8 0f00 	cmp.w	r8, #0
 8007286:	d107      	bne.n	8007298 <udp_input+0xb4>
 8007288:	4663      	mov	r3, ip
 800728a:	2288      	movs	r2, #136	; 0x88
 800728c:	483a      	ldr	r0, [pc, #232]	; (8007378 <udp_input+0x194>)
 800728e:	f002 fded 	bl	8009e6c <iprintf>
 8007292:	f8df c0dc 	ldr.w	ip, [pc, #220]	; 8007370 <udp_input+0x18c>
 8007296:	493b      	ldr	r1, [pc, #236]	; (8007384 <udp_input+0x1a0>)
 8007298:	7a20      	ldrb	r0, [r4, #8]
 800729a:	b130      	cbz	r0, 80072aa <udp_input+0xc6>
 800729c:	687a      	ldr	r2, [r7, #4]
 800729e:	f892 2034 	ldrb.w	r2, [r2, #52]	; 0x34
 80072a2:	3201      	adds	r2, #1
 80072a4:	b2d2      	uxtb	r2, r2
 80072a6:	4290      	cmp	r0, r2
 80072a8:	d139      	bne.n	800731e <udp_input+0x13a>
 80072aa:	6822      	ldr	r2, [r4, #0]
 80072ac:	f1b9 0f00 	cmp.w	r9, #0
 80072b0:	d030      	beq.n	8007314 <udp_input+0x130>
 80072b2:	b13a      	cbz	r2, 80072c4 <udp_input+0xe0>
 80072b4:	6978      	ldr	r0, [r7, #20]
 80072b6:	1c43      	adds	r3, r0, #1
 80072b8:	d004      	beq.n	80072c4 <udp_input+0xe0>
 80072ba:	4050      	eors	r0, r2
 80072bc:	f8d8 3008 	ldr.w	r3, [r8, #8]
 80072c0:	4218      	tst	r0, r3
 80072c2:	d12c      	bne.n	800731e <udp_input+0x13a>
 80072c4:	7c20      	ldrb	r0, [r4, #16]
 80072c6:	0743      	lsls	r3, r0, #29
 80072c8:	d40e      	bmi.n	80072e8 <udp_input+0x104>
 80072ca:	b35d      	cbz	r5, 8007324 <udp_input+0x140>
 80072cc:	f1b9 0f00 	cmp.w	r9, #0
 80072d0:	d00a      	beq.n	80072e8 <udp_input+0x104>
 80072d2:	6978      	ldr	r0, [r7, #20]
 80072d4:	3001      	adds	r0, #1
 80072d6:	d107      	bne.n	80072e8 <udp_input+0x104>
 80072d8:	f8d8 0004 	ldr.w	r0, [r8, #4]
 80072dc:	682b      	ldr	r3, [r5, #0]
 80072de:	4283      	cmp	r3, r0
 80072e0:	d002      	beq.n	80072e8 <udp_input+0x104>
 80072e2:	4290      	cmp	r0, r2
 80072e4:	bf08      	it	eq
 80072e6:	4625      	moveq	r5, r4
 80072e8:	8aa2      	ldrh	r2, [r4, #20]
 80072ea:	9b02      	ldr	r3, [sp, #8]
 80072ec:	429a      	cmp	r2, r3
 80072ee:	d116      	bne.n	800731e <udp_input+0x13a>
 80072f0:	6862      	ldr	r2, [r4, #4]
 80072f2:	b112      	cbz	r2, 80072fa <udp_input+0x116>
 80072f4:	6938      	ldr	r0, [r7, #16]
 80072f6:	4282      	cmp	r2, r0
 80072f8:	d111      	bne.n	800731e <udp_input+0x13a>
 80072fa:	f1ba 0f00 	cmp.w	sl, #0
 80072fe:	d007      	beq.n	8007310 <udp_input+0x12c>
 8007300:	68e3      	ldr	r3, [r4, #12]
 8007302:	f8ca 300c 	str.w	r3, [sl, #12]
 8007306:	f8db 3000 	ldr.w	r3, [fp]
 800730a:	f8cb 4000 	str.w	r4, [fp]
 800730e:	60e3      	str	r3, [r4, #12]
 8007310:	4625      	mov	r5, r4
 8007312:	e7a4      	b.n	800725e <udp_input+0x7a>
 8007314:	2a00      	cmp	r2, #0
 8007316:	d0d5      	beq.n	80072c4 <udp_input+0xe0>
 8007318:	6978      	ldr	r0, [r7, #20]
 800731a:	4290      	cmp	r0, r2
 800731c:	d0d2      	beq.n	80072c4 <udp_input+0xe0>
 800731e:	46a2      	mov	sl, r4
 8007320:	68e4      	ldr	r4, [r4, #12]
 8007322:	e795      	b.n	8007250 <udp_input+0x6c>
 8007324:	4625      	mov	r5, r4
 8007326:	e7df      	b.n	80072e8 <udp_input+0x104>
 8007328:	b16d      	cbz	r5, 8007346 <udp_input+0x162>
 800732a:	69ac      	ldr	r4, [r5, #24]
 800732c:	2c00      	cmp	r4, #0
 800732e:	f43f af71 	beq.w	8007214 <udp_input+0x30>
 8007332:	9b02      	ldr	r3, [sp, #8]
 8007334:	4632      	mov	r2, r6
 8007336:	4629      	mov	r1, r5
 8007338:	9300      	str	r3, [sp, #0]
 800733a:	4b14      	ldr	r3, [pc, #80]	; (800738c <udp_input+0x1a8>)
 800733c:	69e8      	ldr	r0, [r5, #28]
 800733e:	47a0      	blx	r4
 8007340:	b005      	add	sp, #20
 8007342:	e8bd 8ff0 	ldmia.w	sp!, {r4, r5, r6, r7, r8, r9, sl, fp, pc}
 8007346:	f1b9 0f00 	cmp.w	r9, #0
 800734a:	f47f af63 	bne.w	8007214 <udp_input+0x30>
 800734e:	697b      	ldr	r3, [r7, #20]
 8007350:	f003 03f0 	and.w	r3, r3, #240	; 0xf0
 8007354:	2be0      	cmp	r3, #224	; 0xe0
 8007356:	f43f af5d 	beq.w	8007214 <udp_input+0x30>
 800735a:	89b9      	ldrh	r1, [r7, #12]
 800735c:	4630      	mov	r0, r6
 800735e:	3108      	adds	r1, #8
 8007360:	b209      	sxth	r1, r1
 8007362:	f7fc fb75 	bl	8003a50 <pbuf_header_force>
 8007366:	2103      	movs	r1, #3
 8007368:	4630      	mov	r0, r6
 800736a:	f001 ff13 	bl	8009194 <icmp_dest_unreach>
 800736e:	e751      	b.n	8007214 <udp_input+0x30>
 8007370:	0800c438 	.word	0x0800c438
 8007374:	0800c467 	.word	0x0800c467
 8007378:	0800af68 	.word	0x0800af68
 800737c:	0800c47f 	.word	0x0800c47f
 8007380:	200005b0 	.word	0x200005b0
 8007384:	0800c498 	.word	0x0800c498
 8007388:	0800c4bd 	.word	0x0800c4bd
 800738c:	200005c0 	.word	0x200005c0
 8007390:	20005d60 	.word	0x20005d60

08007394 <udp_bind>:
 8007394:	e92d 41f0 	stmdb	sp!, {r4, r5, r6, r7, r8, lr}
 8007398:	4c2b      	ldr	r4, [pc, #172]	; (8007448 <udp_bind+0xb4>)
 800739a:	2900      	cmp	r1, #0
 800739c:	bf18      	it	ne
 800739e:	460c      	movne	r4, r1
 80073a0:	b950      	cbnz	r0, 80073b8 <udp_bind+0x24>
 80073a2:	4b2a      	ldr	r3, [pc, #168]	; (800744c <udp_bind+0xb8>)
 80073a4:	f240 32b7 	movw	r2, #951	; 0x3b7
 80073a8:	4929      	ldr	r1, [pc, #164]	; (8007450 <udp_bind+0xbc>)
 80073aa:	482a      	ldr	r0, [pc, #168]	; (8007454 <udp_bind+0xc0>)
 80073ac:	f002 fd5e 	bl	8009e6c <iprintf>
 80073b0:	f06f 000f 	mvn.w	r0, #15
 80073b4:	e8bd 81f0 	ldmia.w	sp!, {r4, r5, r6, r7, r8, pc}
 80073b8:	f8df c0a0 	ldr.w	ip, [pc, #160]	; 800745c <udp_bind+0xc8>
 80073bc:	f8dc 5000 	ldr.w	r5, [ip]
 80073c0:	4629      	mov	r1, r5
 80073c2:	b9c9      	cbnz	r1, 80073f8 <udp_bind+0x64>
 80073c4:	2a00      	cmp	r2, #0
 80073c6:	d13c      	bne.n	8007442 <udp_bind+0xae>
 80073c8:	4f23      	ldr	r7, [pc, #140]	; (8007458 <udp_bind+0xc4>)
 80073ca:	f44f 4380 	mov.w	r3, #16384	; 0x4000
 80073ce:	f64f 7eff 	movw	lr, #65535	; 0xffff
 80073d2:	883a      	ldrh	r2, [r7, #0]
 80073d4:	4572      	cmp	r2, lr
 80073d6:	462e      	mov	r6, r5
 80073d8:	bf16      	itet	ne
 80073da:	3201      	addne	r2, #1
 80073dc:	f44f 4240 	moveq.w	r2, #49152	; 0xc000
 80073e0:	b292      	uxthne	r2, r2
 80073e2:	b97e      	cbnz	r6, 8007404 <udp_bind+0x70>
 80073e4:	803a      	strh	r2, [r7, #0]
 80073e6:	6823      	ldr	r3, [r4, #0]
 80073e8:	8242      	strh	r2, [r0, #18]
 80073ea:	6003      	str	r3, [r0, #0]
 80073ec:	b911      	cbnz	r1, 80073f4 <udp_bind+0x60>
 80073ee:	60c5      	str	r5, [r0, #12]
 80073f0:	f8cc 0000 	str.w	r0, [ip]
 80073f4:	2000      	movs	r0, #0
 80073f6:	e7dd      	b.n	80073b4 <udp_bind+0x20>
 80073f8:	4281      	cmp	r1, r0
 80073fa:	d001      	beq.n	8007400 <udp_bind+0x6c>
 80073fc:	68c9      	ldr	r1, [r1, #12]
 80073fe:	e7e0      	b.n	80073c2 <udp_bind+0x2e>
 8007400:	2101      	movs	r1, #1
 8007402:	e7df      	b.n	80073c4 <udp_bind+0x30>
 8007404:	f8b6 8012 	ldrh.w	r8, [r6, #18]
 8007408:	4590      	cmp	r8, r2
 800740a:	d107      	bne.n	800741c <udp_bind+0x88>
 800740c:	3b01      	subs	r3, #1
 800740e:	b29b      	uxth	r3, r3
 8007410:	2b00      	cmp	r3, #0
 8007412:	d1df      	bne.n	80073d4 <udp_bind+0x40>
 8007414:	803a      	strh	r2, [r7, #0]
 8007416:	f06f 0007 	mvn.w	r0, #7
 800741a:	e7cb      	b.n	80073b4 <udp_bind+0x20>
 800741c:	68f6      	ldr	r6, [r6, #12]
 800741e:	e7e0      	b.n	80073e2 <udp_bind+0x4e>
 8007420:	4283      	cmp	r3, r0
 8007422:	d00a      	beq.n	800743a <udp_bind+0xa6>
 8007424:	8a5e      	ldrh	r6, [r3, #18]
 8007426:	4296      	cmp	r6, r2
 8007428:	d107      	bne.n	800743a <udp_bind+0xa6>
 800742a:	6827      	ldr	r7, [r4, #0]
 800742c:	681e      	ldr	r6, [r3, #0]
 800742e:	42be      	cmp	r6, r7
 8007430:	d0f1      	beq.n	8007416 <udp_bind+0x82>
 8007432:	2f00      	cmp	r7, #0
 8007434:	d0ef      	beq.n	8007416 <udp_bind+0x82>
 8007436:	2e00      	cmp	r6, #0
 8007438:	d0ed      	beq.n	8007416 <udp_bind+0x82>
 800743a:	68db      	ldr	r3, [r3, #12]
 800743c:	2b00      	cmp	r3, #0
 800743e:	d1ef      	bne.n	8007420 <udp_bind+0x8c>
 8007440:	e7d1      	b.n	80073e6 <udp_bind+0x52>
 8007442:	462b      	mov	r3, r5
 8007444:	e7fa      	b.n	800743c <udp_bind+0xa8>
 8007446:	bf00      	nop
 8007448:	0800cc58 	.word	0x0800cc58
 800744c:	0800c438 	.word	0x0800c438
 8007450:	0800c4d8 	.word	0x0800c4d8
 8007454:	0800af68 	.word	0x0800af68
 8007458:	20000012 	.word	0x20000012
 800745c:	20005d60 	.word	0x20005d60

08007460 <udp_sendto_if_src>:
 8007460:	e92d 4ff0 	stmdb	sp!, {r4, r5, r6, r7, r8, r9, sl, fp, lr}
 8007464:	b085      	sub	sp, #20
 8007466:	460e      	mov	r6, r1
 8007468:	4690      	mov	r8, r2
 800746a:	4699      	mov	r9, r3
 800746c:	4607      	mov	r7, r0
 800746e:	e9dd ba0e 	ldrd	fp, sl, [sp, #56]	; 0x38
 8007472:	b960      	cbnz	r0, 800748e <udp_sendto_if_src+0x2e>
 8007474:	4b3e      	ldr	r3, [pc, #248]	; (8007570 <udp_sendto_if_src+0x110>)
 8007476:	f240 22d1 	movw	r2, #721	; 0x2d1
 800747a:	493e      	ldr	r1, [pc, #248]	; (8007574 <udp_sendto_if_src+0x114>)
 800747c:	f06f 040f 	mvn.w	r4, #15
 8007480:	483d      	ldr	r0, [pc, #244]	; (8007578 <udp_sendto_if_src+0x118>)
 8007482:	f002 fcf3 	bl	8009e6c <iprintf>
 8007486:	4620      	mov	r0, r4
 8007488:	b005      	add	sp, #20
 800748a:	e8bd 8ff0 	ldmia.w	sp!, {r4, r5, r6, r7, r8, r9, sl, fp, pc}
 800748e:	b921      	cbnz	r1, 800749a <udp_sendto_if_src+0x3a>
 8007490:	4b37      	ldr	r3, [pc, #220]	; (8007570 <udp_sendto_if_src+0x110>)
 8007492:	f240 22d2 	movw	r2, #722	; 0x2d2
 8007496:	4939      	ldr	r1, [pc, #228]	; (800757c <udp_sendto_if_src+0x11c>)
 8007498:	e7f0      	b.n	800747c <udp_sendto_if_src+0x1c>
 800749a:	b922      	cbnz	r2, 80074a6 <udp_sendto_if_src+0x46>
 800749c:	4b34      	ldr	r3, [pc, #208]	; (8007570 <udp_sendto_if_src+0x110>)
 800749e:	f240 22d3 	movw	r2, #723	; 0x2d3
 80074a2:	4937      	ldr	r1, [pc, #220]	; (8007580 <udp_sendto_if_src+0x120>)
 80074a4:	e7ea      	b.n	800747c <udp_sendto_if_src+0x1c>
 80074a6:	f1ba 0f00 	cmp.w	sl, #0
 80074aa:	d104      	bne.n	80074b6 <udp_sendto_if_src+0x56>
 80074ac:	4b30      	ldr	r3, [pc, #192]	; (8007570 <udp_sendto_if_src+0x110>)
 80074ae:	f44f 7235 	mov.w	r2, #724	; 0x2d4
 80074b2:	4934      	ldr	r1, [pc, #208]	; (8007584 <udp_sendto_if_src+0x124>)
 80074b4:	e7e2      	b.n	800747c <udp_sendto_if_src+0x1c>
 80074b6:	f1bb 0f00 	cmp.w	fp, #0
 80074ba:	d104      	bne.n	80074c6 <udp_sendto_if_src+0x66>
 80074bc:	4b2c      	ldr	r3, [pc, #176]	; (8007570 <udp_sendto_if_src+0x110>)
 80074be:	f240 22d5 	movw	r2, #725	; 0x2d5
 80074c2:	4931      	ldr	r1, [pc, #196]	; (8007588 <udp_sendto_if_src+0x128>)
 80074c4:	e7da      	b.n	800747c <udp_sendto_if_src+0x1c>
 80074c6:	8a42      	ldrh	r2, [r0, #18]
 80074c8:	b13a      	cbz	r2, 80074da <udp_sendto_if_src+0x7a>
 80074ca:	8932      	ldrh	r2, [r6, #8]
 80074cc:	f64f 73f7 	movw	r3, #65527	; 0xfff7
 80074d0:	429a      	cmp	r2, r3
 80074d2:	d909      	bls.n	80074e8 <udp_sendto_if_src+0x88>
 80074d4:	f04f 34ff 	mov.w	r4, #4294967295
 80074d8:	e7d5      	b.n	8007486 <udp_sendto_if_src+0x26>
 80074da:	4601      	mov	r1, r0
 80074dc:	f7ff ff5a 	bl	8007394 <udp_bind>
 80074e0:	4604      	mov	r4, r0
 80074e2:	2800      	cmp	r0, #0
 80074e4:	d0f1      	beq.n	80074ca <udp_sendto_if_src+0x6a>
 80074e6:	e7ce      	b.n	8007486 <udp_sendto_if_src+0x26>
 80074e8:	2108      	movs	r1, #8
 80074ea:	4630      	mov	r0, r6
 80074ec:	f7fc fa80 	bl	80039f0 <pbuf_add_header>
 80074f0:	2800      	cmp	r0, #0
 80074f2:	d03a      	beq.n	800756a <udp_sendto_if_src+0x10a>
 80074f4:	f44f 7220 	mov.w	r2, #640	; 0x280
 80074f8:	2108      	movs	r1, #8
 80074fa:	2022      	movs	r0, #34	; 0x22
 80074fc:	f7fc fb14 	bl	8003b28 <pbuf_alloc>
 8007500:	4605      	mov	r5, r0
 8007502:	2800      	cmp	r0, #0
 8007504:	d0e6      	beq.n	80074d4 <udp_sendto_if_src+0x74>
 8007506:	8933      	ldrh	r3, [r6, #8]
 8007508:	b113      	cbz	r3, 8007510 <udp_sendto_if_src+0xb0>
 800750a:	4631      	mov	r1, r6
 800750c:	f7fc fc3a 	bl	8003d84 <pbuf_chain>
 8007510:	896b      	ldrh	r3, [r5, #10]
 8007512:	2b07      	cmp	r3, #7
 8007514:	d806      	bhi.n	8007524 <udp_sendto_if_src+0xc4>
 8007516:	4b16      	ldr	r3, [pc, #88]	; (8007570 <udp_sendto_if_src+0x110>)
 8007518:	f240 320d 	movw	r2, #781	; 0x30d
 800751c:	491b      	ldr	r1, [pc, #108]	; (800758c <udp_sendto_if_src+0x12c>)
 800751e:	4816      	ldr	r0, [pc, #88]	; (8007578 <udp_sendto_if_src+0x118>)
 8007520:	f002 fca4 	bl	8009e6c <iprintf>
 8007524:	686c      	ldr	r4, [r5, #4]
 8007526:	8a78      	ldrh	r0, [r7, #18]
 8007528:	f7fb fdbe 	bl	80030a8 <lwip_htons>
 800752c:	8020      	strh	r0, [r4, #0]
 800752e:	4648      	mov	r0, r9
 8007530:	f7fb fdba 	bl	80030a8 <lwip_htons>
 8007534:	2300      	movs	r3, #0
 8007536:	8060      	strh	r0, [r4, #2]
 8007538:	71a3      	strb	r3, [r4, #6]
 800753a:	71e3      	strb	r3, [r4, #7]
 800753c:	8928      	ldrh	r0, [r5, #8]
 800753e:	f7fb fdb3 	bl	80030a8 <lwip_htons>
 8007542:	2311      	movs	r3, #17
 8007544:	80a0      	strh	r0, [r4, #4]
 8007546:	4642      	mov	r2, r8
 8007548:	f8cd b008 	str.w	fp, [sp, #8]
 800754c:	4651      	mov	r1, sl
 800754e:	9301      	str	r3, [sp, #4]
 8007550:	4628      	mov	r0, r5
 8007552:	7abb      	ldrb	r3, [r7, #10]
 8007554:	9300      	str	r3, [sp, #0]
 8007556:	7afb      	ldrb	r3, [r7, #11]
 8007558:	f001 ff30 	bl	80093bc <ip4_output_if_src>
 800755c:	42b5      	cmp	r5, r6
 800755e:	4604      	mov	r4, r0
 8007560:	d091      	beq.n	8007486 <udp_sendto_if_src+0x26>
 8007562:	4628      	mov	r0, r5
 8007564:	f7fc fa7c 	bl	8003a60 <pbuf_free>
 8007568:	e78d      	b.n	8007486 <udp_sendto_if_src+0x26>
 800756a:	4635      	mov	r5, r6
 800756c:	e7d0      	b.n	8007510 <udp_sendto_if_src+0xb0>
 800756e:	bf00      	nop
 8007570:	0800c438 	.word	0x0800c438
 8007574:	0800c4ee 	.word	0x0800c4ee
 8007578:	0800af68 	.word	0x0800af68
 800757c:	0800c50d 	.word	0x0800c50d
 8007580:	0800c52d 	.word	0x0800c52d
 8007584:	0800c54f 	.word	0x0800c54f
 8007588:	0800c571 	.word	0x0800c571
 800758c:	0800c592 	.word	0x0800c592

08007590 <udp_sendto_if>:
 8007590:	b573      	push	{r0, r1, r4, r5, r6, lr}
 8007592:	9c06      	ldr	r4, [sp, #24]
 8007594:	b950      	cbnz	r0, 80075ac <udp_sendto_if+0x1c>
 8007596:	4b18      	ldr	r3, [pc, #96]	; (80075f8 <udp_sendto_if+0x68>)
 8007598:	f44f 7220 	mov.w	r2, #640	; 0x280
 800759c:	4917      	ldr	r1, [pc, #92]	; (80075fc <udp_sendto_if+0x6c>)
 800759e:	4818      	ldr	r0, [pc, #96]	; (8007600 <udp_sendto_if+0x70>)
 80075a0:	f002 fc64 	bl	8009e6c <iprintf>
 80075a4:	f06f 000f 	mvn.w	r0, #15
 80075a8:	b002      	add	sp, #8
 80075aa:	bd70      	pop	{r4, r5, r6, pc}
 80075ac:	b921      	cbnz	r1, 80075b8 <udp_sendto_if+0x28>
 80075ae:	4b12      	ldr	r3, [pc, #72]	; (80075f8 <udp_sendto_if+0x68>)
 80075b0:	f240 2281 	movw	r2, #641	; 0x281
 80075b4:	4913      	ldr	r1, [pc, #76]	; (8007604 <udp_sendto_if+0x74>)
 80075b6:	e7f2      	b.n	800759e <udp_sendto_if+0xe>
 80075b8:	b922      	cbnz	r2, 80075c4 <udp_sendto_if+0x34>
 80075ba:	4b0f      	ldr	r3, [pc, #60]	; (80075f8 <udp_sendto_if+0x68>)
 80075bc:	f240 2282 	movw	r2, #642	; 0x282
 80075c0:	4911      	ldr	r1, [pc, #68]	; (8007608 <udp_sendto_if+0x78>)
 80075c2:	e7ec      	b.n	800759e <udp_sendto_if+0xe>
 80075c4:	b924      	cbnz	r4, 80075d0 <udp_sendto_if+0x40>
 80075c6:	4b0c      	ldr	r3, [pc, #48]	; (80075f8 <udp_sendto_if+0x68>)
 80075c8:	f240 2283 	movw	r2, #643	; 0x283
 80075cc:	490f      	ldr	r1, [pc, #60]	; (800760c <udp_sendto_if+0x7c>)
 80075ce:	e7e6      	b.n	800759e <udp_sendto_if+0xe>
 80075d0:	6805      	ldr	r5, [r0, #0]
 80075d2:	b11d      	cbz	r5, 80075dc <udp_sendto_if+0x4c>
 80075d4:	f005 06f0 	and.w	r6, r5, #240	; 0xf0
 80075d8:	2ee0      	cmp	r6, #224	; 0xe0
 80075da:	d105      	bne.n	80075e8 <udp_sendto_if+0x58>
 80075dc:	1d25      	adds	r5, r4, #4
 80075de:	e9cd 4500 	strd	r4, r5, [sp]
 80075e2:	f7ff ff3d 	bl	8007460 <udp_sendto_if_src>
 80075e6:	e7df      	b.n	80075a8 <udp_sendto_if+0x18>
 80075e8:	6866      	ldr	r6, [r4, #4]
 80075ea:	42b5      	cmp	r5, r6
 80075ec:	d101      	bne.n	80075f2 <udp_sendto_if+0x62>
 80075ee:	4605      	mov	r5, r0
 80075f0:	e7f5      	b.n	80075de <udp_sendto_if+0x4e>
 80075f2:	f06f 0003 	mvn.w	r0, #3
 80075f6:	e7d7      	b.n	80075a8 <udp_sendto_if+0x18>
 80075f8:	0800c438 	.word	0x0800c438
 80075fc:	0800c5c0 	.word	0x0800c5c0
 8007600:	0800af68 	.word	0x0800af68
 8007604:	0800c5db 	.word	0x0800c5db
 8007608:	0800c5f7 	.word	0x0800c5f7
 800760c:	0800c615 	.word	0x0800c615

08007610 <udp_connect>:
 8007610:	b570      	push	{r4, r5, r6, lr}
 8007612:	460d      	mov	r5, r1
 8007614:	4616      	mov	r6, r2
 8007616:	4604      	mov	r4, r0
 8007618:	b948      	cbnz	r0, 800762e <udp_connect+0x1e>
 800761a:	4b16      	ldr	r3, [pc, #88]	; (8007674 <udp_connect+0x64>)
 800761c:	f240 4235 	movw	r2, #1077	; 0x435
 8007620:	4915      	ldr	r1, [pc, #84]	; (8007678 <udp_connect+0x68>)
 8007622:	4816      	ldr	r0, [pc, #88]	; (800767c <udp_connect+0x6c>)
 8007624:	f002 fc22 	bl	8009e6c <iprintf>
 8007628:	f06f 000f 	mvn.w	r0, #15
 800762c:	bd70      	pop	{r4, r5, r6, pc}
 800762e:	b921      	cbnz	r1, 800763a <udp_connect+0x2a>
 8007630:	4b10      	ldr	r3, [pc, #64]	; (8007674 <udp_connect+0x64>)
 8007632:	f240 4236 	movw	r2, #1078	; 0x436
 8007636:	4912      	ldr	r1, [pc, #72]	; (8007680 <udp_connect+0x70>)
 8007638:	e7f3      	b.n	8007622 <udp_connect+0x12>
 800763a:	8a42      	ldrh	r2, [r0, #18]
 800763c:	b16a      	cbz	r2, 800765a <udp_connect+0x4a>
 800763e:	682b      	ldr	r3, [r5, #0]
 8007640:	82a6      	strh	r6, [r4, #20]
 8007642:	6063      	str	r3, [r4, #4]
 8007644:	7c23      	ldrb	r3, [r4, #16]
 8007646:	f043 0304 	orr.w	r3, r3, #4
 800764a:	7423      	strb	r3, [r4, #16]
 800764c:	4b0d      	ldr	r3, [pc, #52]	; (8007684 <udp_connect+0x74>)
 800764e:	681a      	ldr	r2, [r3, #0]
 8007650:	4610      	mov	r0, r2
 8007652:	b940      	cbnz	r0, 8007666 <udp_connect+0x56>
 8007654:	60e2      	str	r2, [r4, #12]
 8007656:	601c      	str	r4, [r3, #0]
 8007658:	e7e8      	b.n	800762c <udp_connect+0x1c>
 800765a:	4601      	mov	r1, r0
 800765c:	f7ff fe9a 	bl	8007394 <udp_bind>
 8007660:	2800      	cmp	r0, #0
 8007662:	d0ec      	beq.n	800763e <udp_connect+0x2e>
 8007664:	e7e2      	b.n	800762c <udp_connect+0x1c>
 8007666:	42a0      	cmp	r0, r4
 8007668:	d001      	beq.n	800766e <udp_connect+0x5e>
 800766a:	68c0      	ldr	r0, [r0, #12]
 800766c:	e7f1      	b.n	8007652 <udp_connect+0x42>
 800766e:	2000      	movs	r0, #0
 8007670:	e7dc      	b.n	800762c <udp_connect+0x1c>
 8007672:	bf00      	nop
 8007674:	0800c438 	.word	0x0800c438
 8007678:	0800c632 	.word	0x0800c632
 800767c:	0800af68 	.word	0x0800af68
 8007680:	0800c64b 	.word	0x0800c64b
 8007684:	20005d60 	.word	0x20005d60

08007688 <udp_recv>:
 8007688:	b930      	cbnz	r0, 8007698 <udp_recv+0x10>
 800768a:	4b05      	ldr	r3, [pc, #20]	; (80076a0 <udp_recv+0x18>)
 800768c:	f240 428a 	movw	r2, #1162	; 0x48a
 8007690:	4904      	ldr	r1, [pc, #16]	; (80076a4 <udp_recv+0x1c>)
 8007692:	4805      	ldr	r0, [pc, #20]	; (80076a8 <udp_recv+0x20>)
 8007694:	f002 bbea 	b.w	8009e6c <iprintf>
 8007698:	e9c0 1206 	strd	r1, r2, [r0, #24]
 800769c:	4770      	bx	lr
 800769e:	bf00      	nop
 80076a0:	0800c438 	.word	0x0800c438
 80076a4:	0800c667 	.word	0x0800c667
 80076a8:	0800af68 	.word	0x0800af68

080076ac <udp_remove>:
 80076ac:	4601      	mov	r1, r0
 80076ae:	b930      	cbnz	r0, 80076be <udp_remove+0x12>
 80076b0:	4b0d      	ldr	r3, [pc, #52]	; (80076e8 <udp_remove+0x3c>)
 80076b2:	f240 42a1 	movw	r2, #1185	; 0x4a1
 80076b6:	490d      	ldr	r1, [pc, #52]	; (80076ec <udp_remove+0x40>)
 80076b8:	480d      	ldr	r0, [pc, #52]	; (80076f0 <udp_remove+0x44>)
 80076ba:	f002 bbd7 	b.w	8009e6c <iprintf>
 80076be:	4a0d      	ldr	r2, [pc, #52]	; (80076f4 <udp_remove+0x48>)
 80076c0:	6813      	ldr	r3, [r2, #0]
 80076c2:	4283      	cmp	r3, r0
 80076c4:	d105      	bne.n	80076d2 <udp_remove+0x26>
 80076c6:	68c3      	ldr	r3, [r0, #12]
 80076c8:	6013      	str	r3, [r2, #0]
 80076ca:	2000      	movs	r0, #0
 80076cc:	f7fb bf92 	b.w	80035f4 <memp_free>
 80076d0:	4613      	mov	r3, r2
 80076d2:	2b00      	cmp	r3, #0
 80076d4:	d0f9      	beq.n	80076ca <udp_remove+0x1e>
 80076d6:	68da      	ldr	r2, [r3, #12]
 80076d8:	2a00      	cmp	r2, #0
 80076da:	d0f6      	beq.n	80076ca <udp_remove+0x1e>
 80076dc:	428a      	cmp	r2, r1
 80076de:	d1f7      	bne.n	80076d0 <udp_remove+0x24>
 80076e0:	68ca      	ldr	r2, [r1, #12]
 80076e2:	60da      	str	r2, [r3, #12]
 80076e4:	e7f1      	b.n	80076ca <udp_remove+0x1e>
 80076e6:	bf00      	nop
 80076e8:	0800c438 	.word	0x0800c438
 80076ec:	0800c67d 	.word	0x0800c67d
 80076f0:	0800af68 	.word	0x0800af68
 80076f4:	20005d60 	.word	0x20005d60

080076f8 <udp_new>:
 80076f8:	b510      	push	{r4, lr}
 80076fa:	2000      	movs	r0, #0
 80076fc:	f7fb ff5e 	bl	80035bc <memp_malloc>
 8007700:	4604      	mov	r4, r0
 8007702:	b128      	cbz	r0, 8007710 <udp_new+0x18>
 8007704:	2220      	movs	r2, #32
 8007706:	2100      	movs	r1, #0
 8007708:	f002 fba8 	bl	8009e5c <memset>
 800770c:	23ff      	movs	r3, #255	; 0xff
 800770e:	72e3      	strb	r3, [r4, #11]
 8007710:	4620      	mov	r0, r4
 8007712:	bd10      	pop	{r4, pc}

08007714 <udp_netif_ip_addr_changed>:
 8007714:	b510      	push	{r4, lr}
 8007716:	b138      	cbz	r0, 8007728 <udp_netif_ip_addr_changed+0x14>
 8007718:	6803      	ldr	r3, [r0, #0]
 800771a:	b12b      	cbz	r3, 8007728 <udp_netif_ip_addr_changed+0x14>
 800771c:	b121      	cbz	r1, 8007728 <udp_netif_ip_addr_changed+0x14>
 800771e:	680b      	ldr	r3, [r1, #0]
 8007720:	b113      	cbz	r3, 8007728 <udp_netif_ip_addr_changed+0x14>
 8007722:	4b06      	ldr	r3, [pc, #24]	; (800773c <udp_netif_ip_addr_changed+0x28>)
 8007724:	681b      	ldr	r3, [r3, #0]
 8007726:	b903      	cbnz	r3, 800772a <udp_netif_ip_addr_changed+0x16>
 8007728:	bd10      	pop	{r4, pc}
 800772a:	681c      	ldr	r4, [r3, #0]
 800772c:	6802      	ldr	r2, [r0, #0]
 800772e:	4294      	cmp	r4, r2
 8007730:	bf04      	itt	eq
 8007732:	680a      	ldreq	r2, [r1, #0]
 8007734:	601a      	streq	r2, [r3, #0]
 8007736:	68db      	ldr	r3, [r3, #12]
 8007738:	e7f5      	b.n	8007726 <udp_netif_ip_addr_changed+0x12>
 800773a:	bf00      	nop
 800773c:	20005d60 	.word	0x20005d60

08007740 <dhcp_set_state>:
 8007740:	7943      	ldrb	r3, [r0, #5]
 8007742:	428b      	cmp	r3, r1
 8007744:	bf1f      	itttt	ne
 8007746:	2300      	movne	r3, #0
 8007748:	7141      	strbne	r1, [r0, #5]
 800774a:	7183      	strbne	r3, [r0, #6]
 800774c:	8103      	strhne	r3, [r0, #8]
 800774e:	4770      	bx	lr

08007750 <dhcp_option_short>:
 8007750:	b5f8      	push	{r3, r4, r5, r6, r7, lr}
 8007752:	1c87      	adds	r7, r0, #2
 8007754:	4604      	mov	r4, r0
 8007756:	460d      	mov	r5, r1
 8007758:	4616      	mov	r6, r2
 800775a:	2f44      	cmp	r7, #68	; 0x44
 800775c:	d906      	bls.n	800776c <dhcp_option_short+0x1c>
 800775e:	4b07      	ldr	r3, [pc, #28]	; (800777c <dhcp_option_short+0x2c>)
 8007760:	f240 52ae 	movw	r2, #1454	; 0x5ae
 8007764:	4906      	ldr	r1, [pc, #24]	; (8007780 <dhcp_option_short+0x30>)
 8007766:	4807      	ldr	r0, [pc, #28]	; (8007784 <dhcp_option_short+0x34>)
 8007768:	f002 fb80 	bl	8009e6c <iprintf>
 800776c:	0a33      	lsrs	r3, r6, #8
 800776e:	b2b8      	uxth	r0, r7
 8007770:	552b      	strb	r3, [r5, r4]
 8007772:	3401      	adds	r4, #1
 8007774:	b2a4      	uxth	r4, r4
 8007776:	552e      	strb	r6, [r5, r4]
 8007778:	bdf8      	pop	{r3, r4, r5, r6, r7, pc}
 800777a:	bf00      	nop
 800777c:	0800c695 	.word	0x0800c695
 8007780:	0800c6ca 	.word	0x0800c6ca
 8007784:	0800af68 	.word	0x0800af68

08007788 <dhcp_option>:
 8007788:	b5f8      	push	{r3, r4, r5, r6, r7, lr}
 800778a:	461e      	mov	r6, r3
 800778c:	3302      	adds	r3, #2
 800778e:	4604      	mov	r4, r0
 8007790:	460d      	mov	r5, r1
 8007792:	fa50 f383 	uxtab	r3, r0, r3
 8007796:	4617      	mov	r7, r2
 8007798:	2b44      	cmp	r3, #68	; 0x44
 800779a:	d906      	bls.n	80077aa <dhcp_option+0x22>
 800779c:	4b06      	ldr	r3, [pc, #24]	; (80077b8 <dhcp_option+0x30>)
 800779e:	f240 529a 	movw	r2, #1434	; 0x59a
 80077a2:	4906      	ldr	r1, [pc, #24]	; (80077bc <dhcp_option+0x34>)
 80077a4:	4806      	ldr	r0, [pc, #24]	; (80077c0 <dhcp_option+0x38>)
 80077a6:	f002 fb61 	bl	8009e6c <iprintf>
 80077aa:	1c63      	adds	r3, r4, #1
 80077ac:	1ca0      	adds	r0, r4, #2
 80077ae:	552f      	strb	r7, [r5, r4]
 80077b0:	b29b      	uxth	r3, r3
 80077b2:	b280      	uxth	r0, r0
 80077b4:	54ee      	strb	r6, [r5, r3]
 80077b6:	bdf8      	pop	{r3, r4, r5, r6, r7, pc}
 80077b8:	0800c695 	.word	0x0800c695
 80077bc:	0800c705 	.word	0x0800c705
 80077c0:	0800af68 	.word	0x0800af68

080077c4 <dhcp_option_byte>:
 80077c4:	2843      	cmp	r0, #67	; 0x43
 80077c6:	b570      	push	{r4, r5, r6, lr}
 80077c8:	4604      	mov	r4, r0
 80077ca:	460d      	mov	r5, r1
 80077cc:	4616      	mov	r6, r2
 80077ce:	d906      	bls.n	80077de <dhcp_option_byte+0x1a>
 80077d0:	4b05      	ldr	r3, [pc, #20]	; (80077e8 <dhcp_option_byte+0x24>)
 80077d2:	f240 52a6 	movw	r2, #1446	; 0x5a6
 80077d6:	4905      	ldr	r1, [pc, #20]	; (80077ec <dhcp_option_byte+0x28>)
 80077d8:	4805      	ldr	r0, [pc, #20]	; (80077f0 <dhcp_option_byte+0x2c>)
 80077da:	f002 fb47 	bl	8009e6c <iprintf>
 80077de:	1c60      	adds	r0, r4, #1
 80077e0:	552e      	strb	r6, [r5, r4]
 80077e2:	b280      	uxth	r0, r0
 80077e4:	bd70      	pop	{r4, r5, r6, pc}
 80077e6:	bf00      	nop
 80077e8:	0800c695 	.word	0x0800c695
 80077ec:	0800c747 	.word	0x0800c747
 80077f0:	0800af68 	.word	0x0800af68

080077f4 <dhcp_option_long>:
 80077f4:	b5f8      	push	{r3, r4, r5, r6, r7, lr}
 80077f6:	1d07      	adds	r7, r0, #4
 80077f8:	4604      	mov	r4, r0
 80077fa:	460d      	mov	r5, r1
 80077fc:	4616      	mov	r6, r2
 80077fe:	2f44      	cmp	r7, #68	; 0x44
 8007800:	d906      	bls.n	8007810 <dhcp_option_long+0x1c>
 8007802:	4b0b      	ldr	r3, [pc, #44]	; (8007830 <dhcp_option_long+0x3c>)
 8007804:	f240 52b7 	movw	r2, #1463	; 0x5b7
 8007808:	490a      	ldr	r1, [pc, #40]	; (8007834 <dhcp_option_long+0x40>)
 800780a:	480b      	ldr	r0, [pc, #44]	; (8007838 <dhcp_option_long+0x44>)
 800780c:	f002 fb2e 	bl	8009e6c <iprintf>
 8007810:	0e33      	lsrs	r3, r6, #24
 8007812:	0c32      	lsrs	r2, r6, #16
 8007814:	552b      	strb	r3, [r5, r4]
 8007816:	1c63      	adds	r3, r4, #1
 8007818:	b2b8      	uxth	r0, r7
 800781a:	b29b      	uxth	r3, r3
 800781c:	54ea      	strb	r2, [r5, r3]
 800781e:	1ca3      	adds	r3, r4, #2
 8007820:	3403      	adds	r4, #3
 8007822:	0a32      	lsrs	r2, r6, #8
 8007824:	b29b      	uxth	r3, r3
 8007826:	b2a4      	uxth	r4, r4
 8007828:	54ea      	strb	r2, [r5, r3]
 800782a:	552e      	strb	r6, [r5, r4]
 800782c:	bdf8      	pop	{r3, r4, r5, r6, r7, pc}
 800782e:	bf00      	nop
 8007830:	0800c695 	.word	0x0800c695
 8007834:	0800c77c 	.word	0x0800c77c
 8007838:	0800af68 	.word	0x0800af68

0800783c <dhcp_create_msg>:
 800783c:	e92d 43f7 	stmdb	sp!, {r0, r1, r2, r4, r5, r6, r7, r8, r9, lr}
 8007840:	460e      	mov	r6, r1
 8007842:	4690      	mov	r8, r2
 8007844:	4699      	mov	r9, r3
 8007846:	4605      	mov	r5, r0
 8007848:	b958      	cbnz	r0, 8007862 <dhcp_create_msg+0x26>
 800784a:	462f      	mov	r7, r5
 800784c:	4b3f      	ldr	r3, [pc, #252]	; (800794c <dhcp_create_msg+0x110>)
 800784e:	f240 7269 	movw	r2, #1897	; 0x769
 8007852:	493f      	ldr	r1, [pc, #252]	; (8007950 <dhcp_create_msg+0x114>)
 8007854:	483f      	ldr	r0, [pc, #252]	; (8007954 <dhcp_create_msg+0x118>)
 8007856:	f002 fb09 	bl	8009e6c <iprintf>
 800785a:	4638      	mov	r0, r7
 800785c:	b003      	add	sp, #12
 800785e:	e8bd 83f0 	ldmia.w	sp!, {r4, r5, r6, r7, r8, r9, pc}
 8007862:	b941      	cbnz	r1, 8007876 <dhcp_create_msg+0x3a>
 8007864:	4b39      	ldr	r3, [pc, #228]	; (800794c <dhcp_create_msg+0x110>)
 8007866:	f240 726a 	movw	r2, #1898	; 0x76a
 800786a:	493b      	ldr	r1, [pc, #236]	; (8007958 <dhcp_create_msg+0x11c>)
 800786c:	4637      	mov	r7, r6
 800786e:	4839      	ldr	r0, [pc, #228]	; (8007954 <dhcp_create_msg+0x118>)
 8007870:	f002 fafc 	bl	8009e6c <iprintf>
 8007874:	e7f1      	b.n	800785a <dhcp_create_msg+0x1e>
 8007876:	f44f 7220 	mov.w	r2, #640	; 0x280
 800787a:	f44f 719a 	mov.w	r1, #308	; 0x134
 800787e:	2036      	movs	r0, #54	; 0x36
 8007880:	f7fc f952 	bl	8003b28 <pbuf_alloc>
 8007884:	4607      	mov	r7, r0
 8007886:	2800      	cmp	r0, #0
 8007888:	d0e7      	beq.n	800785a <dhcp_create_msg+0x1e>
 800788a:	8943      	ldrh	r3, [r0, #10]
 800788c:	f5b3 7f9a 	cmp.w	r3, #308	; 0x134
 8007890:	d206      	bcs.n	80078a0 <dhcp_create_msg+0x64>
 8007892:	4b2e      	ldr	r3, [pc, #184]	; (800794c <dhcp_create_msg+0x110>)
 8007894:	f240 7271 	movw	r2, #1905	; 0x771
 8007898:	4930      	ldr	r1, [pc, #192]	; (800795c <dhcp_create_msg+0x120>)
 800789a:	482e      	ldr	r0, [pc, #184]	; (8007954 <dhcp_create_msg+0x118>)
 800789c:	f002 fae6 	bl	8009e6c <iprintf>
 80078a0:	f1b8 0f03 	cmp.w	r8, #3
 80078a4:	d102      	bne.n	80078ac <dhcp_create_msg+0x70>
 80078a6:	7973      	ldrb	r3, [r6, #5]
 80078a8:	2b03      	cmp	r3, #3
 80078aa:	d107      	bne.n	80078bc <dhcp_create_msg+0x80>
 80078ac:	79b3      	ldrb	r3, [r6, #6]
 80078ae:	4c2c      	ldr	r4, [pc, #176]	; (8007960 <dhcp_create_msg+0x124>)
 80078b0:	b913      	cbnz	r3, 80078b8 <dhcp_create_msg+0x7c>
 80078b2:	f002 faf3 	bl	8009e9c <rand>
 80078b6:	6020      	str	r0, [r4, #0]
 80078b8:	6823      	ldr	r3, [r4, #0]
 80078ba:	6033      	str	r3, [r6, #0]
 80078bc:	687c      	ldr	r4, [r7, #4]
 80078be:	f44f 729a 	mov.w	r2, #308	; 0x134
 80078c2:	2100      	movs	r1, #0
 80078c4:	4620      	mov	r0, r4
 80078c6:	f002 fac9 	bl	8009e5c <memset>
 80078ca:	2301      	movs	r3, #1
 80078cc:	7023      	strb	r3, [r4, #0]
 80078ce:	7063      	strb	r3, [r4, #1]
 80078d0:	f895 3030 	ldrb.w	r3, [r5, #48]	; 0x30
 80078d4:	70a3      	strb	r3, [r4, #2]
 80078d6:	6830      	ldr	r0, [r6, #0]
 80078d8:	f7fb fbe9 	bl	80030ae <lwip_htonl>
 80078dc:	f1b8 0f04 	cmp.w	r8, #4
 80078e0:	6060      	str	r0, [r4, #4]
 80078e2:	d00a      	beq.n	80078fa <dhcp_create_msg+0xbe>
 80078e4:	f1a8 0307 	sub.w	r3, r8, #7
 80078e8:	2b01      	cmp	r3, #1
 80078ea:	d906      	bls.n	80078fa <dhcp_create_msg+0xbe>
 80078ec:	f1b8 0f03 	cmp.w	r8, #3
 80078f0:	d105      	bne.n	80078fe <dhcp_create_msg+0xc2>
 80078f2:	7973      	ldrb	r3, [r6, #5]
 80078f4:	3b04      	subs	r3, #4
 80078f6:	2b01      	cmp	r3, #1
 80078f8:	d801      	bhi.n	80078fe <dhcp_create_msg+0xc2>
 80078fa:	686b      	ldr	r3, [r5, #4]
 80078fc:	60e3      	str	r3, [r4, #12]
 80078fe:	f105 032a 	add.w	r3, r5, #42	; 0x2a
 8007902:	f104 021c 	add.w	r2, r4, #28
 8007906:	3530      	adds	r5, #48	; 0x30
 8007908:	f813 1b01 	ldrb.w	r1, [r3], #1
 800790c:	42ab      	cmp	r3, r5
 800790e:	f802 1b01 	strb.w	r1, [r2], #1
 8007912:	d1f9      	bne.n	8007908 <dhcp_create_msg+0xcc>
 8007914:	f06f 027d 	mvn.w	r2, #125	; 0x7d
 8007918:	2363      	movs	r3, #99	; 0x63
 800791a:	f104 01f0 	add.w	r1, r4, #240	; 0xf0
 800791e:	2000      	movs	r0, #0
 8007920:	f884 20ed 	strb.w	r2, [r4, #237]	; 0xed
 8007924:	2253      	movs	r2, #83	; 0x53
 8007926:	f884 30ec 	strb.w	r3, [r4, #236]	; 0xec
 800792a:	f884 20ee 	strb.w	r2, [r4, #238]	; 0xee
 800792e:	2235      	movs	r2, #53	; 0x35
 8007930:	f884 30ef 	strb.w	r3, [r4, #239]	; 0xef
 8007934:	2301      	movs	r3, #1
 8007936:	9101      	str	r1, [sp, #4]
 8007938:	f7ff ff26 	bl	8007788 <dhcp_option>
 800793c:	4642      	mov	r2, r8
 800793e:	9901      	ldr	r1, [sp, #4]
 8007940:	f7ff ff40 	bl	80077c4 <dhcp_option_byte>
 8007944:	f8a9 0000 	strh.w	r0, [r9]
 8007948:	e787      	b.n	800785a <dhcp_create_msg+0x1e>
 800794a:	bf00      	nop
 800794c:	0800c695 	.word	0x0800c695
 8007950:	0800c7b6 	.word	0x0800c7b6
 8007954:	0800af68 	.word	0x0800af68
 8007958:	0800c7d5 	.word	0x0800c7d5
 800795c:	0800c7f3 	.word	0x0800c7f3
 8007960:	20005d94 	.word	0x20005d94

08007964 <dhcp_option_trailer>:
 8007964:	b5f8      	push	{r3, r4, r5, r6, r7, lr}
 8007966:	4604      	mov	r4, r0
 8007968:	23ff      	movs	r3, #255	; 0xff
 800796a:	4608      	mov	r0, r1
 800796c:	4617      	mov	r7, r2
 800796e:	1c66      	adds	r6, r4, #1
 8007970:	f1c4 0543 	rsb	r5, r4, #67	; 0x43
 8007974:	550b      	strb	r3, [r1, r4]
 8007976:	2100      	movs	r1, #0
 8007978:	b2b6      	uxth	r6, r6
 800797a:	34f1      	adds	r4, #241	; 0xf1
 800797c:	b2ad      	uxth	r5, r5
 800797e:	2e44      	cmp	r6, #68	; 0x44
 8007980:	4430      	add	r0, r6
 8007982:	bf94      	ite	ls
 8007984:	462a      	movls	r2, r5
 8007986:	2200      	movhi	r2, #0
 8007988:	f002 fa68 	bl	8009e5c <memset>
 800798c:	2e44      	cmp	r6, #68	; 0x44
 800798e:	4638      	mov	r0, r7
 8007990:	bf94      	ite	ls
 8007992:	4629      	movls	r1, r5
 8007994:	2100      	movhi	r1, #0
 8007996:	4421      	add	r1, r4
 8007998:	e8bd 40f8 	ldmia.w	sp!, {r3, r4, r5, r6, r7, lr}
 800799c:	b289      	uxth	r1, r1
 800799e:	f7fc b943 	b.w	8003c28 <pbuf_realloc>
	...

080079a4 <dhcp_discover>:
 80079a4:	e92d 41f0 	stmdb	sp!, {r4, r5, r6, r7, r8, lr}
 80079a8:	2300      	movs	r3, #0
 80079aa:	6a44      	ldr	r4, [r0, #36]	; 0x24
 80079ac:	b086      	sub	sp, #24
 80079ae:	4606      	mov	r6, r0
 80079b0:	2106      	movs	r1, #6
 80079b2:	4620      	mov	r0, r4
 80079b4:	61e3      	str	r3, [r4, #28]
 80079b6:	2201      	movs	r2, #1
 80079b8:	f7ff fec2 	bl	8007740 <dhcp_set_state>
 80079bc:	f10d 0316 	add.w	r3, sp, #22
 80079c0:	4621      	mov	r1, r4
 80079c2:	4630      	mov	r0, r6
 80079c4:	f7ff ff3a 	bl	800783c <dhcp_create_msg>
 80079c8:	4605      	mov	r5, r0
 80079ca:	2800      	cmp	r0, #0
 80079cc:	d039      	beq.n	8007a42 <dhcp_discover+0x9e>
 80079ce:	6841      	ldr	r1, [r0, #4]
 80079d0:	2302      	movs	r3, #2
 80079d2:	2239      	movs	r2, #57	; 0x39
 80079d4:	f8bd 0016 	ldrh.w	r0, [sp, #22]
 80079d8:	31f0      	adds	r1, #240	; 0xf0
 80079da:	f8df 80b4 	ldr.w	r8, [pc, #180]	; 8007a90 <dhcp_discover+0xec>
 80079de:	2703      	movs	r7, #3
 80079e0:	9103      	str	r1, [sp, #12]
 80079e2:	f7ff fed1 	bl	8007788 <dhcp_option>
 80079e6:	8d32      	ldrh	r2, [r6, #40]	; 0x28
 80079e8:	9903      	ldr	r1, [sp, #12]
 80079ea:	f8ad 0016 	strh.w	r0, [sp, #22]
 80079ee:	f7ff feaf 	bl	8007750 <dhcp_option_short>
 80079f2:	9903      	ldr	r1, [sp, #12]
 80079f4:	2303      	movs	r3, #3
 80079f6:	2237      	movs	r2, #55	; 0x37
 80079f8:	f8ad 0016 	strh.w	r0, [sp, #22]
 80079fc:	f7ff fec4 	bl	8007788 <dhcp_option>
 8007a00:	9903      	ldr	r1, [sp, #12]
 8007a02:	f8ad 0016 	strh.w	r0, [sp, #22]
 8007a06:	3f01      	subs	r7, #1
 8007a08:	f818 2b01 	ldrb.w	r2, [r8], #1
 8007a0c:	f8bd 0016 	ldrh.w	r0, [sp, #22]
 8007a10:	9103      	str	r1, [sp, #12]
 8007a12:	f7ff fed7 	bl	80077c4 <dhcp_option_byte>
 8007a16:	f017 07ff 	ands.w	r7, r7, #255	; 0xff
 8007a1a:	9903      	ldr	r1, [sp, #12]
 8007a1c:	f8ad 0016 	strh.w	r0, [sp, #22]
 8007a20:	d1f1      	bne.n	8007a06 <dhcp_discover+0x62>
 8007a22:	462a      	mov	r2, r5
 8007a24:	f7ff ff9e 	bl	8007964 <dhcp_option_trailer>
 8007a28:	4b16      	ldr	r3, [pc, #88]	; (8007a84 <dhcp_discover+0xe0>)
 8007a2a:	4817      	ldr	r0, [pc, #92]	; (8007a88 <dhcp_discover+0xe4>)
 8007a2c:	4629      	mov	r1, r5
 8007a2e:	4a17      	ldr	r2, [pc, #92]	; (8007a8c <dhcp_discover+0xe8>)
 8007a30:	e9cd 6300 	strd	r6, r3, [sp]
 8007a34:	2343      	movs	r3, #67	; 0x43
 8007a36:	6800      	ldr	r0, [r0, #0]
 8007a38:	f7ff fd12 	bl	8007460 <udp_sendto_if_src>
 8007a3c:	4628      	mov	r0, r5
 8007a3e:	f7fc f80f 	bl	8003a60 <pbuf_free>
 8007a42:	79a3      	ldrb	r3, [r4, #6]
 8007a44:	2000      	movs	r0, #0
 8007a46:	2bff      	cmp	r3, #255	; 0xff
 8007a48:	bf1c      	itt	ne
 8007a4a:	3301      	addne	r3, #1
 8007a4c:	71a3      	strbne	r3, [r4, #6]
 8007a4e:	79a2      	ldrb	r2, [r4, #6]
 8007a50:	2a05      	cmp	r2, #5
 8007a52:	bf97      	itett	ls
 8007a54:	2301      	movls	r3, #1
 8007a56:	f64e 2360 	movwhi	r3, #60000	; 0xea60
 8007a5a:	4093      	lslls	r3, r2
 8007a5c:	ebc3 1243 	rsbls	r2, r3, r3, lsl #5
 8007a60:	bf98      	it	ls
 8007a62:	eb03 0382 	addls.w	r3, r3, r2, lsl #2
 8007a66:	f44f 72fa 	mov.w	r2, #500	; 0x1f4
 8007a6a:	bf9c      	itt	ls
 8007a6c:	00db      	lslls	r3, r3, #3
 8007a6e:	b29b      	uxthls	r3, r3
 8007a70:	f203 13f3 	addw	r3, r3, #499	; 0x1f3
 8007a74:	b29b      	uxth	r3, r3
 8007a76:	fbb3 f3f2 	udiv	r3, r3, r2
 8007a7a:	8123      	strh	r3, [r4, #8]
 8007a7c:	b006      	add	sp, #24
 8007a7e:	e8bd 81f0 	ldmia.w	sp!, {r4, r5, r6, r7, r8, pc}
 8007a82:	bf00      	nop
 8007a84:	0800cc58 	.word	0x0800cc58
 8007a88:	20005d64 	.word	0x20005d64
 8007a8c:	0800cc5c 	.word	0x0800cc5c
 8007a90:	0800c999 	.word	0x0800c999

08007a94 <dhcp_check>:
 8007a94:	b538      	push	{r3, r4, r5, lr}
 8007a96:	6a44      	ldr	r4, [r0, #36]	; 0x24
 8007a98:	4605      	mov	r5, r0
 8007a9a:	2108      	movs	r1, #8
 8007a9c:	2200      	movs	r2, #0
 8007a9e:	4620      	mov	r0, r4
 8007aa0:	f7ff fe4e 	bl	8007740 <dhcp_set_state>
 8007aa4:	f104 011c 	add.w	r1, r4, #28
 8007aa8:	4628      	mov	r0, r5
 8007aaa:	f001 f95d 	bl	8008d68 <etharp_query>
 8007aae:	79a3      	ldrb	r3, [r4, #6]
 8007ab0:	2bff      	cmp	r3, #255	; 0xff
 8007ab2:	bf1c      	itt	ne
 8007ab4:	3301      	addne	r3, #1
 8007ab6:	71a3      	strbne	r3, [r4, #6]
 8007ab8:	2301      	movs	r3, #1
 8007aba:	8123      	strh	r3, [r4, #8]
 8007abc:	bd38      	pop	{r3, r4, r5, pc}
	...

08007ac0 <dhcp_bind>:
 8007ac0:	b513      	push	{r0, r1, r4, lr}
 8007ac2:	4604      	mov	r4, r0
 8007ac4:	b948      	cbnz	r0, 8007ada <dhcp_bind+0x1a>
 8007ac6:	4b3e      	ldr	r3, [pc, #248]	; (8007bc0 <dhcp_bind+0x100>)
 8007ac8:	f240 4215 	movw	r2, #1045	; 0x415
 8007acc:	493d      	ldr	r1, [pc, #244]	; (8007bc4 <dhcp_bind+0x104>)
 8007ace:	483e      	ldr	r0, [pc, #248]	; (8007bc8 <dhcp_bind+0x108>)
 8007ad0:	b002      	add	sp, #8
 8007ad2:	e8bd 4010 	ldmia.w	sp!, {r4, lr}
 8007ad6:	f002 b9c9 	b.w	8009e6c <iprintf>
 8007ada:	6a40      	ldr	r0, [r0, #36]	; 0x24
 8007adc:	b920      	cbnz	r0, 8007ae8 <dhcp_bind+0x28>
 8007ade:	4b38      	ldr	r3, [pc, #224]	; (8007bc0 <dhcp_bind+0x100>)
 8007ae0:	f240 4217 	movw	r2, #1047	; 0x417
 8007ae4:	4939      	ldr	r1, [pc, #228]	; (8007bcc <dhcp_bind+0x10c>)
 8007ae6:	e7f2      	b.n	8007ace <dhcp_bind+0xe>
 8007ae8:	2300      	movs	r3, #0
 8007aea:	8243      	strh	r3, [r0, #18]
 8007aec:	6a83      	ldr	r3, [r0, #40]	; 0x28
 8007aee:	1c5a      	adds	r2, r3, #1
 8007af0:	d00c      	beq.n	8007b0c <dhcp_bind+0x4c>
 8007af2:	331e      	adds	r3, #30
 8007af4:	f5b3 1f70 	cmp.w	r3, #3932160	; 0x3c0000
 8007af8:	bf36      	itet	cc
 8007afa:	223c      	movcc	r2, #60	; 0x3c
 8007afc:	f64f 73ff 	movwcs	r3, #65535	; 0xffff
 8007b00:	fbb3 f3f2 	udivcc	r3, r3, r2
 8007b04:	b29a      	uxth	r2, r3
 8007b06:	2b00      	cmp	r3, #0
 8007b08:	d043      	beq.n	8007b92 <dhcp_bind+0xd2>
 8007b0a:	8282      	strh	r2, [r0, #20]
 8007b0c:	6ac3      	ldr	r3, [r0, #44]	; 0x2c
 8007b0e:	1c59      	adds	r1, r3, #1
 8007b10:	d00e      	beq.n	8007b30 <dhcp_bind+0x70>
 8007b12:	331e      	adds	r3, #30
 8007b14:	f5b3 1f70 	cmp.w	r3, #3932160	; 0x3c0000
 8007b18:	bf36      	itet	cc
 8007b1a:	223c      	movcc	r2, #60	; 0x3c
 8007b1c:	f64f 73ff 	movwcs	r3, #65535	; 0xffff
 8007b20:	fbb3 f3f2 	udivcc	r3, r3, r2
 8007b24:	b29a      	uxth	r2, r3
 8007b26:	2b00      	cmp	r3, #0
 8007b28:	d036      	beq.n	8007b98 <dhcp_bind+0xd8>
 8007b2a:	8142      	strh	r2, [r0, #10]
 8007b2c:	8943      	ldrh	r3, [r0, #10]
 8007b2e:	81c3      	strh	r3, [r0, #14]
 8007b30:	6b03      	ldr	r3, [r0, #48]	; 0x30
 8007b32:	1c5a      	adds	r2, r3, #1
 8007b34:	d00d      	beq.n	8007b52 <dhcp_bind+0x92>
 8007b36:	331e      	adds	r3, #30
 8007b38:	f5b3 1f70 	cmp.w	r3, #3932160	; 0x3c0000
 8007b3c:	bf36      	itet	cc
 8007b3e:	223c      	movcc	r2, #60	; 0x3c
 8007b40:	f64f 73ff 	movwcs	r3, #65535	; 0xffff
 8007b44:	fbb3 f3f2 	udivcc	r3, r3, r2
 8007b48:	b29a      	uxth	r2, r3
 8007b4a:	b343      	cbz	r3, 8007b9e <dhcp_bind+0xde>
 8007b4c:	8182      	strh	r2, [r0, #12]
 8007b4e:	8983      	ldrh	r3, [r0, #12]
 8007b50:	8203      	strh	r3, [r0, #16]
 8007b52:	8983      	ldrh	r3, [r0, #12]
 8007b54:	8942      	ldrh	r2, [r0, #10]
 8007b56:	429a      	cmp	r2, r3
 8007b58:	d302      	bcc.n	8007b60 <dhcp_bind+0xa0>
 8007b5a:	b10b      	cbz	r3, 8007b60 <dhcp_bind+0xa0>
 8007b5c:	2300      	movs	r3, #0
 8007b5e:	8143      	strh	r3, [r0, #10]
 8007b60:	79c3      	ldrb	r3, [r0, #7]
 8007b62:	b1fb      	cbz	r3, 8007ba4 <dhcp_bind+0xe4>
 8007b64:	6a03      	ldr	r3, [r0, #32]
 8007b66:	9300      	str	r3, [sp, #0]
 8007b68:	6a43      	ldr	r3, [r0, #36]	; 0x24
 8007b6a:	9301      	str	r3, [sp, #4]
 8007b6c:	b92b      	cbnz	r3, 8007b7a <dhcp_bind+0xba>
 8007b6e:	69c3      	ldr	r3, [r0, #28]
 8007b70:	9a00      	ldr	r2, [sp, #0]
 8007b72:	4013      	ands	r3, r2
 8007b74:	f043 7380 	orr.w	r3, r3, #16777216	; 0x1000000
 8007b78:	9301      	str	r3, [sp, #4]
 8007b7a:	210a      	movs	r1, #10
 8007b7c:	466a      	mov	r2, sp
 8007b7e:	f7ff fddf 	bl	8007740 <dhcp_set_state>
 8007b82:	f100 011c 	add.w	r1, r0, #28
 8007b86:	ab01      	add	r3, sp, #4
 8007b88:	4620      	mov	r0, r4
 8007b8a:	f7fb fd9b 	bl	80036c4 <netif_set_addr>
 8007b8e:	b002      	add	sp, #8
 8007b90:	bd10      	pop	{r4, pc}
 8007b92:	2301      	movs	r3, #1
 8007b94:	8283      	strh	r3, [r0, #20]
 8007b96:	e7b9      	b.n	8007b0c <dhcp_bind+0x4c>
 8007b98:	2301      	movs	r3, #1
 8007b9a:	8143      	strh	r3, [r0, #10]
 8007b9c:	e7c6      	b.n	8007b2c <dhcp_bind+0x6c>
 8007b9e:	2301      	movs	r3, #1
 8007ba0:	8183      	strh	r3, [r0, #12]
 8007ba2:	e7d4      	b.n	8007b4e <dhcp_bind+0x8e>
 8007ba4:	f990 201c 	ldrsb.w	r2, [r0, #28]
 8007ba8:	7f03      	ldrb	r3, [r0, #28]
 8007baa:	2a00      	cmp	r2, #0
 8007bac:	db01      	blt.n	8007bb2 <dhcp_bind+0xf2>
 8007bae:	23ff      	movs	r3, #255	; 0xff
 8007bb0:	e7d9      	b.n	8007b66 <dhcp_bind+0xa6>
 8007bb2:	2bbf      	cmp	r3, #191	; 0xbf
 8007bb4:	bf8c      	ite	hi
 8007bb6:	f06f 437f 	mvnhi.w	r3, #4278190080	; 0xff000000
 8007bba:	f64f 73ff 	movwls	r3, #65535	; 0xffff
 8007bbe:	e7d2      	b.n	8007b66 <dhcp_bind+0xa6>
 8007bc0:	0800c695 	.word	0x0800c695
 8007bc4:	0800c833 	.word	0x0800c833
 8007bc8:	0800af68 	.word	0x0800af68
 8007bcc:	0800c84c 	.word	0x0800c84c

08007bd0 <dhcp_inc_pcb_refcount>:
 8007bd0:	b538      	push	{r3, r4, r5, lr}
 8007bd2:	4d15      	ldr	r5, [pc, #84]	; (8007c28 <dhcp_inc_pcb_refcount+0x58>)
 8007bd4:	782b      	ldrb	r3, [r5, #0]
 8007bd6:	b9f3      	cbnz	r3, 8007c16 <dhcp_inc_pcb_refcount+0x46>
 8007bd8:	4c14      	ldr	r4, [pc, #80]	; (8007c2c <dhcp_inc_pcb_refcount+0x5c>)
 8007bda:	6823      	ldr	r3, [r4, #0]
 8007bdc:	b12b      	cbz	r3, 8007bea <dhcp_inc_pcb_refcount+0x1a>
 8007bde:	4b14      	ldr	r3, [pc, #80]	; (8007c30 <dhcp_inc_pcb_refcount+0x60>)
 8007be0:	22e5      	movs	r2, #229	; 0xe5
 8007be2:	4914      	ldr	r1, [pc, #80]	; (8007c34 <dhcp_inc_pcb_refcount+0x64>)
 8007be4:	4814      	ldr	r0, [pc, #80]	; (8007c38 <dhcp_inc_pcb_refcount+0x68>)
 8007be6:	f002 f941 	bl	8009e6c <iprintf>
 8007bea:	f7ff fd85 	bl	80076f8 <udp_new>
 8007bee:	6020      	str	r0, [r4, #0]
 8007bf0:	b1b0      	cbz	r0, 8007c20 <dhcp_inc_pcb_refcount+0x50>
 8007bf2:	7a42      	ldrb	r2, [r0, #9]
 8007bf4:	4911      	ldr	r1, [pc, #68]	; (8007c3c <dhcp_inc_pcb_refcount+0x6c>)
 8007bf6:	f042 0220 	orr.w	r2, r2, #32
 8007bfa:	7242      	strb	r2, [r0, #9]
 8007bfc:	2244      	movs	r2, #68	; 0x44
 8007bfe:	f7ff fbc9 	bl	8007394 <udp_bind>
 8007c02:	2243      	movs	r2, #67	; 0x43
 8007c04:	490d      	ldr	r1, [pc, #52]	; (8007c3c <dhcp_inc_pcb_refcount+0x6c>)
 8007c06:	6820      	ldr	r0, [r4, #0]
 8007c08:	f7ff fd02 	bl	8007610 <udp_connect>
 8007c0c:	2200      	movs	r2, #0
 8007c0e:	490c      	ldr	r1, [pc, #48]	; (8007c40 <dhcp_inc_pcb_refcount+0x70>)
 8007c10:	6820      	ldr	r0, [r4, #0]
 8007c12:	f7ff fd39 	bl	8007688 <udp_recv>
 8007c16:	782b      	ldrb	r3, [r5, #0]
 8007c18:	2000      	movs	r0, #0
 8007c1a:	3301      	adds	r3, #1
 8007c1c:	702b      	strb	r3, [r5, #0]
 8007c1e:	bd38      	pop	{r3, r4, r5, pc}
 8007c20:	f04f 30ff 	mov.w	r0, #4294967295
 8007c24:	e7fb      	b.n	8007c1e <dhcp_inc_pcb_refcount+0x4e>
 8007c26:	bf00      	nop
 8007c28:	20005d68 	.word	0x20005d68
 8007c2c:	20005d64 	.word	0x20005d64
 8007c30:	0800c695 	.word	0x0800c695
 8007c34:	0800c864 	.word	0x0800c864
 8007c38:	0800af68 	.word	0x0800af68
 8007c3c:	0800cc58 	.word	0x0800cc58
 8007c40:	08007f55 	.word	0x08007f55

08007c44 <dhcp_dec_pcb_refcount>:
 8007c44:	b538      	push	{r3, r4, r5, lr}
 8007c46:	4d0a      	ldr	r5, [pc, #40]	; (8007c70 <dhcp_dec_pcb_refcount+0x2c>)
 8007c48:	782b      	ldrb	r3, [r5, #0]
 8007c4a:	b92b      	cbnz	r3, 8007c58 <dhcp_dec_pcb_refcount+0x14>
 8007c4c:	4b09      	ldr	r3, [pc, #36]	; (8007c74 <dhcp_dec_pcb_refcount+0x30>)
 8007c4e:	22ff      	movs	r2, #255	; 0xff
 8007c50:	4909      	ldr	r1, [pc, #36]	; (8007c78 <dhcp_dec_pcb_refcount+0x34>)
 8007c52:	480a      	ldr	r0, [pc, #40]	; (8007c7c <dhcp_dec_pcb_refcount+0x38>)
 8007c54:	f002 f90a 	bl	8009e6c <iprintf>
 8007c58:	782c      	ldrb	r4, [r5, #0]
 8007c5a:	3c01      	subs	r4, #1
 8007c5c:	b2e4      	uxtb	r4, r4
 8007c5e:	702c      	strb	r4, [r5, #0]
 8007c60:	b924      	cbnz	r4, 8007c6c <dhcp_dec_pcb_refcount+0x28>
 8007c62:	4d07      	ldr	r5, [pc, #28]	; (8007c80 <dhcp_dec_pcb_refcount+0x3c>)
 8007c64:	6828      	ldr	r0, [r5, #0]
 8007c66:	f7ff fd21 	bl	80076ac <udp_remove>
 8007c6a:	602c      	str	r4, [r5, #0]
 8007c6c:	bd38      	pop	{r3, r4, r5, pc}
 8007c6e:	bf00      	nop
 8007c70:	20005d68 	.word	0x20005d68
 8007c74:	0800c695 	.word	0x0800c695
 8007c78:	0800c889 	.word	0x0800c889
 8007c7c:	0800af68 	.word	0x0800af68
 8007c80:	20005d64 	.word	0x20005d64

08007c84 <dhcp_reboot.isra.0>:
 8007c84:	e92d 43f0 	stmdb	sp!, {r4, r5, r6, r7, r8, r9, lr}
 8007c88:	6a44      	ldr	r4, [r0, #36]	; 0x24
 8007c8a:	b085      	sub	sp, #20
 8007c8c:	2103      	movs	r1, #3
 8007c8e:	4607      	mov	r7, r0
 8007c90:	4620      	mov	r0, r4
 8007c92:	f7ff fd55 	bl	8007740 <dhcp_set_state>
 8007c96:	460a      	mov	r2, r1
 8007c98:	f10d 030e 	add.w	r3, sp, #14
 8007c9c:	4621      	mov	r1, r4
 8007c9e:	4638      	mov	r0, r7
 8007ca0:	f7ff fdcc 	bl	800783c <dhcp_create_msg>
 8007ca4:	4606      	mov	r6, r0
 8007ca6:	2800      	cmp	r0, #0
 8007ca8:	d04b      	beq.n	8007d42 <dhcp_reboot.isra.0+0xbe>
 8007caa:	6845      	ldr	r5, [r0, #4]
 8007cac:	2302      	movs	r3, #2
 8007cae:	2239      	movs	r2, #57	; 0x39
 8007cb0:	f8bd 000e 	ldrh.w	r0, [sp, #14]
 8007cb4:	35f0      	adds	r5, #240	; 0xf0
 8007cb6:	f8df 90cc 	ldr.w	r9, [pc, #204]	; 8007d84 <dhcp_reboot.isra.0+0x100>
 8007cba:	4629      	mov	r1, r5
 8007cbc:	f7ff fd64 	bl	8007788 <dhcp_option>
 8007cc0:	f44f 7210 	mov.w	r2, #576	; 0x240
 8007cc4:	4629      	mov	r1, r5
 8007cc6:	f8ad 000e 	strh.w	r0, [sp, #14]
 8007cca:	f7ff fd41 	bl	8007750 <dhcp_option_short>
 8007cce:	2304      	movs	r3, #4
 8007cd0:	2232      	movs	r2, #50	; 0x32
 8007cd2:	4629      	mov	r1, r5
 8007cd4:	f8ad 000e 	strh.w	r0, [sp, #14]
 8007cd8:	f7ff fd56 	bl	8007788 <dhcp_option>
 8007cdc:	4680      	mov	r8, r0
 8007cde:	f8ad 000e 	strh.w	r0, [sp, #14]
 8007ce2:	69e0      	ldr	r0, [r4, #28]
 8007ce4:	f7fb f9e3 	bl	80030ae <lwip_htonl>
 8007ce8:	4629      	mov	r1, r5
 8007cea:	4602      	mov	r2, r0
 8007cec:	4640      	mov	r0, r8
 8007cee:	f04f 0803 	mov.w	r8, #3
 8007cf2:	f7ff fd7f 	bl	80077f4 <dhcp_option_long>
 8007cf6:	2303      	movs	r3, #3
 8007cf8:	2237      	movs	r2, #55	; 0x37
 8007cfa:	4629      	mov	r1, r5
 8007cfc:	f8ad 000e 	strh.w	r0, [sp, #14]
 8007d00:	f7ff fd42 	bl	8007788 <dhcp_option>
 8007d04:	f8ad 000e 	strh.w	r0, [sp, #14]
 8007d08:	f108 38ff 	add.w	r8, r8, #4294967295
 8007d0c:	f819 2b01 	ldrb.w	r2, [r9], #1
 8007d10:	4629      	mov	r1, r5
 8007d12:	f8bd 000e 	ldrh.w	r0, [sp, #14]
 8007d16:	f7ff fd55 	bl	80077c4 <dhcp_option_byte>
 8007d1a:	f018 08ff 	ands.w	r8, r8, #255	; 0xff
 8007d1e:	f8ad 000e 	strh.w	r0, [sp, #14]
 8007d22:	d1f1      	bne.n	8007d08 <dhcp_reboot.isra.0+0x84>
 8007d24:	4632      	mov	r2, r6
 8007d26:	4629      	mov	r1, r5
 8007d28:	f7ff fe1c 	bl	8007964 <dhcp_option_trailer>
 8007d2c:	4813      	ldr	r0, [pc, #76]	; (8007d7c <dhcp_reboot.isra.0+0xf8>)
 8007d2e:	9700      	str	r7, [sp, #0]
 8007d30:	2343      	movs	r3, #67	; 0x43
 8007d32:	4a13      	ldr	r2, [pc, #76]	; (8007d80 <dhcp_reboot.isra.0+0xfc>)
 8007d34:	4631      	mov	r1, r6
 8007d36:	6800      	ldr	r0, [r0, #0]
 8007d38:	f7ff fc2a 	bl	8007590 <udp_sendto_if>
 8007d3c:	4630      	mov	r0, r6
 8007d3e:	f7fb fe8f 	bl	8003a60 <pbuf_free>
 8007d42:	79a3      	ldrb	r3, [r4, #6]
 8007d44:	2bff      	cmp	r3, #255	; 0xff
 8007d46:	bf1c      	itt	ne
 8007d48:	3301      	addne	r3, #1
 8007d4a:	71a3      	strbne	r3, [r4, #6]
 8007d4c:	79a3      	ldrb	r3, [r4, #6]
 8007d4e:	2b09      	cmp	r3, #9
 8007d50:	bf96      	itet	ls
 8007d52:	ebc3 1243 	rsbls	r2, r3, r3, lsl #5
 8007d56:	f242 7310 	movwhi	r3, #10000	; 0x2710
 8007d5a:	eb03 0382 	addls.w	r3, r3, r2, lsl #2
 8007d5e:	f44f 72fa 	mov.w	r2, #500	; 0x1f4
 8007d62:	bf9c      	itt	ls
 8007d64:	00db      	lslls	r3, r3, #3
 8007d66:	b29b      	uxthls	r3, r3
 8007d68:	f203 13f3 	addw	r3, r3, #499	; 0x1f3
 8007d6c:	b29b      	uxth	r3, r3
 8007d6e:	fbb3 f3f2 	udiv	r3, r3, r2
 8007d72:	8123      	strh	r3, [r4, #8]
 8007d74:	b005      	add	sp, #20
 8007d76:	e8bd 83f0 	ldmia.w	sp!, {r4, r5, r6, r7, r8, r9, pc}
 8007d7a:	bf00      	nop
 8007d7c:	20005d64 	.word	0x20005d64
 8007d80:	0800cc5c 	.word	0x0800cc5c
 8007d84:	0800c999 	.word	0x0800c999

08007d88 <dhcp_handle_ack.isra.0>:
 8007d88:	b538      	push	{r3, r4, r5, lr}
 8007d8a:	2300      	movs	r3, #0
 8007d8c:	4d16      	ldr	r5, [pc, #88]	; (8007de8 <dhcp_handle_ack.isra.0+0x60>)
 8007d8e:	4604      	mov	r4, r0
 8007d90:	e9c0 3308 	strd	r3, r3, [r0, #32]
 8007d94:	78eb      	ldrb	r3, [r5, #3]
 8007d96:	b113      	cbz	r3, 8007d9e <dhcp_handle_ack.isra.0+0x16>
 8007d98:	4b14      	ldr	r3, [pc, #80]	; (8007dec <dhcp_handle_ack.isra.0+0x64>)
 8007d9a:	68db      	ldr	r3, [r3, #12]
 8007d9c:	6283      	str	r3, [r0, #40]	; 0x28
 8007d9e:	792b      	ldrb	r3, [r5, #4]
 8007da0:	b1d3      	cbz	r3, 8007dd8 <dhcp_handle_ack.isra.0+0x50>
 8007da2:	4b12      	ldr	r3, [pc, #72]	; (8007dec <dhcp_handle_ack.isra.0+0x64>)
 8007da4:	691b      	ldr	r3, [r3, #16]
 8007da6:	62e3      	str	r3, [r4, #44]	; 0x2c
 8007da8:	796b      	ldrb	r3, [r5, #5]
 8007daa:	b1c3      	cbz	r3, 8007dde <dhcp_handle_ack.isra.0+0x56>
 8007dac:	4b0f      	ldr	r3, [pc, #60]	; (8007dec <dhcp_handle_ack.isra.0+0x64>)
 8007dae:	695b      	ldr	r3, [r3, #20]
 8007db0:	6323      	str	r3, [r4, #48]	; 0x30
 8007db2:	690b      	ldr	r3, [r1, #16]
 8007db4:	61e3      	str	r3, [r4, #28]
 8007db6:	79ab      	ldrb	r3, [r5, #6]
 8007db8:	b12b      	cbz	r3, 8007dc6 <dhcp_handle_ack.isra.0+0x3e>
 8007dba:	4b0c      	ldr	r3, [pc, #48]	; (8007dec <dhcp_handle_ack.isra.0+0x64>)
 8007dbc:	6998      	ldr	r0, [r3, #24]
 8007dbe:	f7fb f976 	bl	80030ae <lwip_htonl>
 8007dc2:	2301      	movs	r3, #1
 8007dc4:	6220      	str	r0, [r4, #32]
 8007dc6:	71e3      	strb	r3, [r4, #7]
 8007dc8:	79eb      	ldrb	r3, [r5, #7]
 8007dca:	b123      	cbz	r3, 8007dd6 <dhcp_handle_ack.isra.0+0x4e>
 8007dcc:	4b07      	ldr	r3, [pc, #28]	; (8007dec <dhcp_handle_ack.isra.0+0x64>)
 8007dce:	69d8      	ldr	r0, [r3, #28]
 8007dd0:	f7fb f96d 	bl	80030ae <lwip_htonl>
 8007dd4:	6260      	str	r0, [r4, #36]	; 0x24
 8007dd6:	bd38      	pop	{r3, r4, r5, pc}
 8007dd8:	6aa3      	ldr	r3, [r4, #40]	; 0x28
 8007dda:	085b      	lsrs	r3, r3, #1
 8007ddc:	e7e3      	b.n	8007da6 <dhcp_handle_ack.isra.0+0x1e>
 8007dde:	6aa3      	ldr	r3, [r4, #40]	; 0x28
 8007de0:	ebc3 03c3 	rsb	r3, r3, r3, lsl #3
 8007de4:	08db      	lsrs	r3, r3, #3
 8007de6:	e7e3      	b.n	8007db0 <dhcp_handle_ack.isra.0+0x28>
 8007de8:	20005d69 	.word	0x20005d69
 8007dec:	20005d74 	.word	0x20005d74

08007df0 <dhcp_select.isra.0>:
 8007df0:	e92d 43f0 	stmdb	sp!, {r4, r5, r6, r7, r8, r9, lr}
 8007df4:	4607      	mov	r7, r0
 8007df6:	b085      	sub	sp, #20
 8007df8:	b948      	cbnz	r0, 8007e0e <dhcp_select.isra.0+0x1e>
 8007dfa:	4b4e      	ldr	r3, [pc, #312]	; (8007f34 <dhcp_select.isra.0+0x144>)
 8007dfc:	f240 1277 	movw	r2, #375	; 0x177
 8007e00:	494d      	ldr	r1, [pc, #308]	; (8007f38 <dhcp_select.isra.0+0x148>)
 8007e02:	484e      	ldr	r0, [pc, #312]	; (8007f3c <dhcp_select.isra.0+0x14c>)
 8007e04:	b005      	add	sp, #20
 8007e06:	e8bd 43f0 	ldmia.w	sp!, {r4, r5, r6, r7, r8, r9, lr}
 8007e0a:	f002 b82f 	b.w	8009e6c <iprintf>
 8007e0e:	6a44      	ldr	r4, [r0, #36]	; 0x24
 8007e10:	b924      	cbnz	r4, 8007e1c <dhcp_select.isra.0+0x2c>
 8007e12:	4b48      	ldr	r3, [pc, #288]	; (8007f34 <dhcp_select.isra.0+0x144>)
 8007e14:	f240 1279 	movw	r2, #377	; 0x179
 8007e18:	4949      	ldr	r1, [pc, #292]	; (8007f40 <dhcp_select.isra.0+0x150>)
 8007e1a:	e7f2      	b.n	8007e02 <dhcp_select.isra.0+0x12>
 8007e1c:	2101      	movs	r1, #1
 8007e1e:	4620      	mov	r0, r4
 8007e20:	f7ff fc8e 	bl	8007740 <dhcp_set_state>
 8007e24:	2203      	movs	r2, #3
 8007e26:	f10d 030e 	add.w	r3, sp, #14
 8007e2a:	4621      	mov	r1, r4
 8007e2c:	4638      	mov	r0, r7
 8007e2e:	f7ff fd05 	bl	800783c <dhcp_create_msg>
 8007e32:	4606      	mov	r6, r0
 8007e34:	2800      	cmp	r0, #0
 8007e36:	d05e      	beq.n	8007ef6 <dhcp_select.isra.0+0x106>
 8007e38:	6845      	ldr	r5, [r0, #4]
 8007e3a:	2302      	movs	r3, #2
 8007e3c:	2239      	movs	r2, #57	; 0x39
 8007e3e:	f8bd 000e 	ldrh.w	r0, [sp, #14]
 8007e42:	35f0      	adds	r5, #240	; 0xf0
 8007e44:	f8df 9108 	ldr.w	r9, [pc, #264]	; 8007f50 <dhcp_select.isra.0+0x160>
 8007e48:	4629      	mov	r1, r5
 8007e4a:	f7ff fc9d 	bl	8007788 <dhcp_option>
 8007e4e:	8d3a      	ldrh	r2, [r7, #40]	; 0x28
 8007e50:	4629      	mov	r1, r5
 8007e52:	f8ad 000e 	strh.w	r0, [sp, #14]
 8007e56:	f7ff fc7b 	bl	8007750 <dhcp_option_short>
 8007e5a:	2304      	movs	r3, #4
 8007e5c:	2232      	movs	r2, #50	; 0x32
 8007e5e:	4629      	mov	r1, r5
 8007e60:	f8ad 000e 	strh.w	r0, [sp, #14]
 8007e64:	f7ff fc90 	bl	8007788 <dhcp_option>
 8007e68:	4680      	mov	r8, r0
 8007e6a:	f8ad 000e 	strh.w	r0, [sp, #14]
 8007e6e:	69e0      	ldr	r0, [r4, #28]
 8007e70:	f7fb f91d 	bl	80030ae <lwip_htonl>
 8007e74:	4629      	mov	r1, r5
 8007e76:	4602      	mov	r2, r0
 8007e78:	4640      	mov	r0, r8
 8007e7a:	f7ff fcbb 	bl	80077f4 <dhcp_option_long>
 8007e7e:	2304      	movs	r3, #4
 8007e80:	2236      	movs	r2, #54	; 0x36
 8007e82:	4629      	mov	r1, r5
 8007e84:	f8ad 000e 	strh.w	r0, [sp, #14]
 8007e88:	f7ff fc7e 	bl	8007788 <dhcp_option>
 8007e8c:	4680      	mov	r8, r0
 8007e8e:	f8ad 000e 	strh.w	r0, [sp, #14]
 8007e92:	69a0      	ldr	r0, [r4, #24]
 8007e94:	f7fb f90b 	bl	80030ae <lwip_htonl>
 8007e98:	4629      	mov	r1, r5
 8007e9a:	4602      	mov	r2, r0
 8007e9c:	4640      	mov	r0, r8
 8007e9e:	f04f 0803 	mov.w	r8, #3
 8007ea2:	f7ff fca7 	bl	80077f4 <dhcp_option_long>
 8007ea6:	2303      	movs	r3, #3
 8007ea8:	2237      	movs	r2, #55	; 0x37
 8007eaa:	4629      	mov	r1, r5
 8007eac:	f8ad 000e 	strh.w	r0, [sp, #14]
 8007eb0:	f7ff fc6a 	bl	8007788 <dhcp_option>
 8007eb4:	f8ad 000e 	strh.w	r0, [sp, #14]
 8007eb8:	f108 38ff 	add.w	r8, r8, #4294967295
 8007ebc:	f819 2b01 	ldrb.w	r2, [r9], #1
 8007ec0:	4629      	mov	r1, r5
 8007ec2:	f8bd 000e 	ldrh.w	r0, [sp, #14]
 8007ec6:	f7ff fc7d 	bl	80077c4 <dhcp_option_byte>
 8007eca:	f018 08ff 	ands.w	r8, r8, #255	; 0xff
 8007ece:	f8ad 000e 	strh.w	r0, [sp, #14]
 8007ed2:	d1f1      	bne.n	8007eb8 <dhcp_select.isra.0+0xc8>
 8007ed4:	4632      	mov	r2, r6
 8007ed6:	4629      	mov	r1, r5
 8007ed8:	f7ff fd44 	bl	8007964 <dhcp_option_trailer>
 8007edc:	4b19      	ldr	r3, [pc, #100]	; (8007f44 <dhcp_select.isra.0+0x154>)
 8007ede:	481a      	ldr	r0, [pc, #104]	; (8007f48 <dhcp_select.isra.0+0x158>)
 8007ee0:	4631      	mov	r1, r6
 8007ee2:	4a1a      	ldr	r2, [pc, #104]	; (8007f4c <dhcp_select.isra.0+0x15c>)
 8007ee4:	e9cd 7300 	strd	r7, r3, [sp]
 8007ee8:	2343      	movs	r3, #67	; 0x43
 8007eea:	6800      	ldr	r0, [r0, #0]
 8007eec:	f7ff fab8 	bl	8007460 <udp_sendto_if_src>
 8007ef0:	4630      	mov	r0, r6
 8007ef2:	f7fb fdb5 	bl	8003a60 <pbuf_free>
 8007ef6:	79a3      	ldrb	r3, [r4, #6]
 8007ef8:	2bff      	cmp	r3, #255	; 0xff
 8007efa:	bf1c      	itt	ne
 8007efc:	3301      	addne	r3, #1
 8007efe:	71a3      	strbne	r3, [r4, #6]
 8007f00:	79a2      	ldrb	r2, [r4, #6]
 8007f02:	2a05      	cmp	r2, #5
 8007f04:	bf97      	itett	ls
 8007f06:	2301      	movls	r3, #1
 8007f08:	f64e 2360 	movwhi	r3, #60000	; 0xea60
 8007f0c:	4093      	lslls	r3, r2
 8007f0e:	ebc3 1243 	rsbls	r2, r3, r3, lsl #5
 8007f12:	bf98      	it	ls
 8007f14:	eb03 0382 	addls.w	r3, r3, r2, lsl #2
 8007f18:	f44f 72fa 	mov.w	r2, #500	; 0x1f4
 8007f1c:	bf9c      	itt	ls
 8007f1e:	00db      	lslls	r3, r3, #3
 8007f20:	b29b      	uxthls	r3, r3
 8007f22:	f203 13f3 	addw	r3, r3, #499	; 0x1f3
 8007f26:	b29b      	uxth	r3, r3
 8007f28:	fbb3 f3f2 	udiv	r3, r3, r2
 8007f2c:	8123      	strh	r3, [r4, #8]
 8007f2e:	b005      	add	sp, #20
 8007f30:	e8bd 83f0 	ldmia.w	sp!, {r4, r5, r6, r7, r8, r9, pc}
 8007f34:	0800c695 	.word	0x0800c695
 8007f38:	0800c8ad 	.word	0x0800c8ad
 8007f3c:	0800af68 	.word	0x0800af68
 8007f40:	0800c8c8 	.word	0x0800c8c8
 8007f44:	0800cc58 	.word	0x0800cc58
 8007f48:	20005d64 	.word	0x20005d64
 8007f4c:	0800cc5c 	.word	0x0800cc5c
 8007f50:	0800c999 	.word	0x0800c999

08007f54 <dhcp_recv>:
 8007f54:	4b9e      	ldr	r3, [pc, #632]	; (80081d0 <dhcp_recv+0x27c>)
 8007f56:	e92d 4ff0 	stmdb	sp!, {r4, r5, r6, r7, r8, r9, sl, fp, lr}
 8007f5a:	685d      	ldr	r5, [r3, #4]
 8007f5c:	b089      	sub	sp, #36	; 0x24
 8007f5e:	6a6b      	ldr	r3, [r5, #36]	; 0x24
 8007f60:	9201      	str	r2, [sp, #4]
 8007f62:	9302      	str	r3, [sp, #8]
 8007f64:	2b00      	cmp	r3, #0
 8007f66:	d03c      	beq.n	8007fe2 <dhcp_recv+0x8e>
 8007f68:	791b      	ldrb	r3, [r3, #4]
 8007f6a:	2b00      	cmp	r3, #0
 8007f6c:	d039      	beq.n	8007fe2 <dhcp_recv+0x8e>
 8007f6e:	8953      	ldrh	r3, [r2, #10]
 8007f70:	2b2b      	cmp	r3, #43	; 0x2b
 8007f72:	d936      	bls.n	8007fe2 <dhcp_recv+0x8e>
 8007f74:	6852      	ldr	r2, [r2, #4]
 8007f76:	7813      	ldrb	r3, [r2, #0]
 8007f78:	2b02      	cmp	r3, #2
 8007f7a:	d132      	bne.n	8007fe2 <dhcp_recv+0x8e>
 8007f7c:	f895 4030 	ldrb.w	r4, [r5, #48]	; 0x30
 8007f80:	f105 002a 	add.w	r0, r5, #42	; 0x2a
 8007f84:	f102 011c 	add.w	r1, r2, #28
 8007f88:	2300      	movs	r3, #0
 8007f8a:	b2de      	uxtb	r6, r3
 8007f8c:	42b4      	cmp	r4, r6
 8007f8e:	d901      	bls.n	8007f94 <dhcp_recv+0x40>
 8007f90:	2b06      	cmp	r3, #6
 8007f92:	d11f      	bne.n	8007fd4 <dhcp_recv+0x80>
 8007f94:	6850      	ldr	r0, [r2, #4]
 8007f96:	f7fb f88a 	bl	80030ae <lwip_htonl>
 8007f9a:	9b02      	ldr	r3, [sp, #8]
 8007f9c:	681b      	ldr	r3, [r3, #0]
 8007f9e:	4298      	cmp	r0, r3
 8007fa0:	d11f      	bne.n	8007fe2 <dhcp_recv+0x8e>
 8007fa2:	f8df b258 	ldr.w	fp, [pc, #600]	; 80081fc <dhcp_recv+0x2a8>
 8007fa6:	2300      	movs	r3, #0
 8007fa8:	9a01      	ldr	r2, [sp, #4]
 8007faa:	f8cb 3004 	str.w	r3, [fp, #4]
 8007fae:	8952      	ldrh	r2, [r2, #10]
 8007fb0:	f8cb 3000 	str.w	r3, [fp]
 8007fb4:	2a2b      	cmp	r2, #43	; 0x2b
 8007fb6:	d914      	bls.n	8007fe2 <dhcp_recv+0x8e>
 8007fb8:	9a01      	ldr	r2, [sp, #4]
 8007fba:	f04f 0af0 	mov.w	sl, #240	; 0xf0
 8007fbe:	9303      	str	r3, [sp, #12]
 8007fc0:	f8b2 9008 	ldrh.w	r9, [r2, #8]
 8007fc4:	9e01      	ldr	r6, [sp, #4]
 8007fc6:	8973      	ldrh	r3, [r6, #10]
 8007fc8:	4553      	cmp	r3, sl
 8007fca:	d910      	bls.n	8007fee <dhcp_recv+0x9a>
 8007fcc:	6873      	ldr	r3, [r6, #4]
 8007fce:	4654      	mov	r4, sl
 8007fd0:	9305      	str	r3, [sp, #20]
 8007fd2:	e0d5      	b.n	8008180 <dhcp_recv+0x22c>
 8007fd4:	f810 7b01 	ldrb.w	r7, [r0], #1
 8007fd8:	3301      	adds	r3, #1
 8007fda:	f811 6b01 	ldrb.w	r6, [r1], #1
 8007fde:	42b7      	cmp	r7, r6
 8007fe0:	d0d3      	beq.n	8007f8a <dhcp_recv+0x36>
 8007fe2:	9801      	ldr	r0, [sp, #4]
 8007fe4:	b009      	add	sp, #36	; 0x24
 8007fe6:	e8bd 4ff0 	ldmia.w	sp!, {r4, r5, r6, r7, r8, r9, sl, fp, lr}
 8007fea:	f7fb bd39 	b.w	8003a60 <pbuf_free>
 8007fee:	ebaa 0203 	sub.w	r2, sl, r3
 8007ff2:	eba9 0903 	sub.w	r9, r9, r3
 8007ff6:	6836      	ldr	r6, [r6, #0]
 8007ff8:	fa1f fa82 	uxth.w	sl, r2
 8007ffc:	fa1f f989 	uxth.w	r9, r9
 8008000:	2e00      	cmp	r6, #0
 8008002:	d1e0      	bne.n	8007fc6 <dhcp_recv+0x72>
 8008004:	e7ed      	b.n	8007fe2 <dhcp_recv+0x8e>
 8008006:	1ca3      	adds	r3, r4, #2
 8008008:	b29b      	uxth	r3, r3
 800800a:	42a3      	cmp	r3, r4
 800800c:	9304      	str	r3, [sp, #16]
 800800e:	d3e8      	bcc.n	8007fe2 <dhcp_recv+0x8e>
 8008010:	1c60      	adds	r0, r4, #1
 8008012:	8973      	ldrh	r3, [r6, #10]
 8008014:	4298      	cmp	r0, r3
 8008016:	da16      	bge.n	8008046 <dhcp_recv+0xf2>
 8008018:	9b05      	ldr	r3, [sp, #20]
 800801a:	4423      	add	r3, r4
 800801c:	785b      	ldrb	r3, [r3, #1]
 800801e:	2a3b      	cmp	r2, #59	; 0x3b
 8008020:	d854      	bhi.n	80080cc <dhcp_recv+0x178>
 8008022:	2a32      	cmp	r2, #50	; 0x32
 8008024:	f200 8185 	bhi.w	8008332 <dhcp_recv+0x3de>
 8008028:	2a01      	cmp	r2, #1
 800802a:	d013      	beq.n	8008054 <dhcp_recv+0x100>
 800802c:	2a03      	cmp	r2, #3
 800802e:	d14d      	bne.n	80080cc <dhcp_recv+0x178>
 8008030:	2b03      	cmp	r3, #3
 8008032:	f200 8167 	bhi.w	8008304 <dhcp_recv+0x3b0>
 8008036:	4b67      	ldr	r3, [pc, #412]	; (80081d4 <dhcp_recv+0x280>)
 8008038:	f240 6233 	movw	r2, #1587	; 0x633
 800803c:	4966      	ldr	r1, [pc, #408]	; (80081d8 <dhcp_recv+0x284>)
 800803e:	4867      	ldr	r0, [pc, #412]	; (80081dc <dhcp_recv+0x288>)
 8008040:	f001 ff14 	bl	8009e6c <iprintf>
 8008044:	e7cd      	b.n	8007fe2 <dhcp_recv+0x8e>
 8008046:	6833      	ldr	r3, [r6, #0]
 8008048:	2b00      	cmp	r3, #0
 800804a:	f000 8131 	beq.w	80082b0 <dhcp_recv+0x35c>
 800804e:	685b      	ldr	r3, [r3, #4]
 8008050:	781b      	ldrb	r3, [r3, #0]
 8008052:	e7e4      	b.n	800801e <dhcp_recv+0xca>
 8008054:	2b04      	cmp	r3, #4
 8008056:	f000 8151 	beq.w	80082fc <dhcp_recv+0x3a8>
 800805a:	4b5e      	ldr	r3, [pc, #376]	; (80081d4 <dhcp_recv+0x280>)
 800805c:	f240 622e 	movw	r2, #1582	; 0x62e
 8008060:	495f      	ldr	r1, [pc, #380]	; (80081e0 <dhcp_recv+0x28c>)
 8008062:	e7ec      	b.n	800803e <dhcp_recv+0xea>
 8008064:	2b04      	cmp	r3, #4
 8008066:	f000 8151 	beq.w	800830c <dhcp_recv+0x3b8>
 800806a:	4b5a      	ldr	r3, [pc, #360]	; (80081d4 <dhcp_recv+0x280>)
 800806c:	f240 6241 	movw	r2, #1601	; 0x641
 8008070:	e7f6      	b.n	8008060 <dhcp_recv+0x10c>
 8008072:	2b01      	cmp	r3, #1
 8008074:	d004      	beq.n	8008080 <dhcp_recv+0x12c>
 8008076:	4b57      	ldr	r3, [pc, #348]	; (80081d4 <dhcp_recv+0x280>)
 8008078:	f240 624f 	movw	r2, #1615	; 0x64f
 800807c:	4959      	ldr	r1, [pc, #356]	; (80081e4 <dhcp_recv+0x290>)
 800807e:	e7de      	b.n	800803e <dhcp_recv+0xea>
 8008080:	f1ba 0ff0 	cmp.w	sl, #240	; 0xf0
 8008084:	f000 8146 	beq.w	8008314 <dhcp_recv+0x3c0>
 8008088:	4b52      	ldr	r3, [pc, #328]	; (80081d4 <dhcp_recv+0x280>)
 800808a:	f240 6251 	movw	r2, #1617	; 0x651
 800808e:	4956      	ldr	r1, [pc, #344]	; (80081e8 <dhcp_recv+0x294>)
 8008090:	e7d5      	b.n	800803e <dhcp_recv+0xea>
 8008092:	2b01      	cmp	r3, #1
 8008094:	f000 8146 	beq.w	8008324 <dhcp_recv+0x3d0>
 8008098:	4b4e      	ldr	r3, [pc, #312]	; (80081d4 <dhcp_recv+0x280>)
 800809a:	f240 6255 	movw	r2, #1621	; 0x655
 800809e:	e7ed      	b.n	800807c <dhcp_recv+0x128>
 80080a0:	2b04      	cmp	r3, #4
 80080a2:	f000 813b 	beq.w	800831c <dhcp_recv+0x3c8>
 80080a6:	4b4b      	ldr	r3, [pc, #300]	; (80081d4 <dhcp_recv+0x280>)
 80080a8:	f240 6259 	movw	r2, #1625	; 0x659
 80080ac:	e7d8      	b.n	8008060 <dhcp_recv+0x10c>
 80080ae:	2b04      	cmp	r3, #4
 80080b0:	f000 8138 	beq.w	8008324 <dhcp_recv+0x3d0>
 80080b4:	4b47      	ldr	r3, [pc, #284]	; (80081d4 <dhcp_recv+0x280>)
 80080b6:	f240 625d 	movw	r2, #1629	; 0x65d
 80080ba:	e7d1      	b.n	8008060 <dhcp_recv+0x10c>
 80080bc:	2b04      	cmp	r3, #4
 80080be:	f000 8134 	beq.w	800832a <dhcp_recv+0x3d6>
 80080c2:	4b44      	ldr	r3, [pc, #272]	; (80081d4 <dhcp_recv+0x280>)
 80080c4:	f240 6261 	movw	r2, #1633	; 0x661
 80080c8:	e7ca      	b.n	8008060 <dhcp_recv+0x10c>
 80080ca:	2300      	movs	r3, #0
 80080cc:	b9a2      	cbnz	r2, 80080f8 <dhcp_recv+0x1a4>
 80080ce:	b284      	uxth	r4, r0
 80080d0:	8973      	ldrh	r3, [r6, #10]
 80080d2:	42a3      	cmp	r3, r4
 80080d4:	d854      	bhi.n	8008180 <dhcp_recv+0x22c>
 80080d6:	1ae4      	subs	r4, r4, r3
 80080d8:	eba9 0903 	sub.w	r9, r9, r3
 80080dc:	b2a4      	uxth	r4, r4
 80080de:	fa1f f989 	uxth.w	r9, r9
 80080e2:	454c      	cmp	r4, r9
 80080e4:	f4bf af7d 	bcs.w	8007fe2 <dhcp_recv+0x8e>
 80080e8:	6836      	ldr	r6, [r6, #0]
 80080ea:	2e00      	cmp	r6, #0
 80080ec:	d146      	bne.n	800817c <dhcp_recv+0x228>
 80080ee:	4b39      	ldr	r3, [pc, #228]	; (80081d4 <dhcp_recv+0x280>)
 80080f0:	f240 629d 	movw	r2, #1693	; 0x69d
 80080f4:	493d      	ldr	r1, [pc, #244]	; (80081ec <dhcp_recv+0x298>)
 80080f6:	e7a2      	b.n	800803e <dhcp_recv+0xea>
 80080f8:	f04f 38ff 	mov.w	r8, #4294967295
 80080fc:	2700      	movs	r7, #0
 80080fe:	441c      	add	r4, r3
 8008100:	f64f 72fd 	movw	r2, #65533	; 0xfffd
 8008104:	4294      	cmp	r4, r2
 8008106:	f73f af6c 	bgt.w	8007fe2 <dhcp_recv+0x8e>
 800810a:	9a04      	ldr	r2, [sp, #16]
 800810c:	4413      	add	r3, r2
 800810e:	b29c      	uxth	r4, r3
 8008110:	2f00      	cmp	r7, #0
 8008112:	d0dd      	beq.n	80080d0 <dhcp_recv+0x17c>
 8008114:	2300      	movs	r3, #0
 8008116:	f1b8 0f07 	cmp.w	r8, #7
 800811a:	9307      	str	r3, [sp, #28]
 800811c:	d906      	bls.n	800812c <dhcp_recv+0x1d8>
 800811e:	4b2d      	ldr	r3, [pc, #180]	; (80081d4 <dhcp_recv+0x280>)
 8008120:	f44f 62cf 	mov.w	r2, #1656	; 0x678
 8008124:	4932      	ldr	r1, [pc, #200]	; (80081f0 <dhcp_recv+0x29c>)
 8008126:	482d      	ldr	r0, [pc, #180]	; (80081dc <dhcp_recv+0x288>)
 8008128:	f001 fea0 	bl	8009e6c <iprintf>
 800812c:	f81b 3008 	ldrb.w	r3, [fp, r8]
 8008130:	2b00      	cmp	r3, #0
 8008132:	d1cd      	bne.n	80080d0 <dhcp_recv+0x17c>
 8008134:	b2ba      	uxth	r2, r7
 8008136:	9b04      	ldr	r3, [sp, #16]
 8008138:	a907      	add	r1, sp, #28
 800813a:	4630      	mov	r0, r6
 800813c:	9204      	str	r2, [sp, #16]
 800813e:	f7fb fead 	bl	8003e9c <pbuf_copy_partial>
 8008142:	9a04      	ldr	r2, [sp, #16]
 8008144:	4282      	cmp	r2, r0
 8008146:	f47f af4c 	bne.w	8007fe2 <dhcp_recv+0x8e>
 800814a:	2f04      	cmp	r7, #4
 800814c:	d10b      	bne.n	8008166 <dhcp_recv+0x212>
 800814e:	9807      	ldr	r0, [sp, #28]
 8008150:	f7fa ffad 	bl	80030ae <lwip_htonl>
 8008154:	9007      	str	r0, [sp, #28]
 8008156:	2301      	movs	r3, #1
 8008158:	4a26      	ldr	r2, [pc, #152]	; (80081f4 <dhcp_recv+0x2a0>)
 800815a:	f80b 3008 	strb.w	r3, [fp, r8]
 800815e:	9b07      	ldr	r3, [sp, #28]
 8008160:	f842 3028 	str.w	r3, [r2, r8, lsl #2]
 8008164:	e7b4      	b.n	80080d0 <dhcp_recv+0x17c>
 8008166:	2f01      	cmp	r7, #1
 8008168:	d004      	beq.n	8008174 <dhcp_recv+0x220>
 800816a:	4b1a      	ldr	r3, [pc, #104]	; (80081d4 <dhcp_recv+0x280>)
 800816c:	f44f 62d2 	mov.w	r2, #1680	; 0x690
 8008170:	4921      	ldr	r1, [pc, #132]	; (80081f8 <dhcp_recv+0x2a4>)
 8008172:	e764      	b.n	800803e <dhcp_recv+0xea>
 8008174:	f89d 301c 	ldrb.w	r3, [sp, #28]
 8008178:	9307      	str	r3, [sp, #28]
 800817a:	e7ec      	b.n	8008156 <dhcp_recv+0x202>
 800817c:	6873      	ldr	r3, [r6, #4]
 800817e:	9305      	str	r3, [sp, #20]
 8008180:	454c      	cmp	r4, r9
 8008182:	d204      	bcs.n	800818e <dhcp_recv+0x23a>
 8008184:	9b05      	ldr	r3, [sp, #20]
 8008186:	5d1a      	ldrb	r2, [r3, r4]
 8008188:	2aff      	cmp	r2, #255	; 0xff
 800818a:	f47f af3c 	bne.w	8008006 <dhcp_recv+0xb2>
 800818e:	f89b 3000 	ldrb.w	r3, [fp]
 8008192:	2b00      	cmp	r3, #0
 8008194:	d134      	bne.n	8008200 <dhcp_recv+0x2ac>
 8008196:	9b03      	ldr	r3, [sp, #12]
 8008198:	2b00      	cmp	r3, #0
 800819a:	d13a      	bne.n	8008212 <dhcp_recv+0x2be>
 800819c:	f89b 3001 	ldrb.w	r3, [fp, #1]
 80081a0:	2b00      	cmp	r3, #0
 80081a2:	f43f af1e 	beq.w	8007fe2 <dhcp_recv+0x8e>
 80081a6:	9b01      	ldr	r3, [sp, #4]
 80081a8:	4a12      	ldr	r2, [pc, #72]	; (80081f4 <dhcp_recv+0x2a0>)
 80081aa:	6859      	ldr	r1, [r3, #4]
 80081ac:	7913      	ldrb	r3, [r2, #4]
 80081ae:	2b05      	cmp	r3, #5
 80081b0:	d14a      	bne.n	8008248 <dhcp_recv+0x2f4>
 80081b2:	9b02      	ldr	r3, [sp, #8]
 80081b4:	795b      	ldrb	r3, [r3, #5]
 80081b6:	2b01      	cmp	r3, #1
 80081b8:	d13b      	bne.n	8008232 <dhcp_recv+0x2de>
 80081ba:	6a68      	ldr	r0, [r5, #36]	; 0x24
 80081bc:	f7ff fde4 	bl	8007d88 <dhcp_handle_ack.isra.0>
 80081c0:	f895 3031 	ldrb.w	r3, [r5, #49]	; 0x31
 80081c4:	4628      	mov	r0, r5
 80081c6:	071b      	lsls	r3, r3, #28
 80081c8:	d53b      	bpl.n	8008242 <dhcp_recv+0x2ee>
 80081ca:	f7ff fc63 	bl	8007a94 <dhcp_check>
 80081ce:	e708      	b.n	8007fe2 <dhcp_recv+0x8e>
 80081d0:	200005b0 	.word	0x200005b0
 80081d4:	0800c695 	.word	0x0800c695
 80081d8:	0800c8eb 	.word	0x0800c8eb
 80081dc:	0800af68 	.word	0x0800af68
 80081e0:	0800c8e2 	.word	0x0800c8e2
 80081e4:	0800c8fd 	.word	0x0800c8fd
 80081e8:	0800c906 	.word	0x0800c906
 80081ec:	0800c941 	.word	0x0800c941
 80081f0:	0800c91d 	.word	0x0800c91d
 80081f4:	20005d74 	.word	0x20005d74
 80081f8:	0800c92e 	.word	0x0800c92e
 80081fc:	20005d69 	.word	0x20005d69
 8008200:	4b59      	ldr	r3, [pc, #356]	; (8008368 <dhcp_recv+0x414>)
 8008202:	2200      	movs	r2, #0
 8008204:	681b      	ldr	r3, [r3, #0]
 8008206:	f88b 2000 	strb.w	r2, [fp]
 800820a:	2b01      	cmp	r3, #1
 800820c:	d00c      	beq.n	8008228 <dhcp_recv+0x2d4>
 800820e:	2b02      	cmp	r3, #2
 8008210:	d106      	bne.n	8008220 <dhcp_recv+0x2cc>
 8008212:	2300      	movs	r3, #0
 8008214:	f04f 096c 	mov.w	r9, #108	; 0x6c
 8008218:	f04f 0a2c 	mov.w	sl, #44	; 0x2c
 800821c:	9303      	str	r3, [sp, #12]
 800821e:	e6d1      	b.n	8007fc4 <dhcp_recv+0x70>
 8008220:	2b03      	cmp	r3, #3
 8008222:	d1b8      	bne.n	8008196 <dhcp_recv+0x242>
 8008224:	2301      	movs	r3, #1
 8008226:	9303      	str	r3, [sp, #12]
 8008228:	f04f 09ec 	mov.w	r9, #236	; 0xec
 800822c:	f04f 0a6c 	mov.w	sl, #108	; 0x6c
 8008230:	e6c8      	b.n	8007fc4 <dhcp_recv+0x70>
 8008232:	3b03      	subs	r3, #3
 8008234:	2b02      	cmp	r3, #2
 8008236:	f63f aed4 	bhi.w	8007fe2 <dhcp_recv+0x8e>
 800823a:	6a68      	ldr	r0, [r5, #36]	; 0x24
 800823c:	f7ff fda4 	bl	8007d88 <dhcp_handle_ack.isra.0>
 8008240:	4628      	mov	r0, r5
 8008242:	f7ff fc3d 	bl	8007ac0 <dhcp_bind>
 8008246:	e6cc      	b.n	8007fe2 <dhcp_recv+0x8e>
 8008248:	2b06      	cmp	r3, #6
 800824a:	d115      	bne.n	8008278 <dhcp_recv+0x324>
 800824c:	9b02      	ldr	r3, [sp, #8]
 800824e:	795b      	ldrb	r3, [r3, #5]
 8008250:	1eda      	subs	r2, r3, #3
 8008252:	2a02      	cmp	r2, #2
 8008254:	d902      	bls.n	800825c <dhcp_recv+0x308>
 8008256:	2b01      	cmp	r3, #1
 8008258:	f47f aec3 	bne.w	8007fe2 <dhcp_recv+0x8e>
 800825c:	6a68      	ldr	r0, [r5, #36]	; 0x24
 800825e:	210c      	movs	r1, #12
 8008260:	f7ff fa6e 	bl	8007740 <dhcp_set_state>
 8008264:	4b41      	ldr	r3, [pc, #260]	; (800836c <dhcp_recv+0x418>)
 8008266:	4628      	mov	r0, r5
 8008268:	461a      	mov	r2, r3
 800826a:	4619      	mov	r1, r3
 800826c:	f7fb fa2a 	bl	80036c4 <netif_set_addr>
 8008270:	4628      	mov	r0, r5
 8008272:	f7ff fb97 	bl	80079a4 <dhcp_discover>
 8008276:	e6b4      	b.n	8007fe2 <dhcp_recv+0x8e>
 8008278:	2b02      	cmp	r3, #2
 800827a:	f47f aeb2 	bne.w	8007fe2 <dhcp_recv+0x8e>
 800827e:	9b02      	ldr	r3, [sp, #8]
 8008280:	795b      	ldrb	r3, [r3, #5]
 8008282:	2b06      	cmp	r3, #6
 8008284:	f47f aead 	bne.w	8007fe2 <dhcp_recv+0x8e>
 8008288:	f89b 3002 	ldrb.w	r3, [fp, #2]
 800828c:	2b00      	cmp	r3, #0
 800828e:	f43f aea8 	beq.w	8007fe2 <dhcp_recv+0x8e>
 8008292:	6a6c      	ldr	r4, [r5, #36]	; 0x24
 8008294:	9b03      	ldr	r3, [sp, #12]
 8008296:	6890      	ldr	r0, [r2, #8]
 8008298:	8123      	strh	r3, [r4, #8]
 800829a:	9102      	str	r1, [sp, #8]
 800829c:	f7fa ff07 	bl	80030ae <lwip_htonl>
 80082a0:	9902      	ldr	r1, [sp, #8]
 80082a2:	61a0      	str	r0, [r4, #24]
 80082a4:	4628      	mov	r0, r5
 80082a6:	690b      	ldr	r3, [r1, #16]
 80082a8:	61e3      	str	r3, [r4, #28]
 80082aa:	f7ff fda1 	bl	8007df0 <dhcp_select.isra.0>
 80082ae:	e698      	b.n	8007fe2 <dhcp_recv+0x8e>
 80082b0:	2a3b      	cmp	r2, #59	; 0x3b
 80082b2:	f63f af0b 	bhi.w	80080cc <dhcp_recv+0x178>
 80082b6:	2a32      	cmp	r2, #50	; 0x32
 80082b8:	d806      	bhi.n	80082c8 <dhcp_recv+0x374>
 80082ba:	2a01      	cmp	r2, #1
 80082bc:	f43f aecd 	beq.w	800805a <dhcp_recv+0x106>
 80082c0:	2a03      	cmp	r2, #3
 80082c2:	f43f aeb8 	beq.w	8008036 <dhcp_recv+0xe2>
 80082c6:	e701      	b.n	80080cc <dhcp_recv+0x178>
 80082c8:	f1a2 0333 	sub.w	r3, r2, #51	; 0x33
 80082cc:	2b08      	cmp	r3, #8
 80082ce:	f63f aefc 	bhi.w	80080ca <dhcp_recv+0x176>
 80082d2:	a101      	add	r1, pc, #4	; (adr r1, 80082d8 <dhcp_recv+0x384>)
 80082d4:	f851 f023 	ldr.w	pc, [r1, r3, lsl #2]
 80082d8:	0800806b 	.word	0x0800806b
 80082dc:	08008077 	.word	0x08008077
 80082e0:	08008099 	.word	0x08008099
 80082e4:	080080a7 	.word	0x080080a7
 80082e8:	080080cb 	.word	0x080080cb
 80082ec:	080080cb 	.word	0x080080cb
 80082f0:	080080cb 	.word	0x080080cb
 80082f4:	080080b5 	.word	0x080080b5
 80082f8:	080080c3 	.word	0x080080c3
 80082fc:	461f      	mov	r7, r3
 80082fe:	f04f 0806 	mov.w	r8, #6
 8008302:	e6fc      	b.n	80080fe <dhcp_recv+0x1aa>
 8008304:	f04f 0807 	mov.w	r8, #7
 8008308:	2704      	movs	r7, #4
 800830a:	e6f8      	b.n	80080fe <dhcp_recv+0x1aa>
 800830c:	461f      	mov	r7, r3
 800830e:	f04f 0803 	mov.w	r8, #3
 8008312:	e6f4      	b.n	80080fe <dhcp_recv+0x1aa>
 8008314:	461f      	mov	r7, r3
 8008316:	f04f 0800 	mov.w	r8, #0
 800831a:	e6f0      	b.n	80080fe <dhcp_recv+0x1aa>
 800831c:	461f      	mov	r7, r3
 800831e:	f04f 0802 	mov.w	r8, #2
 8008322:	e6ec      	b.n	80080fe <dhcp_recv+0x1aa>
 8008324:	461f      	mov	r7, r3
 8008326:	4698      	mov	r8, r3
 8008328:	e6e9      	b.n	80080fe <dhcp_recv+0x1aa>
 800832a:	461f      	mov	r7, r3
 800832c:	f04f 0805 	mov.w	r8, #5
 8008330:	e6e5      	b.n	80080fe <dhcp_recv+0x1aa>
 8008332:	f1a2 0133 	sub.w	r1, r2, #51	; 0x33
 8008336:	2908      	cmp	r1, #8
 8008338:	f63f aec8 	bhi.w	80080cc <dhcp_recv+0x178>
 800833c:	a701      	add	r7, pc, #4	; (adr r7, 8008344 <dhcp_recv+0x3f0>)
 800833e:	f857 f021 	ldr.w	pc, [r7, r1, lsl #2]
 8008342:	bf00      	nop
 8008344:	08008065 	.word	0x08008065
 8008348:	08008073 	.word	0x08008073
 800834c:	08008093 	.word	0x08008093
 8008350:	080080a1 	.word	0x080080a1
 8008354:	080080cd 	.word	0x080080cd
 8008358:	080080cd 	.word	0x080080cd
 800835c:	080080cd 	.word	0x080080cd
 8008360:	080080af 	.word	0x080080af
 8008364:	080080bd 	.word	0x080080bd
 8008368:	20005d74 	.word	0x20005d74
 800836c:	0800cc58 	.word	0x0800cc58

08008370 <dhcp_arp_reply>:
 8008370:	b5f0      	push	{r4, r5, r6, r7, lr}
 8008372:	4606      	mov	r6, r0
 8008374:	b087      	sub	sp, #28
 8008376:	b948      	cbnz	r0, 800838c <dhcp_arp_reply+0x1c>
 8008378:	4b28      	ldr	r3, [pc, #160]	; (800841c <dhcp_arp_reply+0xac>)
 800837a:	f240 328b 	movw	r2, #907	; 0x38b
 800837e:	4928      	ldr	r1, [pc, #160]	; (8008420 <dhcp_arp_reply+0xb0>)
 8008380:	4828      	ldr	r0, [pc, #160]	; (8008424 <dhcp_arp_reply+0xb4>)
 8008382:	b007      	add	sp, #28
 8008384:	e8bd 40f0 	ldmia.w	sp!, {r4, r5, r6, r7, lr}
 8008388:	f001 bd70 	b.w	8009e6c <iprintf>
 800838c:	6a44      	ldr	r4, [r0, #36]	; 0x24
 800838e:	2c00      	cmp	r4, #0
 8008390:	d041      	beq.n	8008416 <dhcp_arp_reply+0xa6>
 8008392:	7963      	ldrb	r3, [r4, #5]
 8008394:	2b08      	cmp	r3, #8
 8008396:	d13e      	bne.n	8008416 <dhcp_arp_reply+0xa6>
 8008398:	680a      	ldr	r2, [r1, #0]
 800839a:	69e3      	ldr	r3, [r4, #28]
 800839c:	429a      	cmp	r2, r3
 800839e:	d13a      	bne.n	8008416 <dhcp_arp_reply+0xa6>
 80083a0:	210c      	movs	r1, #12
 80083a2:	4620      	mov	r0, r4
 80083a4:	f7ff f9cc 	bl	8007740 <dhcp_set_state>
 80083a8:	2204      	movs	r2, #4
 80083aa:	f10d 0316 	add.w	r3, sp, #22
 80083ae:	4621      	mov	r1, r4
 80083b0:	4630      	mov	r0, r6
 80083b2:	f7ff fa43 	bl	800783c <dhcp_create_msg>
 80083b6:	4605      	mov	r5, r0
 80083b8:	b330      	cbz	r0, 8008408 <dhcp_arp_reply+0x98>
 80083ba:	6841      	ldr	r1, [r0, #4]
 80083bc:	2304      	movs	r3, #4
 80083be:	2232      	movs	r2, #50	; 0x32
 80083c0:	f8bd 0016 	ldrh.w	r0, [sp, #22]
 80083c4:	31f0      	adds	r1, #240	; 0xf0
 80083c6:	9103      	str	r1, [sp, #12]
 80083c8:	f7ff f9de 	bl	8007788 <dhcp_option>
 80083cc:	4607      	mov	r7, r0
 80083ce:	f8ad 0016 	strh.w	r0, [sp, #22]
 80083d2:	69e0      	ldr	r0, [r4, #28]
 80083d4:	f7fa fe6b 	bl	80030ae <lwip_htonl>
 80083d8:	9903      	ldr	r1, [sp, #12]
 80083da:	4602      	mov	r2, r0
 80083dc:	4638      	mov	r0, r7
 80083de:	f7ff fa09 	bl	80077f4 <dhcp_option_long>
 80083e2:	462a      	mov	r2, r5
 80083e4:	9903      	ldr	r1, [sp, #12]
 80083e6:	f8ad 0016 	strh.w	r0, [sp, #22]
 80083ea:	f7ff fabb 	bl	8007964 <dhcp_option_trailer>
 80083ee:	4b0e      	ldr	r3, [pc, #56]	; (8008428 <dhcp_arp_reply+0xb8>)
 80083f0:	4629      	mov	r1, r5
 80083f2:	480e      	ldr	r0, [pc, #56]	; (800842c <dhcp_arp_reply+0xbc>)
 80083f4:	4a0e      	ldr	r2, [pc, #56]	; (8008430 <dhcp_arp_reply+0xc0>)
 80083f6:	e9cd 6300 	strd	r6, r3, [sp]
 80083fa:	2343      	movs	r3, #67	; 0x43
 80083fc:	6800      	ldr	r0, [r0, #0]
 80083fe:	f7ff f82f 	bl	8007460 <udp_sendto_if_src>
 8008402:	4628      	mov	r0, r5
 8008404:	f7fb fb2c 	bl	8003a60 <pbuf_free>
 8008408:	79a3      	ldrb	r3, [r4, #6]
 800840a:	2bff      	cmp	r3, #255	; 0xff
 800840c:	bf1c      	itt	ne
 800840e:	3301      	addne	r3, #1
 8008410:	71a3      	strbne	r3, [r4, #6]
 8008412:	2314      	movs	r3, #20
 8008414:	8123      	strh	r3, [r4, #8]
 8008416:	b007      	add	sp, #28
 8008418:	bdf0      	pop	{r4, r5, r6, r7, pc}
 800841a:	bf00      	nop
 800841c:	0800c695 	.word	0x0800c695
 8008420:	0800c83e 	.word	0x0800c83e
 8008424:	0800af68 	.word	0x0800af68
 8008428:	0800cc58 	.word	0x0800cc58
 800842c:	20005d64 	.word	0x20005d64
 8008430:	0800cc5c 	.word	0x0800cc5c

08008434 <dhcp_renew>:
 8008434:	e92d 41f0 	stmdb	sp!, {r4, r5, r6, r7, r8, lr}
 8008438:	6a44      	ldr	r4, [r0, #36]	; 0x24
 800843a:	b086      	sub	sp, #24
 800843c:	4606      	mov	r6, r0
 800843e:	2105      	movs	r1, #5
 8008440:	4620      	mov	r0, r4
 8008442:	2203      	movs	r2, #3
 8008444:	f7ff f97c 	bl	8007740 <dhcp_set_state>
 8008448:	f10d 0316 	add.w	r3, sp, #22
 800844c:	4621      	mov	r1, r4
 800844e:	4630      	mov	r0, r6
 8008450:	f7ff f9f4 	bl	800783c <dhcp_create_msg>
 8008454:	4605      	mov	r5, r0
 8008456:	2800      	cmp	r0, #0
 8008458:	d056      	beq.n	8008508 <dhcp_renew+0xd4>
 800845a:	6841      	ldr	r1, [r0, #4]
 800845c:	2302      	movs	r3, #2
 800845e:	2239      	movs	r2, #57	; 0x39
 8008460:	f8bd 0016 	ldrh.w	r0, [sp, #22]
 8008464:	31f0      	adds	r1, #240	; 0xf0
 8008466:	f8df 80ac 	ldr.w	r8, [pc, #172]	; 8008514 <dhcp_renew+0xe0>
 800846a:	2703      	movs	r7, #3
 800846c:	9103      	str	r1, [sp, #12]
 800846e:	f7ff f98b 	bl	8007788 <dhcp_option>
 8008472:	8d32      	ldrh	r2, [r6, #40]	; 0x28
 8008474:	9903      	ldr	r1, [sp, #12]
 8008476:	f8ad 0016 	strh.w	r0, [sp, #22]
 800847a:	f7ff f969 	bl	8007750 <dhcp_option_short>
 800847e:	9903      	ldr	r1, [sp, #12]
 8008480:	2303      	movs	r3, #3
 8008482:	2237      	movs	r2, #55	; 0x37
 8008484:	f8ad 0016 	strh.w	r0, [sp, #22]
 8008488:	f7ff f97e 	bl	8007788 <dhcp_option>
 800848c:	9903      	ldr	r1, [sp, #12]
 800848e:	f8ad 0016 	strh.w	r0, [sp, #22]
 8008492:	3f01      	subs	r7, #1
 8008494:	f818 2b01 	ldrb.w	r2, [r8], #1
 8008498:	f8bd 0016 	ldrh.w	r0, [sp, #22]
 800849c:	9103      	str	r1, [sp, #12]
 800849e:	f7ff f991 	bl	80077c4 <dhcp_option_byte>
 80084a2:	f017 07ff 	ands.w	r7, r7, #255	; 0xff
 80084a6:	9903      	ldr	r1, [sp, #12]
 80084a8:	f8ad 0016 	strh.w	r0, [sp, #22]
 80084ac:	d1f1      	bne.n	8008492 <dhcp_renew+0x5e>
 80084ae:	462a      	mov	r2, r5
 80084b0:	f7ff fa58 	bl	8007964 <dhcp_option_trailer>
 80084b4:	4816      	ldr	r0, [pc, #88]	; (8008510 <dhcp_renew+0xdc>)
 80084b6:	9600      	str	r6, [sp, #0]
 80084b8:	2343      	movs	r3, #67	; 0x43
 80084ba:	f104 0218 	add.w	r2, r4, #24
 80084be:	4629      	mov	r1, r5
 80084c0:	6800      	ldr	r0, [r0, #0]
 80084c2:	f7ff f865 	bl	8007590 <udp_sendto_if>
 80084c6:	4606      	mov	r6, r0
 80084c8:	4628      	mov	r0, r5
 80084ca:	f7fb fac9 	bl	8003a60 <pbuf_free>
 80084ce:	79a3      	ldrb	r3, [r4, #6]
 80084d0:	4630      	mov	r0, r6
 80084d2:	2bff      	cmp	r3, #255	; 0xff
 80084d4:	bf1c      	itt	ne
 80084d6:	3301      	addne	r3, #1
 80084d8:	71a3      	strbne	r3, [r4, #6]
 80084da:	79a3      	ldrb	r3, [r4, #6]
 80084dc:	2b09      	cmp	r3, #9
 80084de:	bf96      	itet	ls
 80084e0:	ebc3 1243 	rsbls	r2, r3, r3, lsl #5
 80084e4:	f644 6320 	movwhi	r3, #20000	; 0x4e20
 80084e8:	eb03 0382 	addls.w	r3, r3, r2, lsl #2
 80084ec:	f44f 72fa 	mov.w	r2, #500	; 0x1f4
 80084f0:	bf9c      	itt	ls
 80084f2:	011b      	lslls	r3, r3, #4
 80084f4:	b29b      	uxthls	r3, r3
 80084f6:	f203 13f3 	addw	r3, r3, #499	; 0x1f3
 80084fa:	b29b      	uxth	r3, r3
 80084fc:	fbb3 f3f2 	udiv	r3, r3, r2
 8008500:	8123      	strh	r3, [r4, #8]
 8008502:	b006      	add	sp, #24
 8008504:	e8bd 81f0 	ldmia.w	sp!, {r4, r5, r6, r7, r8, pc}
 8008508:	f04f 36ff 	mov.w	r6, #4294967295
 800850c:	e7df      	b.n	80084ce <dhcp_renew+0x9a>
 800850e:	bf00      	nop
 8008510:	20005d64 	.word	0x20005d64
 8008514:	0800c999 	.word	0x0800c999

08008518 <dhcp_supplied_address>:
 8008518:	b150      	cbz	r0, 8008530 <dhcp_supplied_address+0x18>
 800851a:	6a40      	ldr	r0, [r0, #36]	; 0x24
 800851c:	b140      	cbz	r0, 8008530 <dhcp_supplied_address+0x18>
 800851e:	7940      	ldrb	r0, [r0, #5]
 8008520:	280a      	cmp	r0, #10
 8008522:	d006      	beq.n	8008532 <dhcp_supplied_address+0x1a>
 8008524:	3804      	subs	r0, #4
 8008526:	2801      	cmp	r0, #1
 8008528:	bf8c      	ite	hi
 800852a:	2000      	movhi	r0, #0
 800852c:	2001      	movls	r0, #1
 800852e:	b2c0      	uxtb	r0, r0
 8008530:	4770      	bx	lr
 8008532:	2001      	movs	r0, #1
 8008534:	e7fb      	b.n	800852e <dhcp_supplied_address+0x16>
	...

08008538 <dhcp_release_and_stop>:
 8008538:	b5f0      	push	{r4, r5, r6, r7, lr}
 800853a:	6a44      	ldr	r4, [r0, #36]	; 0x24
 800853c:	b087      	sub	sp, #28
 800853e:	4606      	mov	r6, r0
 8008540:	2c00      	cmp	r4, #0
 8008542:	d050      	beq.n	80085e6 <dhcp_release_and_stop+0xae>
 8008544:	7963      	ldrb	r3, [r4, #5]
 8008546:	2b00      	cmp	r3, #0
 8008548:	d04d      	beq.n	80085e6 <dhcp_release_and_stop+0xae>
 800854a:	69a3      	ldr	r3, [r4, #24]
 800854c:	9305      	str	r3, [sp, #20]
 800854e:	2300      	movs	r3, #0
 8008550:	e9c4 3306 	strd	r3, r3, [r4, #24]
 8008554:	e9c4 3308 	strd	r3, r3, [r4, #32]
 8008558:	e9c4 330b 	strd	r3, r3, [r4, #44]	; 0x2c
 800855c:	62a3      	str	r3, [r4, #40]	; 0x28
 800855e:	81e3      	strh	r3, [r4, #14]
 8008560:	6123      	str	r3, [r4, #16]
 8008562:	82a3      	strh	r3, [r4, #20]
 8008564:	f7ff ffd8 	bl	8008518 <dhcp_supplied_address>
 8008568:	b368      	cbz	r0, 80085c6 <dhcp_release_and_stop+0x8e>
 800856a:	f10d 0312 	add.w	r3, sp, #18
 800856e:	2207      	movs	r2, #7
 8008570:	4621      	mov	r1, r4
 8008572:	4630      	mov	r0, r6
 8008574:	f7ff f962 	bl	800783c <dhcp_create_msg>
 8008578:	4605      	mov	r5, r0
 800857a:	b320      	cbz	r0, 80085c6 <dhcp_release_and_stop+0x8e>
 800857c:	6841      	ldr	r1, [r0, #4]
 800857e:	2304      	movs	r3, #4
 8008580:	2236      	movs	r2, #54	; 0x36
 8008582:	f8bd 0012 	ldrh.w	r0, [sp, #18]
 8008586:	31f0      	adds	r1, #240	; 0xf0
 8008588:	9103      	str	r1, [sp, #12]
 800858a:	f7ff f8fd 	bl	8007788 <dhcp_option>
 800858e:	4607      	mov	r7, r0
 8008590:	f8ad 0012 	strh.w	r0, [sp, #18]
 8008594:	9805      	ldr	r0, [sp, #20]
 8008596:	f7fa fd8a 	bl	80030ae <lwip_htonl>
 800859a:	9903      	ldr	r1, [sp, #12]
 800859c:	4602      	mov	r2, r0
 800859e:	4638      	mov	r0, r7
 80085a0:	f7ff f928 	bl	80077f4 <dhcp_option_long>
 80085a4:	462a      	mov	r2, r5
 80085a6:	9903      	ldr	r1, [sp, #12]
 80085a8:	f8ad 0012 	strh.w	r0, [sp, #18]
 80085ac:	f7ff f9da 	bl	8007964 <dhcp_option_trailer>
 80085b0:	480e      	ldr	r0, [pc, #56]	; (80085ec <dhcp_release_and_stop+0xb4>)
 80085b2:	2343      	movs	r3, #67	; 0x43
 80085b4:	9600      	str	r6, [sp, #0]
 80085b6:	aa05      	add	r2, sp, #20
 80085b8:	4629      	mov	r1, r5
 80085ba:	6800      	ldr	r0, [r0, #0]
 80085bc:	f7fe ffe8 	bl	8007590 <udp_sendto_if>
 80085c0:	4628      	mov	r0, r5
 80085c2:	f7fb fa4d 	bl	8003a60 <pbuf_free>
 80085c6:	4b0a      	ldr	r3, [pc, #40]	; (80085f0 <dhcp_release_and_stop+0xb8>)
 80085c8:	4630      	mov	r0, r6
 80085ca:	4619      	mov	r1, r3
 80085cc:	461a      	mov	r2, r3
 80085ce:	f7fb f879 	bl	80036c4 <netif_set_addr>
 80085d2:	2100      	movs	r1, #0
 80085d4:	4620      	mov	r0, r4
 80085d6:	f7ff f8b3 	bl	8007740 <dhcp_set_state>
 80085da:	7923      	ldrb	r3, [r4, #4]
 80085dc:	b11b      	cbz	r3, 80085e6 <dhcp_release_and_stop+0xae>
 80085de:	f7ff fb31 	bl	8007c44 <dhcp_dec_pcb_refcount>
 80085e2:	2300      	movs	r3, #0
 80085e4:	7123      	strb	r3, [r4, #4]
 80085e6:	b007      	add	sp, #28
 80085e8:	bdf0      	pop	{r4, r5, r6, r7, pc}
 80085ea:	bf00      	nop
 80085ec:	20005d64 	.word	0x20005d64
 80085f0:	0800cc58 	.word	0x0800cc58

080085f4 <dhcp_start>:
 80085f4:	b538      	push	{r3, r4, r5, lr}
 80085f6:	4604      	mov	r4, r0
 80085f8:	b950      	cbnz	r0, 8008610 <dhcp_start+0x1c>
 80085fa:	4b24      	ldr	r3, [pc, #144]	; (800868c <dhcp_start+0x98>)
 80085fc:	f240 22e7 	movw	r2, #743	; 0x2e7
 8008600:	4923      	ldr	r1, [pc, #140]	; (8008690 <dhcp_start+0x9c>)
 8008602:	4824      	ldr	r0, [pc, #144]	; (8008694 <dhcp_start+0xa0>)
 8008604:	f001 fc32 	bl	8009e6c <iprintf>
 8008608:	f06f 020f 	mvn.w	r2, #15
 800860c:	4610      	mov	r0, r2
 800860e:	bd38      	pop	{r3, r4, r5, pc}
 8008610:	f890 3031 	ldrb.w	r3, [r0, #49]	; 0x31
 8008614:	07da      	lsls	r2, r3, #31
 8008616:	d404      	bmi.n	8008622 <dhcp_start+0x2e>
 8008618:	4b1c      	ldr	r3, [pc, #112]	; (800868c <dhcp_start+0x98>)
 800861a:	f44f 723a 	mov.w	r2, #744	; 0x2e8
 800861e:	491e      	ldr	r1, [pc, #120]	; (8008698 <dhcp_start+0xa4>)
 8008620:	e7ef      	b.n	8008602 <dhcp_start+0xe>
 8008622:	8d03      	ldrh	r3, [r0, #40]	; 0x28
 8008624:	6a45      	ldr	r5, [r0, #36]	; 0x24
 8008626:	f5b3 7f10 	cmp.w	r3, #576	; 0x240
 800862a:	d202      	bcs.n	8008632 <dhcp_start+0x3e>
 800862c:	f04f 32ff 	mov.w	r2, #4294967295
 8008630:	e7ec      	b.n	800860c <dhcp_start+0x18>
 8008632:	b9dd      	cbnz	r5, 800866c <dhcp_start+0x78>
 8008634:	2034      	movs	r0, #52	; 0x34
 8008636:	f7fa fec9 	bl	80033cc <mem_malloc>
 800863a:	4605      	mov	r5, r0
 800863c:	2800      	cmp	r0, #0
 800863e:	d0f5      	beq.n	800862c <dhcp_start+0x38>
 8008640:	6260      	str	r0, [r4, #36]	; 0x24
 8008642:	2234      	movs	r2, #52	; 0x34
 8008644:	2100      	movs	r1, #0
 8008646:	4628      	mov	r0, r5
 8008648:	f001 fc08 	bl	8009e5c <memset>
 800864c:	f7ff fac0 	bl	8007bd0 <dhcp_inc_pcb_refcount>
 8008650:	4602      	mov	r2, r0
 8008652:	2800      	cmp	r0, #0
 8008654:	d1ea      	bne.n	800862c <dhcp_start+0x38>
 8008656:	2301      	movs	r3, #1
 8008658:	712b      	strb	r3, [r5, #4]
 800865a:	f894 3031 	ldrb.w	r3, [r4, #49]	; 0x31
 800865e:	075b      	lsls	r3, r3, #29
 8008660:	d40a      	bmi.n	8008678 <dhcp_start+0x84>
 8008662:	2102      	movs	r1, #2
 8008664:	4628      	mov	r0, r5
 8008666:	f7ff f86b 	bl	8007740 <dhcp_set_state>
 800866a:	e7cf      	b.n	800860c <dhcp_start+0x18>
 800866c:	792b      	ldrb	r3, [r5, #4]
 800866e:	2b00      	cmp	r3, #0
 8008670:	d0e7      	beq.n	8008642 <dhcp_start+0x4e>
 8008672:	f7ff fae7 	bl	8007c44 <dhcp_dec_pcb_refcount>
 8008676:	e7e4      	b.n	8008642 <dhcp_start+0x4e>
 8008678:	4620      	mov	r0, r4
 800867a:	f7ff f993 	bl	80079a4 <dhcp_discover>
 800867e:	4602      	mov	r2, r0
 8008680:	2800      	cmp	r0, #0
 8008682:	d0c3      	beq.n	800860c <dhcp_start+0x18>
 8008684:	4620      	mov	r0, r4
 8008686:	f7ff ff57 	bl	8008538 <dhcp_release_and_stop>
 800868a:	e7cf      	b.n	800862c <dhcp_start+0x38>
 800868c:	0800c695 	.word	0x0800c695
 8008690:	0800c83e 	.word	0x0800c83e
 8008694:	0800af68 	.word	0x0800af68
 8008698:	0800c978 	.word	0x0800c978

0800869c <dhcp_coarse_tmr>:
 800869c:	4b59      	ldr	r3, [pc, #356]	; (8008804 <dhcp_coarse_tmr+0x168>)
 800869e:	e92d 4ff0 	stmdb	sp!, {r4, r5, r6, r7, r8, r9, sl, fp, lr}
 80086a2:	681d      	ldr	r5, [r3, #0]
 80086a4:	b087      	sub	sp, #28
 80086a6:	f240 2619 	movw	r6, #537	; 0x219
 80086aa:	4f57      	ldr	r7, [pc, #348]	; (8008808 <dhcp_coarse_tmr+0x16c>)
 80086ac:	f8df 815c 	ldr.w	r8, [pc, #348]	; 800880c <dhcp_coarse_tmr+0x170>
 80086b0:	b915      	cbnz	r5, 80086b8 <dhcp_coarse_tmr+0x1c>
 80086b2:	b007      	add	sp, #28
 80086b4:	e8bd 8ff0 	ldmia.w	sp!, {r4, r5, r6, r7, r8, r9, sl, fp, pc}
 80086b8:	6a6c      	ldr	r4, [r5, #36]	; 0x24
 80086ba:	b17c      	cbz	r4, 80086dc <dhcp_coarse_tmr+0x40>
 80086bc:	7963      	ldrb	r3, [r4, #5]
 80086be:	b16b      	cbz	r3, 80086dc <dhcp_coarse_tmr+0x40>
 80086c0:	8aa1      	ldrh	r1, [r4, #20]
 80086c2:	b169      	cbz	r1, 80086e0 <dhcp_coarse_tmr+0x44>
 80086c4:	8a62      	ldrh	r2, [r4, #18]
 80086c6:	3201      	adds	r2, #1
 80086c8:	b292      	uxth	r2, r2
 80086ca:	4291      	cmp	r1, r2
 80086cc:	8262      	strh	r2, [r4, #18]
 80086ce:	d107      	bne.n	80086e0 <dhcp_coarse_tmr+0x44>
 80086d0:	4628      	mov	r0, r5
 80086d2:	f7ff ff31 	bl	8008538 <dhcp_release_and_stop>
 80086d6:	4628      	mov	r0, r5
 80086d8:	f7ff ff8c 	bl	80085f4 <dhcp_start>
 80086dc:	682d      	ldr	r5, [r5, #0]
 80086de:	e7e7      	b.n	80086b0 <dhcp_coarse_tmr+0x14>
 80086e0:	8a22      	ldrh	r2, [r4, #16]
 80086e2:	2a00      	cmp	r2, #0
 80086e4:	d073      	beq.n	80087ce <dhcp_coarse_tmr+0x132>
 80086e6:	1e51      	subs	r1, r2, #1
 80086e8:	2a01      	cmp	r2, #1
 80086ea:	8221      	strh	r1, [r4, #16]
 80086ec:	d16f      	bne.n	80087ce <dhcp_coarse_tmr+0x132>
 80086ee:	3b01      	subs	r3, #1
 80086f0:	b2db      	uxtb	r3, r3
 80086f2:	2b09      	cmp	r3, #9
 80086f4:	d8f2      	bhi.n	80086dc <dhcp_coarse_tmr+0x40>
 80086f6:	fa26 f303 	lsr.w	r3, r6, r3
 80086fa:	07db      	lsls	r3, r3, #31
 80086fc:	d5ee      	bpl.n	80086dc <dhcp_coarse_tmr+0x40>
 80086fe:	2104      	movs	r1, #4
 8008700:	4620      	mov	r0, r4
 8008702:	f7ff f81d 	bl	8007740 <dhcp_set_state>
 8008706:	2203      	movs	r2, #3
 8008708:	f10d 0316 	add.w	r3, sp, #22
 800870c:	4621      	mov	r1, r4
 800870e:	4628      	mov	r0, r5
 8008710:	f7ff f894 	bl	800783c <dhcp_create_msg>
 8008714:	4681      	mov	r9, r0
 8008716:	2800      	cmp	r0, #0
 8008718:	d038      	beq.n	800878c <dhcp_coarse_tmr+0xf0>
 800871a:	6841      	ldr	r1, [r0, #4]
 800871c:	2302      	movs	r3, #2
 800871e:	2239      	movs	r2, #57	; 0x39
 8008720:	f8bd 0016 	ldrh.w	r0, [sp, #22]
 8008724:	31f0      	adds	r1, #240	; 0xf0
 8008726:	f8df b0e8 	ldr.w	fp, [pc, #232]	; 8008810 <dhcp_coarse_tmr+0x174>
 800872a:	f04f 0a03 	mov.w	sl, #3
 800872e:	9103      	str	r1, [sp, #12]
 8008730:	f7ff f82a 	bl	8007788 <dhcp_option>
 8008734:	8d2a      	ldrh	r2, [r5, #40]	; 0x28
 8008736:	9903      	ldr	r1, [sp, #12]
 8008738:	f8ad 0016 	strh.w	r0, [sp, #22]
 800873c:	f7ff f808 	bl	8007750 <dhcp_option_short>
 8008740:	9903      	ldr	r1, [sp, #12]
 8008742:	2303      	movs	r3, #3
 8008744:	2237      	movs	r2, #55	; 0x37
 8008746:	f8ad 0016 	strh.w	r0, [sp, #22]
 800874a:	f7ff f81d 	bl	8007788 <dhcp_option>
 800874e:	9903      	ldr	r1, [sp, #12]
 8008750:	f8ad 0016 	strh.w	r0, [sp, #22]
 8008754:	f10a 3aff 	add.w	sl, sl, #4294967295
 8008758:	f81b 2b01 	ldrb.w	r2, [fp], #1
 800875c:	f8bd 0016 	ldrh.w	r0, [sp, #22]
 8008760:	9103      	str	r1, [sp, #12]
 8008762:	f7ff f82f 	bl	80077c4 <dhcp_option_byte>
 8008766:	f01a 0aff 	ands.w	sl, sl, #255	; 0xff
 800876a:	9903      	ldr	r1, [sp, #12]
 800876c:	f8ad 0016 	strh.w	r0, [sp, #22]
 8008770:	d1f0      	bne.n	8008754 <dhcp_coarse_tmr+0xb8>
 8008772:	464a      	mov	r2, r9
 8008774:	f7ff f8f6 	bl	8007964 <dhcp_option_trailer>
 8008778:	2343      	movs	r3, #67	; 0x43
 800877a:	4642      	mov	r2, r8
 800877c:	4649      	mov	r1, r9
 800877e:	6838      	ldr	r0, [r7, #0]
 8008780:	9500      	str	r5, [sp, #0]
 8008782:	f7fe ff05 	bl	8007590 <udp_sendto_if>
 8008786:	4648      	mov	r0, r9
 8008788:	f7fb f96a 	bl	8003a60 <pbuf_free>
 800878c:	79a3      	ldrb	r3, [r4, #6]
 800878e:	2bff      	cmp	r3, #255	; 0xff
 8008790:	bf1c      	itt	ne
 8008792:	3301      	addne	r3, #1
 8008794:	71a3      	strbne	r3, [r4, #6]
 8008796:	79a3      	ldrb	r3, [r4, #6]
 8008798:	2b09      	cmp	r3, #9
 800879a:	bf96      	itet	ls
 800879c:	ebc3 1243 	rsbls	r2, r3, r3, lsl #5
 80087a0:	f242 7310 	movwhi	r3, #10000	; 0x2710
 80087a4:	eb03 0382 	addls.w	r3, r3, r2, lsl #2
 80087a8:	f44f 72fa 	mov.w	r2, #500	; 0x1f4
 80087ac:	bf9c      	itt	ls
 80087ae:	00db      	lslls	r3, r3, #3
 80087b0:	b29b      	uxthls	r3, r3
 80087b2:	f203 13f3 	addw	r3, r3, #499	; 0x1f3
 80087b6:	b29b      	uxth	r3, r3
 80087b8:	fbb3 f3f2 	udiv	r3, r3, r2
 80087bc:	8a62      	ldrh	r2, [r4, #18]
 80087be:	8123      	strh	r3, [r4, #8]
 80087c0:	8aa3      	ldrh	r3, [r4, #20]
 80087c2:	1a9b      	subs	r3, r3, r2
 80087c4:	2b01      	cmp	r3, #1
 80087c6:	dd89      	ble.n	80086dc <dhcp_coarse_tmr+0x40>
 80087c8:	105b      	asrs	r3, r3, #1
 80087ca:	8223      	strh	r3, [r4, #16]
 80087cc:	e786      	b.n	80086dc <dhcp_coarse_tmr+0x40>
 80087ce:	89e2      	ldrh	r2, [r4, #14]
 80087d0:	2a00      	cmp	r2, #0
 80087d2:	d083      	beq.n	80086dc <dhcp_coarse_tmr+0x40>
 80087d4:	1e51      	subs	r1, r2, #1
 80087d6:	2a01      	cmp	r2, #1
 80087d8:	81e1      	strh	r1, [r4, #14]
 80087da:	f47f af7f 	bne.w	80086dc <dhcp_coarse_tmr+0x40>
 80087de:	f003 02fb 	and.w	r2, r3, #251	; 0xfb
 80087e2:	2a01      	cmp	r2, #1
 80087e4:	d002      	beq.n	80087ec <dhcp_coarse_tmr+0x150>
 80087e6:	2b0a      	cmp	r3, #10
 80087e8:	f47f af78 	bne.w	80086dc <dhcp_coarse_tmr+0x40>
 80087ec:	4628      	mov	r0, r5
 80087ee:	f7ff fe21 	bl	8008434 <dhcp_renew>
 80087f2:	89a3      	ldrh	r3, [r4, #12]
 80087f4:	8a62      	ldrh	r2, [r4, #18]
 80087f6:	1a9b      	subs	r3, r3, r2
 80087f8:	2b01      	cmp	r3, #1
 80087fa:	bfc4      	itt	gt
 80087fc:	105b      	asrgt	r3, r3, #1
 80087fe:	81e3      	strhgt	r3, [r4, #14]
 8008800:	e76c      	b.n	80086dc <dhcp_coarse_tmr+0x40>
 8008802:	bf00      	nop
 8008804:	20005cf0 	.word	0x20005cf0
 8008808:	20005d64 	.word	0x20005d64
 800880c:	0800cc5c 	.word	0x0800cc5c
 8008810:	0800c999 	.word	0x0800c999

08008814 <dhcp_fine_tmr>:
 8008814:	b538      	push	{r3, r4, r5, lr}
 8008816:	4b1e      	ldr	r3, [pc, #120]	; (8008890 <dhcp_fine_tmr+0x7c>)
 8008818:	2500      	movs	r5, #0
 800881a:	681c      	ldr	r4, [r3, #0]
 800881c:	b904      	cbnz	r4, 8008820 <dhcp_fine_tmr+0xc>
 800881e:	bd38      	pop	{r3, r4, r5, pc}
 8008820:	6a63      	ldr	r3, [r4, #36]	; 0x24
 8008822:	b123      	cbz	r3, 800882e <dhcp_fine_tmr+0x1a>
 8008824:	891a      	ldrh	r2, [r3, #8]
 8008826:	2a01      	cmp	r2, #1
 8008828:	d903      	bls.n	8008832 <dhcp_fine_tmr+0x1e>
 800882a:	3a01      	subs	r2, #1
 800882c:	811a      	strh	r2, [r3, #8]
 800882e:	6824      	ldr	r4, [r4, #0]
 8008830:	e7f4      	b.n	800881c <dhcp_fine_tmr+0x8>
 8008832:	d1fc      	bne.n	800882e <dhcp_fine_tmr+0x1a>
 8008834:	795a      	ldrb	r2, [r3, #5]
 8008836:	811d      	strh	r5, [r3, #8]
 8008838:	2a0c      	cmp	r2, #12
 800883a:	d001      	beq.n	8008840 <dhcp_fine_tmr+0x2c>
 800883c:	2a06      	cmp	r2, #6
 800883e:	d103      	bne.n	8008848 <dhcp_fine_tmr+0x34>
 8008840:	4620      	mov	r0, r4
 8008842:	f7ff f8af 	bl	80079a4 <dhcp_discover>
 8008846:	e7f2      	b.n	800882e <dhcp_fine_tmr+0x1a>
 8008848:	2a01      	cmp	r2, #1
 800884a:	d10c      	bne.n	8008866 <dhcp_fine_tmr+0x52>
 800884c:	799b      	ldrb	r3, [r3, #6]
 800884e:	4620      	mov	r0, r4
 8008850:	2b05      	cmp	r3, #5
 8008852:	d802      	bhi.n	800885a <dhcp_fine_tmr+0x46>
 8008854:	f7ff facc 	bl	8007df0 <dhcp_select.isra.0>
 8008858:	e7e9      	b.n	800882e <dhcp_fine_tmr+0x1a>
 800885a:	f7ff fe6d 	bl	8008538 <dhcp_release_and_stop>
 800885e:	4620      	mov	r0, r4
 8008860:	f7ff fec8 	bl	80085f4 <dhcp_start>
 8008864:	e7e3      	b.n	800882e <dhcp_fine_tmr+0x1a>
 8008866:	2a08      	cmp	r2, #8
 8008868:	d109      	bne.n	800887e <dhcp_fine_tmr+0x6a>
 800886a:	799b      	ldrb	r3, [r3, #6]
 800886c:	4620      	mov	r0, r4
 800886e:	2b01      	cmp	r3, #1
 8008870:	d802      	bhi.n	8008878 <dhcp_fine_tmr+0x64>
 8008872:	f7ff f90f 	bl	8007a94 <dhcp_check>
 8008876:	e7da      	b.n	800882e <dhcp_fine_tmr+0x1a>
 8008878:	f7ff f922 	bl	8007ac0 <dhcp_bind>
 800887c:	e7d7      	b.n	800882e <dhcp_fine_tmr+0x1a>
 800887e:	2a03      	cmp	r2, #3
 8008880:	d1d5      	bne.n	800882e <dhcp_fine_tmr+0x1a>
 8008882:	799b      	ldrb	r3, [r3, #6]
 8008884:	4620      	mov	r0, r4
 8008886:	2b01      	cmp	r3, #1
 8008888:	d8db      	bhi.n	8008842 <dhcp_fine_tmr+0x2e>
 800888a:	f7ff f9fb 	bl	8007c84 <dhcp_reboot.isra.0>
 800888e:	e7ce      	b.n	800882e <dhcp_fine_tmr+0x1a>
 8008890:	20005cf0 	.word	0x20005cf0

08008894 <etharp_free_entry>:
 8008894:	b570      	push	{r4, r5, r6, lr}
 8008896:	2618      	movs	r6, #24
 8008898:	4c07      	ldr	r4, [pc, #28]	; (80088b8 <etharp_free_entry+0x24>)
 800889a:	4605      	mov	r5, r0
 800889c:	4346      	muls	r6, r0
 800889e:	59a0      	ldr	r0, [r4, r6]
 80088a0:	b118      	cbz	r0, 80088aa <etharp_free_entry+0x16>
 80088a2:	f7fb f8dd 	bl	8003a60 <pbuf_free>
 80088a6:	2300      	movs	r3, #0
 80088a8:	51a3      	str	r3, [r4, r6]
 80088aa:	2018      	movs	r0, #24
 80088ac:	2300      	movs	r3, #0
 80088ae:	fb00 4405 	mla	r4, r0, r5, r4
 80088b2:	7523      	strb	r3, [r4, #20]
 80088b4:	bd70      	pop	{r4, r5, r6, pc}
 80088b6:	bf00      	nop
 80088b8:	20005d98 	.word	0x20005d98

080088bc <etharp_find_entry>:
 80088bc:	e92d 4ff7 	stmdb	sp!, {r0, r1, r2, r4, r5, r6, r7, r8, r9, sl, fp, lr}
 80088c0:	2300      	movs	r3, #0
 80088c2:	f04f 0e0a 	mov.w	lr, #10
 80088c6:	4606      	mov	r6, r0
 80088c8:	4699      	mov	r9, r3
 80088ca:	469b      	mov	fp, r3
 80088cc:	469c      	mov	ip, r3
 80088ce:	4674      	mov	r4, lr
 80088d0:	4675      	mov	r5, lr
 80088d2:	46f0      	mov	r8, lr
 80088d4:	e9cd 2100 	strd	r2, r1, [sp]
 80088d8:	4a3a      	ldr	r2, [pc, #232]	; (80089c4 <etharp_find_entry+0x108>)
 80088da:	2c0a      	cmp	r4, #10
 80088dc:	b218      	sxth	r0, r3
 80088de:	f892 a014 	ldrb.w	sl, [r2, #20]
 80088e2:	d11a      	bne.n	800891a <etharp_find_entry+0x5e>
 80088e4:	f1ba 0f00 	cmp.w	sl, #0
 80088e8:	d05d      	beq.n	80089a6 <etharp_find_entry+0xea>
 80088ea:	b156      	cbz	r6, 8008902 <etharp_find_entry+0x46>
 80088ec:	6831      	ldr	r1, [r6, #0]
 80088ee:	6857      	ldr	r7, [r2, #4]
 80088f0:	42b9      	cmp	r1, r7
 80088f2:	d106      	bne.n	8008902 <etharp_find_entry+0x46>
 80088f4:	9900      	ldr	r1, [sp, #0]
 80088f6:	2900      	cmp	r1, #0
 80088f8:	d048      	beq.n	800898c <etharp_find_entry+0xd0>
 80088fa:	6891      	ldr	r1, [r2, #8]
 80088fc:	9f00      	ldr	r7, [sp, #0]
 80088fe:	42b9      	cmp	r1, r7
 8008900:	d044      	beq.n	800898c <etharp_find_entry+0xd0>
 8008902:	f1ba 0f01 	cmp.w	sl, #1
 8008906:	8a51      	ldrh	r1, [r2, #18]
 8008908:	d148      	bne.n	800899c <etharp_find_entry+0xe0>
 800890a:	6817      	ldr	r7, [r2, #0]
 800890c:	2f00      	cmp	r7, #0
 800890e:	d040      	beq.n	8008992 <etharp_find_entry+0xd6>
 8008910:	4561      	cmp	r1, ip
 8008912:	d305      	bcc.n	8008920 <etharp_find_entry+0x64>
 8008914:	468c      	mov	ip, r1
 8008916:	4686      	mov	lr, r0
 8008918:	e002      	b.n	8008920 <etharp_find_entry+0x64>
 800891a:	f1ba 0f00 	cmp.w	sl, #0
 800891e:	d1e4      	bne.n	80088ea <etharp_find_entry+0x2e>
 8008920:	3301      	adds	r3, #1
 8008922:	3218      	adds	r2, #24
 8008924:	2b0a      	cmp	r3, #10
 8008926:	d1d8      	bne.n	80088da <etharp_find_entry+0x1e>
 8008928:	9b01      	ldr	r3, [sp, #4]
 800892a:	2b01      	cmp	r3, #1
 800892c:	d143      	bne.n	80089b6 <etharp_find_entry+0xfa>
 800892e:	2c0a      	cmp	r4, #10
 8008930:	d111      	bne.n	8008956 <etharp_find_entry+0x9a>
 8008932:	2d0a      	cmp	r5, #10
 8008934:	d039      	beq.n	80089aa <etharp_find_entry+0xee>
 8008936:	2318      	movs	r3, #24
 8008938:	4a22      	ldr	r2, [pc, #136]	; (80089c4 <etharp_find_entry+0x108>)
 800893a:	436b      	muls	r3, r5
 800893c:	58d3      	ldr	r3, [r2, r3]
 800893e:	b133      	cbz	r3, 800894e <etharp_find_entry+0x92>
 8008940:	4b21      	ldr	r3, [pc, #132]	; (80089c8 <etharp_find_entry+0x10c>)
 8008942:	f240 126d 	movw	r2, #365	; 0x16d
 8008946:	4921      	ldr	r1, [pc, #132]	; (80089cc <etharp_find_entry+0x110>)
 8008948:	4821      	ldr	r0, [pc, #132]	; (80089d0 <etharp_find_entry+0x114>)
 800894a:	f001 fa8f 	bl	8009e6c <iprintf>
 800894e:	462c      	mov	r4, r5
 8008950:	4628      	mov	r0, r5
 8008952:	f7ff ff9f 	bl	8008894 <etharp_free_entry>
 8008956:	4d1b      	ldr	r5, [pc, #108]	; (80089c4 <etharp_find_entry+0x108>)
 8008958:	2318      	movs	r3, #24
 800895a:	fb03 5304 	mla	r3, r3, r4, r5
 800895e:	7d1b      	ldrb	r3, [r3, #20]
 8008960:	b133      	cbz	r3, 8008970 <etharp_find_entry+0xb4>
 8008962:	4b19      	ldr	r3, [pc, #100]	; (80089c8 <etharp_find_entry+0x10c>)
 8008964:	f44f 72c2 	mov.w	r2, #388	; 0x184
 8008968:	491a      	ldr	r1, [pc, #104]	; (80089d4 <etharp_find_entry+0x118>)
 800896a:	4819      	ldr	r0, [pc, #100]	; (80089d0 <etharp_find_entry+0x114>)
 800896c:	f001 fa7e 	bl	8009e6c <iprintf>
 8008970:	b126      	cbz	r6, 800897c <etharp_find_entry+0xc0>
 8008972:	2318      	movs	r3, #24
 8008974:	6832      	ldr	r2, [r6, #0]
 8008976:	fb03 5304 	mla	r3, r3, r4, r5
 800897a:	605a      	str	r2, [r3, #4]
 800897c:	2318      	movs	r3, #24
 800897e:	2200      	movs	r2, #0
 8008980:	4620      	mov	r0, r4
 8008982:	fb03 5304 	mla	r3, r3, r4, r5
 8008986:	825a      	strh	r2, [r3, #18]
 8008988:	9a00      	ldr	r2, [sp, #0]
 800898a:	609a      	str	r2, [r3, #8]
 800898c:	b003      	add	sp, #12
 800898e:	e8bd 8ff0 	ldmia.w	sp!, {r4, r5, r6, r7, r8, r9, sl, fp, pc}
 8008992:	4559      	cmp	r1, fp
 8008994:	d3c4      	bcc.n	8008920 <etharp_find_entry+0x64>
 8008996:	468b      	mov	fp, r1
 8008998:	4680      	mov	r8, r0
 800899a:	e7c1      	b.n	8008920 <etharp_find_entry+0x64>
 800899c:	4549      	cmp	r1, r9
 800899e:	d3bf      	bcc.n	8008920 <etharp_find_entry+0x64>
 80089a0:	4689      	mov	r9, r1
 80089a2:	4605      	mov	r5, r0
 80089a4:	e7bc      	b.n	8008920 <etharp_find_entry+0x64>
 80089a6:	4604      	mov	r4, r0
 80089a8:	e7ba      	b.n	8008920 <etharp_find_entry+0x64>
 80089aa:	f1b8 0f0a 	cmp.w	r8, #10
 80089ae:	d105      	bne.n	80089bc <etharp_find_entry+0x100>
 80089b0:	f1be 0f0a 	cmp.w	lr, #10
 80089b4:	d104      	bne.n	80089c0 <etharp_find_entry+0x104>
 80089b6:	f04f 30ff 	mov.w	r0, #4294967295
 80089ba:	e7e7      	b.n	800898c <etharp_find_entry+0xd0>
 80089bc:	4645      	mov	r5, r8
 80089be:	e7c6      	b.n	800894e <etharp_find_entry+0x92>
 80089c0:	4675      	mov	r5, lr
 80089c2:	e7c4      	b.n	800894e <etharp_find_entry+0x92>
 80089c4:	20005d98 	.word	0x20005d98
 80089c8:	0800c99c 	.word	0x0800c99c
 80089cc:	0800c9d3 	.word	0x0800c9d3
 80089d0:	0800af68 	.word	0x0800af68
 80089d4:	0800c9ea 	.word	0x0800c9ea

080089d8 <etharp_raw>:
 80089d8:	e92d 47f3 	stmdb	sp!, {r0, r1, r4, r5, r6, r7, r8, r9, sl, lr}
 80089dc:	f8dd a02c 	ldr.w	sl, [sp, #44]	; 0x2c
 80089e0:	4688      	mov	r8, r1
 80089e2:	4691      	mov	r9, r2
 80089e4:	461e      	mov	r6, r3
 80089e6:	4607      	mov	r7, r0
 80089e8:	b930      	cbnz	r0, 80089f8 <etharp_raw+0x20>
 80089ea:	4b2d      	ldr	r3, [pc, #180]	; (8008aa0 <etharp_raw+0xc8>)
 80089ec:	f240 4257 	movw	r2, #1111	; 0x457
 80089f0:	492c      	ldr	r1, [pc, #176]	; (8008aa4 <etharp_raw+0xcc>)
 80089f2:	482d      	ldr	r0, [pc, #180]	; (8008aa8 <etharp_raw+0xd0>)
 80089f4:	f001 fa3a 	bl	8009e6c <iprintf>
 80089f8:	f44f 7220 	mov.w	r2, #640	; 0x280
 80089fc:	211c      	movs	r1, #28
 80089fe:	200e      	movs	r0, #14
 8008a00:	f7fb f892 	bl	8003b28 <pbuf_alloc>
 8008a04:	4605      	mov	r5, r0
 8008a06:	2800      	cmp	r0, #0
 8008a08:	d047      	beq.n	8008a9a <etharp_raw+0xc2>
 8008a0a:	8943      	ldrh	r3, [r0, #10]
 8008a0c:	2b1b      	cmp	r3, #27
 8008a0e:	d806      	bhi.n	8008a1e <etharp_raw+0x46>
 8008a10:	4b23      	ldr	r3, [pc, #140]	; (8008aa0 <etharp_raw+0xc8>)
 8008a12:	f240 4262 	movw	r2, #1122	; 0x462
 8008a16:	4925      	ldr	r1, [pc, #148]	; (8008aac <etharp_raw+0xd4>)
 8008a18:	4823      	ldr	r0, [pc, #140]	; (8008aa8 <etharp_raw+0xd0>)
 8008a1a:	f001 fa27 	bl	8009e6c <iprintf>
 8008a1e:	686c      	ldr	r4, [r5, #4]
 8008a20:	f8bd 0034 	ldrh.w	r0, [sp, #52]	; 0x34
 8008a24:	f7fa fb40 	bl	80030a8 <lwip_htons>
 8008a28:	80e0      	strh	r0, [r4, #6]
 8008a2a:	f897 3030 	ldrb.w	r3, [r7, #48]	; 0x30
 8008a2e:	2b06      	cmp	r3, #6
 8008a30:	d006      	beq.n	8008a40 <etharp_raw+0x68>
 8008a32:	4b1b      	ldr	r3, [pc, #108]	; (8008aa0 <etharp_raw+0xc8>)
 8008a34:	f240 4269 	movw	r2, #1129	; 0x469
 8008a38:	491d      	ldr	r1, [pc, #116]	; (8008ab0 <etharp_raw+0xd8>)
 8008a3a:	481b      	ldr	r0, [pc, #108]	; (8008aa8 <etharp_raw+0xd0>)
 8008a3c:	f001 fa16 	bl	8009e6c <iprintf>
 8008a40:	6833      	ldr	r3, [r6, #0]
 8008a42:	4642      	mov	r2, r8
 8008a44:	4629      	mov	r1, r5
 8008a46:	4638      	mov	r0, r7
 8008a48:	60a3      	str	r3, [r4, #8]
 8008a4a:	88b3      	ldrh	r3, [r6, #4]
 8008a4c:	2600      	movs	r6, #0
 8008a4e:	81a3      	strh	r3, [r4, #12]
 8008a50:	f8da 3000 	ldr.w	r3, [sl]
 8008a54:	f8c4 3012 	str.w	r3, [r4, #18]
 8008a58:	f8ba 3004 	ldrh.w	r3, [sl, #4]
 8008a5c:	82e3      	strh	r3, [r4, #22]
 8008a5e:	9b0a      	ldr	r3, [sp, #40]	; 0x28
 8008a60:	681b      	ldr	r3, [r3, #0]
 8008a62:	f8c4 300e 	str.w	r3, [r4, #14]
 8008a66:	9b0c      	ldr	r3, [sp, #48]	; 0x30
 8008a68:	681b      	ldr	r3, [r3, #0]
 8008a6a:	7026      	strb	r6, [r4, #0]
 8008a6c:	61a3      	str	r3, [r4, #24]
 8008a6e:	2301      	movs	r3, #1
 8008a70:	70e6      	strb	r6, [r4, #3]
 8008a72:	7063      	strb	r3, [r4, #1]
 8008a74:	2308      	movs	r3, #8
 8008a76:	70a3      	strb	r3, [r4, #2]
 8008a78:	2306      	movs	r3, #6
 8008a7a:	7123      	strb	r3, [r4, #4]
 8008a7c:	2304      	movs	r3, #4
 8008a7e:	7163      	strb	r3, [r4, #5]
 8008a80:	f640 0306 	movw	r3, #2054	; 0x806
 8008a84:	9300      	str	r3, [sp, #0]
 8008a86:	464b      	mov	r3, r9
 8008a88:	f001 f96e 	bl	8009d68 <ethernet_output>
 8008a8c:	4628      	mov	r0, r5
 8008a8e:	f7fa ffe7 	bl	8003a60 <pbuf_free>
 8008a92:	4630      	mov	r0, r6
 8008a94:	b002      	add	sp, #8
 8008a96:	e8bd 87f0 	ldmia.w	sp!, {r4, r5, r6, r7, r8, r9, sl, pc}
 8008a9a:	f04f 30ff 	mov.w	r0, #4294967295
 8008a9e:	e7f9      	b.n	8008a94 <etharp_raw+0xbc>
 8008aa0:	0800c99c 	.word	0x0800c99c
 8008aa4:	0800c83e 	.word	0x0800c83e
 8008aa8:	0800af68 	.word	0x0800af68
 8008aac:	0800ca13 	.word	0x0800ca13
 8008ab0:	0800ca44 	.word	0x0800ca44

08008ab4 <etharp_cleanup_netif>:
 8008ab4:	b570      	push	{r4, r5, r6, lr}
 8008ab6:	4606      	mov	r6, r0
 8008ab8:	4d07      	ldr	r5, [pc, #28]	; (8008ad8 <etharp_cleanup_netif+0x24>)
 8008aba:	2400      	movs	r4, #0
 8008abc:	7d2b      	ldrb	r3, [r5, #20]
 8008abe:	b12b      	cbz	r3, 8008acc <etharp_cleanup_netif+0x18>
 8008ac0:	68ab      	ldr	r3, [r5, #8]
 8008ac2:	42b3      	cmp	r3, r6
 8008ac4:	d102      	bne.n	8008acc <etharp_cleanup_netif+0x18>
 8008ac6:	4620      	mov	r0, r4
 8008ac8:	f7ff fee4 	bl	8008894 <etharp_free_entry>
 8008acc:	3401      	adds	r4, #1
 8008ace:	3518      	adds	r5, #24
 8008ad0:	2c0a      	cmp	r4, #10
 8008ad2:	d1f3      	bne.n	8008abc <etharp_cleanup_netif+0x8>
 8008ad4:	bd70      	pop	{r4, r5, r6, pc}
 8008ad6:	bf00      	nop
 8008ad8:	20005d98 	.word	0x20005d98

08008adc <etharp_input>:
 8008adc:	e92d 47f0 	stmdb	sp!, {r4, r5, r6, r7, r8, r9, sl, lr}
 8008ae0:	4607      	mov	r7, r0
 8008ae2:	b088      	sub	sp, #32
 8008ae4:	460c      	mov	r4, r1
 8008ae6:	b949      	cbnz	r1, 8008afc <etharp_input+0x20>
 8008ae8:	4b4f      	ldr	r3, [pc, #316]	; (8008c28 <etharp_input+0x14c>)
 8008aea:	f240 228a 	movw	r2, #650	; 0x28a
 8008aee:	494f      	ldr	r1, [pc, #316]	; (8008c2c <etharp_input+0x150>)
 8008af0:	484f      	ldr	r0, [pc, #316]	; (8008c30 <etharp_input+0x154>)
 8008af2:	b008      	add	sp, #32
 8008af4:	e8bd 47f0 	ldmia.w	sp!, {r4, r5, r6, r7, r8, r9, sl, lr}
 8008af8:	f001 b9b8 	b.w	8009e6c <iprintf>
 8008afc:	6845      	ldr	r5, [r0, #4]
 8008afe:	882b      	ldrh	r3, [r5, #0]
 8008b00:	f5b3 7f80 	cmp.w	r3, #256	; 0x100
 8008b04:	d108      	bne.n	8008b18 <etharp_input+0x3c>
 8008b06:	792b      	ldrb	r3, [r5, #4]
 8008b08:	2b06      	cmp	r3, #6
 8008b0a:	d105      	bne.n	8008b18 <etharp_input+0x3c>
 8008b0c:	796b      	ldrb	r3, [r5, #5]
 8008b0e:	2b04      	cmp	r3, #4
 8008b10:	d102      	bne.n	8008b18 <etharp_input+0x3c>
 8008b12:	886b      	ldrh	r3, [r5, #2]
 8008b14:	2b08      	cmp	r3, #8
 8008b16:	d005      	beq.n	8008b24 <etharp_input+0x48>
 8008b18:	4638      	mov	r0, r7
 8008b1a:	b008      	add	sp, #32
 8008b1c:	e8bd 47f0 	ldmia.w	sp!, {r4, r5, r6, r7, r8, r9, sl, lr}
 8008b20:	f7fa bf9e 	b.w	8003a60 <pbuf_free>
 8008b24:	f8d5 300e 	ldr.w	r3, [r5, #14]
 8008b28:	f105 0808 	add.w	r8, r5, #8
 8008b2c:	684e      	ldr	r6, [r1, #4]
 8008b2e:	9307      	str	r3, [sp, #28]
 8008b30:	69ab      	ldr	r3, [r5, #24]
 8008b32:	2e00      	cmp	r6, #0
 8008b34:	d05e      	beq.n	8008bf4 <etharp_input+0x118>
 8008b36:	1af3      	subs	r3, r6, r3
 8008b38:	425e      	negs	r6, r3
 8008b3a:	415e      	adcs	r6, r3
 8008b3c:	f1c6 0a02 	rsb	sl, r6, #2
 8008b40:	fa5f fa8a 	uxtb.w	sl, sl
 8008b44:	f894 3030 	ldrb.w	r3, [r4, #48]	; 0x30
 8008b48:	2b06      	cmp	r3, #6
 8008b4a:	d006      	beq.n	8008b5a <etharp_input+0x7e>
 8008b4c:	4b36      	ldr	r3, [pc, #216]	; (8008c28 <etharp_input+0x14c>)
 8008b4e:	f240 12a9 	movw	r2, #425	; 0x1a9
 8008b52:	4938      	ldr	r1, [pc, #224]	; (8008c34 <etharp_input+0x158>)
 8008b54:	4836      	ldr	r0, [pc, #216]	; (8008c30 <etharp_input+0x154>)
 8008b56:	f001 f989 	bl	8009e6c <iprintf>
 8008b5a:	9807      	ldr	r0, [sp, #28]
 8008b5c:	2800      	cmp	r0, #0
 8008b5e:	d03c      	beq.n	8008bda <etharp_input+0xfe>
 8008b60:	4621      	mov	r1, r4
 8008b62:	f000 fcb8 	bl	80094d6 <ip4_addr_isbroadcast_u32>
 8008b66:	4681      	mov	r9, r0
 8008b68:	bbb8      	cbnz	r0, 8008bda <etharp_input+0xfe>
 8008b6a:	9b07      	ldr	r3, [sp, #28]
 8008b6c:	f003 03f0 	and.w	r3, r3, #240	; 0xf0
 8008b70:	2be0      	cmp	r3, #224	; 0xe0
 8008b72:	d032      	beq.n	8008bda <etharp_input+0xfe>
 8008b74:	4622      	mov	r2, r4
 8008b76:	4651      	mov	r1, sl
 8008b78:	a807      	add	r0, sp, #28
 8008b7a:	f7ff fe9f 	bl	80088bc <etharp_find_entry>
 8008b7e:	1e03      	subs	r3, r0, #0
 8008b80:	db2b      	blt.n	8008bda <etharp_input+0xfe>
 8008b82:	2018      	movs	r0, #24
 8008b84:	4a2c      	ldr	r2, [pc, #176]	; (8008c38 <etharp_input+0x15c>)
 8008b86:	f04f 0e02 	mov.w	lr, #2
 8008b8a:	fb00 fc03 	mul.w	ip, r0, r3
 8008b8e:	eb02 010c 	add.w	r1, r2, ip
 8008b92:	f881 e014 	strb.w	lr, [r1, #20]
 8008b96:	f04f 0e0c 	mov.w	lr, #12
 8008b9a:	608c      	str	r4, [r1, #8]
 8008b9c:	fb13 e300 	smlabb	r3, r3, r0, lr
 8008ba0:	68a8      	ldr	r0, [r5, #8]
 8008ba2:	eb02 0e03 	add.w	lr, r2, r3
 8008ba6:	50d0      	str	r0, [r2, r3]
 8008ba8:	f8b8 3004 	ldrh.w	r3, [r8, #4]
 8008bac:	f8ae 3004 	strh.w	r3, [lr, #4]
 8008bb0:	f8a1 9012 	strh.w	r9, [r1, #18]
 8008bb4:	f852 100c 	ldr.w	r1, [r2, ip]
 8008bb8:	b179      	cbz	r1, 8008bda <etharp_input+0xfe>
 8008bba:	f44f 6300 	mov.w	r3, #2048	; 0x800
 8008bbe:	f842 900c 	str.w	r9, [r2, ip]
 8008bc2:	4620      	mov	r0, r4
 8008bc4:	f104 022a 	add.w	r2, r4, #42	; 0x2a
 8008bc8:	9300      	str	r3, [sp, #0]
 8008bca:	4643      	mov	r3, r8
 8008bcc:	9105      	str	r1, [sp, #20]
 8008bce:	f001 f8cb 	bl	8009d68 <ethernet_output>
 8008bd2:	9905      	ldr	r1, [sp, #20]
 8008bd4:	4608      	mov	r0, r1
 8008bd6:	f7fa ff43 	bl	8003a60 <pbuf_free>
 8008bda:	88eb      	ldrh	r3, [r5, #6]
 8008bdc:	f5b3 7f80 	cmp.w	r3, #256	; 0x100
 8008be0:	d00b      	beq.n	8008bfa <etharp_input+0x11e>
 8008be2:	f5b3 7f00 	cmp.w	r3, #512	; 0x200
 8008be6:	d019      	beq.n	8008c1c <etharp_input+0x140>
 8008be8:	4638      	mov	r0, r7
 8008bea:	f7fa ff39 	bl	8003a60 <pbuf_free>
 8008bee:	b008      	add	sp, #32
 8008bf0:	e8bd 87f0 	ldmia.w	sp!, {r4, r5, r6, r7, r8, r9, sl, pc}
 8008bf4:	f04f 0a02 	mov.w	sl, #2
 8008bf8:	e7a4      	b.n	8008b44 <etharp_input+0x68>
 8008bfa:	2e00      	cmp	r6, #0
 8008bfc:	d0f4      	beq.n	8008be8 <etharp_input+0x10c>
 8008bfe:	2202      	movs	r2, #2
 8008c00:	f104 032a 	add.w	r3, r4, #42	; 0x2a
 8008c04:	4620      	mov	r0, r4
 8008c06:	9203      	str	r2, [sp, #12]
 8008c08:	aa07      	add	r2, sp, #28
 8008c0a:	4619      	mov	r1, r3
 8008c0c:	e9cd 8201 	strd	r8, r2, [sp, #4]
 8008c10:	1d22      	adds	r2, r4, #4
 8008c12:	9200      	str	r2, [sp, #0]
 8008c14:	4642      	mov	r2, r8
 8008c16:	f7ff fedf 	bl	80089d8 <etharp_raw>
 8008c1a:	e7e5      	b.n	8008be8 <etharp_input+0x10c>
 8008c1c:	a907      	add	r1, sp, #28
 8008c1e:	4620      	mov	r0, r4
 8008c20:	f7ff fba6 	bl	8008370 <dhcp_arp_reply>
 8008c24:	e7e0      	b.n	8008be8 <etharp_input+0x10c>
 8008c26:	bf00      	nop
 8008c28:	0800c99c 	.word	0x0800c99c
 8008c2c:	0800c83e 	.word	0x0800c83e
 8008c30:	0800af68 	.word	0x0800af68
 8008c34:	0800caa4 	.word	0x0800caa4
 8008c38:	20005d98 	.word	0x20005d98

08008c3c <etharp_request>:
 8008c3c:	b51f      	push	{r0, r1, r2, r3, r4, lr}
 8008c3e:	4602      	mov	r2, r0
 8008c40:	2401      	movs	r4, #1
 8008c42:	f100 032a 	add.w	r3, r0, #42	; 0x2a
 8008c46:	3204      	adds	r2, #4
 8008c48:	e9cd 1402 	strd	r1, r4, [sp, #8]
 8008c4c:	4904      	ldr	r1, [pc, #16]	; (8008c60 <etharp_request+0x24>)
 8008c4e:	9200      	str	r2, [sp, #0]
 8008c50:	9101      	str	r1, [sp, #4]
 8008c52:	4619      	mov	r1, r3
 8008c54:	4a03      	ldr	r2, [pc, #12]	; (8008c64 <etharp_request+0x28>)
 8008c56:	f7ff febf 	bl	80089d8 <etharp_raw>
 8008c5a:	b004      	add	sp, #16
 8008c5c:	bd10      	pop	{r4, pc}
 8008c5e:	bf00      	nop
 8008c60:	0800ce90 	.word	0x0800ce90
 8008c64:	0800ce8a 	.word	0x0800ce8a

08008c68 <etharp_tmr>:
 8008c68:	b5f8      	push	{r3, r4, r5, r6, r7, lr}
 8008c6a:	4c13      	ldr	r4, [pc, #76]	; (8008cb8 <etharp_tmr+0x50>)
 8008c6c:	2500      	movs	r5, #0
 8008c6e:	2602      	movs	r6, #2
 8008c70:	2704      	movs	r7, #4
 8008c72:	7d22      	ldrb	r2, [r4, #20]
 8008c74:	b16a      	cbz	r2, 8008c92 <etharp_tmr+0x2a>
 8008c76:	8a63      	ldrh	r3, [r4, #18]
 8008c78:	3301      	adds	r3, #1
 8008c7a:	b29b      	uxth	r3, r3
 8008c7c:	f5b3 7f96 	cmp.w	r3, #300	; 0x12c
 8008c80:	8263      	strh	r3, [r4, #18]
 8008c82:	d203      	bcs.n	8008c8c <etharp_tmr+0x24>
 8008c84:	2a01      	cmp	r2, #1
 8008c86:	d109      	bne.n	8008c9c <etharp_tmr+0x34>
 8008c88:	2b04      	cmp	r3, #4
 8008c8a:	d90f      	bls.n	8008cac <etharp_tmr+0x44>
 8008c8c:	4628      	mov	r0, r5
 8008c8e:	f7ff fe01 	bl	8008894 <etharp_free_entry>
 8008c92:	3501      	adds	r5, #1
 8008c94:	3418      	adds	r4, #24
 8008c96:	2d0a      	cmp	r5, #10
 8008c98:	d1eb      	bne.n	8008c72 <etharp_tmr+0xa>
 8008c9a:	bdf8      	pop	{r3, r4, r5, r6, r7, pc}
 8008c9c:	2a03      	cmp	r2, #3
 8008c9e:	d101      	bne.n	8008ca4 <etharp_tmr+0x3c>
 8008ca0:	7527      	strb	r7, [r4, #20]
 8008ca2:	e7f6      	b.n	8008c92 <etharp_tmr+0x2a>
 8008ca4:	2a04      	cmp	r2, #4
 8008ca6:	d1f4      	bne.n	8008c92 <etharp_tmr+0x2a>
 8008ca8:	7526      	strb	r6, [r4, #20]
 8008caa:	e7f2      	b.n	8008c92 <etharp_tmr+0x2a>
 8008cac:	1d21      	adds	r1, r4, #4
 8008cae:	68a0      	ldr	r0, [r4, #8]
 8008cb0:	f7ff ffc4 	bl	8008c3c <etharp_request>
 8008cb4:	e7ed      	b.n	8008c92 <etharp_tmr+0x2a>
 8008cb6:	bf00      	nop
 8008cb8:	20005d98 	.word	0x20005d98

08008cbc <etharp_output_to_arp_index>:
 8008cbc:	e92d 47ff 	stmdb	sp!, {r0, r1, r2, r3, r4, r5, r6, r7, r8, r9, sl, lr}
 8008cc0:	4f24      	ldr	r7, [pc, #144]	; (8008d54 <etharp_output_to_arp_index+0x98>)
 8008cc2:	2318      	movs	r3, #24
 8008cc4:	4606      	mov	r6, r0
 8008cc6:	4688      	mov	r8, r1
 8008cc8:	fb03 7302 	mla	r3, r3, r2, r7
 8008ccc:	4614      	mov	r4, r2
 8008cce:	7d1b      	ldrb	r3, [r3, #20]
 8008cd0:	2b01      	cmp	r3, #1
 8008cd2:	d806      	bhi.n	8008ce2 <etharp_output_to_arp_index+0x26>
 8008cd4:	4b20      	ldr	r3, [pc, #128]	; (8008d58 <etharp_output_to_arp_index+0x9c>)
 8008cd6:	f240 22ee 	movw	r2, #750	; 0x2ee
 8008cda:	4920      	ldr	r1, [pc, #128]	; (8008d5c <etharp_output_to_arp_index+0xa0>)
 8008cdc:	4820      	ldr	r0, [pc, #128]	; (8008d60 <etharp_output_to_arp_index+0xa4>)
 8008cde:	f001 f8c5 	bl	8009e6c <iprintf>
 8008ce2:	2218      	movs	r2, #24
 8008ce4:	eb04 0544 	add.w	r5, r4, r4, lsl #1
 8008ce8:	f106 092a 	add.w	r9, r6, #42	; 0x2a
 8008cec:	fb02 7404 	mla	r4, r2, r4, r7
 8008cf0:	00ed      	lsls	r5, r5, #3
 8008cf2:	7d23      	ldrb	r3, [r4, #20]
 8008cf4:	f105 0a0c 	add.w	sl, r5, #12
 8008cf8:	2b02      	cmp	r3, #2
 8008cfa:	44ba      	add	sl, r7
 8008cfc:	d10b      	bne.n	8008d16 <etharp_output_to_arp_index+0x5a>
 8008cfe:	8a63      	ldrh	r3, [r4, #18]
 8008d00:	f5b3 7f8e 	cmp.w	r3, #284	; 0x11c
 8008d04:	d913      	bls.n	8008d2e <etharp_output_to_arp_index+0x72>
 8008d06:	3504      	adds	r5, #4
 8008d08:	4630      	mov	r0, r6
 8008d0a:	1979      	adds	r1, r7, r5
 8008d0c:	f7ff ff96 	bl	8008c3c <etharp_request>
 8008d10:	b908      	cbnz	r0, 8008d16 <etharp_output_to_arp_index+0x5a>
 8008d12:	2303      	movs	r3, #3
 8008d14:	7523      	strb	r3, [r4, #20]
 8008d16:	f44f 6300 	mov.w	r3, #2048	; 0x800
 8008d1a:	464a      	mov	r2, r9
 8008d1c:	4641      	mov	r1, r8
 8008d1e:	4630      	mov	r0, r6
 8008d20:	9300      	str	r3, [sp, #0]
 8008d22:	4653      	mov	r3, sl
 8008d24:	f001 f820 	bl	8009d68 <ethernet_output>
 8008d28:	b004      	add	sp, #16
 8008d2a:	e8bd 87f0 	ldmia.w	sp!, {r4, r5, r6, r7, r8, r9, sl, pc}
 8008d2e:	f5b3 7f87 	cmp.w	r3, #270	; 0x10e
 8008d32:	d3f0      	bcc.n	8008d16 <etharp_output_to_arp_index+0x5a>
 8008d34:	2301      	movs	r3, #1
 8008d36:	3504      	adds	r5, #4
 8008d38:	4652      	mov	r2, sl
 8008d3a:	4649      	mov	r1, r9
 8008d3c:	9303      	str	r3, [sp, #12]
 8008d3e:	443d      	add	r5, r7
 8008d40:	4b08      	ldr	r3, [pc, #32]	; (8008d64 <etharp_output_to_arp_index+0xa8>)
 8008d42:	4630      	mov	r0, r6
 8008d44:	9502      	str	r5, [sp, #8]
 8008d46:	9301      	str	r3, [sp, #4]
 8008d48:	1d33      	adds	r3, r6, #4
 8008d4a:	9300      	str	r3, [sp, #0]
 8008d4c:	464b      	mov	r3, r9
 8008d4e:	f7ff fe43 	bl	80089d8 <etharp_raw>
 8008d52:	e7dd      	b.n	8008d10 <etharp_output_to_arp_index+0x54>
 8008d54:	20005d98 	.word	0x20005d98
 8008d58:	0800c99c 	.word	0x0800c99c
 8008d5c:	0800cac8 	.word	0x0800cac8
 8008d60:	0800af68 	.word	0x0800af68
 8008d64:	0800ce90 	.word	0x0800ce90

08008d68 <etharp_query>:
 8008d68:	e92d 47f3 	stmdb	sp!, {r0, r1, r4, r5, r6, r7, r8, r9, sl, lr}
 8008d6c:	460f      	mov	r7, r1
 8008d6e:	4606      	mov	r6, r0
 8008d70:	4601      	mov	r1, r0
 8008d72:	4615      	mov	r5, r2
 8008d74:	6838      	ldr	r0, [r7, #0]
 8008d76:	f000 fbae 	bl	80094d6 <ip4_addr_isbroadcast_u32>
 8008d7a:	2800      	cmp	r0, #0
 8008d7c:	d16b      	bne.n	8008e56 <etharp_query+0xee>
 8008d7e:	683b      	ldr	r3, [r7, #0]
 8008d80:	f003 02f0 	and.w	r2, r3, #240	; 0xf0
 8008d84:	2ae0      	cmp	r2, #224	; 0xe0
 8008d86:	d066      	beq.n	8008e56 <etharp_query+0xee>
 8008d88:	2b00      	cmp	r3, #0
 8008d8a:	d064      	beq.n	8008e56 <etharp_query+0xee>
 8008d8c:	4632      	mov	r2, r6
 8008d8e:	2101      	movs	r1, #1
 8008d90:	4638      	mov	r0, r7
 8008d92:	f7ff fd93 	bl	80088bc <etharp_find_entry>
 8008d96:	1e04      	subs	r4, r0, #0
 8008d98:	da03      	bge.n	8008da2 <etharp_query+0x3a>
 8008d9a:	b260      	sxtb	r0, r4
 8008d9c:	b002      	add	sp, #8
 8008d9e:	e8bd 87f0 	ldmia.w	sp!, {r4, r5, r6, r7, r8, r9, sl, pc}
 8008da2:	2c7e      	cmp	r4, #126	; 0x7e
 8008da4:	dd06      	ble.n	8008db4 <etharp_query+0x4c>
 8008da6:	4b36      	ldr	r3, [pc, #216]	; (8008e80 <etharp_query+0x118>)
 8008da8:	f240 32c1 	movw	r2, #961	; 0x3c1
 8008dac:	4935      	ldr	r1, [pc, #212]	; (8008e84 <etharp_query+0x11c>)
 8008dae:	4836      	ldr	r0, [pc, #216]	; (8008e88 <etharp_query+0x120>)
 8008db0:	f001 f85c 	bl	8009e6c <iprintf>
 8008db4:	b2e4      	uxtb	r4, r4
 8008db6:	f8df 80d8 	ldr.w	r8, [pc, #216]	; 8008e90 <etharp_query+0x128>
 8008dba:	2318      	movs	r3, #24
 8008dbc:	fb03 8304 	mla	r3, r3, r4, r8
 8008dc0:	7d1a      	ldrb	r2, [r3, #20]
 8008dc2:	2a00      	cmp	r2, #0
 8008dc4:	d156      	bne.n	8008e74 <etharp_query+0x10c>
 8008dc6:	2201      	movs	r2, #1
 8008dc8:	609e      	str	r6, [r3, #8]
 8008dca:	751a      	strb	r2, [r3, #20]
 8008dcc:	4639      	mov	r1, r7
 8008dce:	4630      	mov	r0, r6
 8008dd0:	f7ff ff34 	bl	8008c3c <etharp_request>
 8008dd4:	2d00      	cmp	r5, #0
 8008dd6:	d0e1      	beq.n	8008d9c <etharp_query+0x34>
 8008dd8:	2318      	movs	r3, #24
 8008dda:	fb03 8204 	mla	r2, r3, r4, r8
 8008dde:	7d12      	ldrb	r2, [r2, #20]
 8008de0:	2a01      	cmp	r2, #1
 8008de2:	d90e      	bls.n	8008e02 <etharp_query+0x9a>
 8008de4:	4a29      	ldr	r2, [pc, #164]	; (8008e8c <etharp_query+0x124>)
 8008de6:	fb03 8304 	mla	r3, r3, r4, r8
 8008dea:	4629      	mov	r1, r5
 8008dec:	4630      	mov	r0, r6
 8008dee:	7014      	strb	r4, [r2, #0]
 8008df0:	f44f 6200 	mov.w	r2, #2048	; 0x800
 8008df4:	330c      	adds	r3, #12
 8008df6:	9200      	str	r2, [sp, #0]
 8008df8:	f106 022a 	add.w	r2, r6, #42	; 0x2a
 8008dfc:	f000 ffb4 	bl	8009d68 <ethernet_output>
 8008e00:	e7cc      	b.n	8008d9c <etharp_query+0x34>
 8008e02:	d1cb      	bne.n	8008d9c <etharp_query+0x34>
 8008e04:	462e      	mov	r6, r5
 8008e06:	4f1e      	ldr	r7, [pc, #120]	; (8008e80 <etharp_query+0x118>)
 8008e08:	f8df 9088 	ldr.w	r9, [pc, #136]	; 8008e94 <etharp_query+0x12c>
 8008e0c:	f8df a078 	ldr.w	sl, [pc, #120]	; 8008e88 <etharp_query+0x120>
 8008e10:	8972      	ldrh	r2, [r6, #10]
 8008e12:	8933      	ldrh	r3, [r6, #8]
 8008e14:	429a      	cmp	r2, r3
 8008e16:	d108      	bne.n	8008e2a <etharp_query+0xc2>
 8008e18:	6833      	ldr	r3, [r6, #0]
 8008e1a:	b133      	cbz	r3, 8008e2a <etharp_query+0xc2>
 8008e1c:	463b      	mov	r3, r7
 8008e1e:	f240 32f1 	movw	r2, #1009	; 0x3f1
 8008e22:	4649      	mov	r1, r9
 8008e24:	4650      	mov	r0, sl
 8008e26:	f001 f821 	bl	8009e6c <iprintf>
 8008e2a:	7b33      	ldrb	r3, [r6, #12]
 8008e2c:	065b      	lsls	r3, r3, #25
 8008e2e:	d415      	bmi.n	8008e5c <etharp_query+0xf4>
 8008e30:	6836      	ldr	r6, [r6, #0]
 8008e32:	2e00      	cmp	r6, #0
 8008e34:	d1ec      	bne.n	8008e10 <etharp_query+0xa8>
 8008e36:	4628      	mov	r0, r5
 8008e38:	f7fa ff56 	bl	8003ce8 <pbuf_ref>
 8008e3c:	2618      	movs	r6, #24
 8008e3e:	fb06 f304 	mul.w	r3, r6, r4
 8008e42:	f858 0003 	ldr.w	r0, [r8, r3]
 8008e46:	b108      	cbz	r0, 8008e4c <etharp_query+0xe4>
 8008e48:	f7fa fe0a 	bl	8003a60 <pbuf_free>
 8008e4c:	4374      	muls	r4, r6
 8008e4e:	2000      	movs	r0, #0
 8008e50:	f848 5004 	str.w	r5, [r8, r4]
 8008e54:	e7a2      	b.n	8008d9c <etharp_query+0x34>
 8008e56:	f06f 000f 	mvn.w	r0, #15
 8008e5a:	e79f      	b.n	8008d9c <etharp_query+0x34>
 8008e5c:	462a      	mov	r2, r5
 8008e5e:	f44f 7120 	mov.w	r1, #640	; 0x280
 8008e62:	200e      	movs	r0, #14
 8008e64:	f7fb f860 	bl	8003f28 <pbuf_clone>
 8008e68:	4605      	mov	r5, r0
 8008e6a:	2800      	cmp	r0, #0
 8008e6c:	d1e6      	bne.n	8008e3c <etharp_query+0xd4>
 8008e6e:	f04f 30ff 	mov.w	r0, #4294967295
 8008e72:	e793      	b.n	8008d9c <etharp_query+0x34>
 8008e74:	2d00      	cmp	r5, #0
 8008e76:	d0a9      	beq.n	8008dcc <etharp_query+0x64>
 8008e78:	f04f 30ff 	mov.w	r0, #4294967295
 8008e7c:	e7ac      	b.n	8008dd8 <etharp_query+0x70>
 8008e7e:	bf00      	nop
 8008e80:	0800c99c 	.word	0x0800c99c
 8008e84:	0800caf8 	.word	0x0800caf8
 8008e88:	0800af68 	.word	0x0800af68
 8008e8c:	20005e88 	.word	0x20005e88
 8008e90:	20005d98 	.word	0x20005d98
 8008e94:	0800cb06 	.word	0x0800cb06

08008e98 <etharp_output>:
 8008e98:	b5f0      	push	{r4, r5, r6, r7, lr}
 8008e9a:	460e      	mov	r6, r1
 8008e9c:	b085      	sub	sp, #20
 8008e9e:	4615      	mov	r5, r2
 8008ea0:	4604      	mov	r4, r0
 8008ea2:	b930      	cbnz	r0, 8008eb2 <etharp_output+0x1a>
 8008ea4:	4b44      	ldr	r3, [pc, #272]	; (8008fb8 <etharp_output+0x120>)
 8008ea6:	f240 321e 	movw	r2, #798	; 0x31e
 8008eaa:	4944      	ldr	r1, [pc, #272]	; (8008fbc <etharp_output+0x124>)
 8008eac:	4844      	ldr	r0, [pc, #272]	; (8008fc0 <etharp_output+0x128>)
 8008eae:	f000 ffdd 	bl	8009e6c <iprintf>
 8008eb2:	b936      	cbnz	r6, 8008ec2 <etharp_output+0x2a>
 8008eb4:	4b40      	ldr	r3, [pc, #256]	; (8008fb8 <etharp_output+0x120>)
 8008eb6:	f240 321f 	movw	r2, #799	; 0x31f
 8008eba:	4942      	ldr	r1, [pc, #264]	; (8008fc4 <etharp_output+0x12c>)
 8008ebc:	4840      	ldr	r0, [pc, #256]	; (8008fc0 <etharp_output+0x128>)
 8008ebe:	f000 ffd5 	bl	8009e6c <iprintf>
 8008ec2:	b935      	cbnz	r5, 8008ed2 <etharp_output+0x3a>
 8008ec4:	4b3c      	ldr	r3, [pc, #240]	; (8008fb8 <etharp_output+0x120>)
 8008ec6:	f44f 7248 	mov.w	r2, #800	; 0x320
 8008eca:	493f      	ldr	r1, [pc, #252]	; (8008fc8 <etharp_output+0x130>)
 8008ecc:	483c      	ldr	r0, [pc, #240]	; (8008fc0 <etharp_output+0x128>)
 8008ece:	f000 ffcd 	bl	8009e6c <iprintf>
 8008ed2:	4621      	mov	r1, r4
 8008ed4:	6828      	ldr	r0, [r5, #0]
 8008ed6:	f000 fafe 	bl	80094d6 <ip4_addr_isbroadcast_u32>
 8008eda:	2800      	cmp	r0, #0
 8008edc:	d167      	bne.n	8008fae <etharp_output+0x116>
 8008ede:	682b      	ldr	r3, [r5, #0]
 8008ee0:	f003 02f0 	and.w	r2, r3, #240	; 0xf0
 8008ee4:	2ae0      	cmp	r2, #224	; 0xe0
 8008ee6:	d11e      	bne.n	8008f26 <etharp_output+0x8e>
 8008ee8:	2301      	movs	r3, #1
 8008eea:	f88d 0009 	strb.w	r0, [sp, #9]
 8008eee:	f88d 3008 	strb.w	r3, [sp, #8]
 8008ef2:	235e      	movs	r3, #94	; 0x5e
 8008ef4:	f88d 300a 	strb.w	r3, [sp, #10]
 8008ef8:	786b      	ldrb	r3, [r5, #1]
 8008efa:	f003 037f 	and.w	r3, r3, #127	; 0x7f
 8008efe:	f88d 300b 	strb.w	r3, [sp, #11]
 8008f02:	78ab      	ldrb	r3, [r5, #2]
 8008f04:	f88d 300c 	strb.w	r3, [sp, #12]
 8008f08:	78eb      	ldrb	r3, [r5, #3]
 8008f0a:	f88d 300d 	strb.w	r3, [sp, #13]
 8008f0e:	ab02      	add	r3, sp, #8
 8008f10:	f44f 6200 	mov.w	r2, #2048	; 0x800
 8008f14:	4631      	mov	r1, r6
 8008f16:	4620      	mov	r0, r4
 8008f18:	9200      	str	r2, [sp, #0]
 8008f1a:	f104 022a 	add.w	r2, r4, #42	; 0x2a
 8008f1e:	f000 ff23 	bl	8009d68 <ethernet_output>
 8008f22:	b005      	add	sp, #20
 8008f24:	bdf0      	pop	{r4, r5, r6, r7, pc}
 8008f26:	6862      	ldr	r2, [r4, #4]
 8008f28:	68a1      	ldr	r1, [r4, #8]
 8008f2a:	405a      	eors	r2, r3
 8008f2c:	420a      	tst	r2, r1
 8008f2e:	d009      	beq.n	8008f44 <etharp_output+0xac>
 8008f30:	b29b      	uxth	r3, r3
 8008f32:	f64f 62a9 	movw	r2, #65193	; 0xfea9
 8008f36:	4293      	cmp	r3, r2
 8008f38:	d004      	beq.n	8008f44 <etharp_output+0xac>
 8008f3a:	68e3      	ldr	r3, [r4, #12]
 8008f3c:	2b00      	cmp	r3, #0
 8008f3e:	d038      	beq.n	8008fb2 <etharp_output+0x11a>
 8008f40:	f104 050c 	add.w	r5, r4, #12
 8008f44:	f8df c08c 	ldr.w	ip, [pc, #140]	; 8008fd4 <etharp_output+0x13c>
 8008f48:	2118      	movs	r1, #24
 8008f4a:	4b20      	ldr	r3, [pc, #128]	; (8008fcc <etharp_output+0x134>)
 8008f4c:	f89c 2000 	ldrb.w	r2, [ip]
 8008f50:	fb01 3302 	mla	r3, r1, r2, r3
 8008f54:	7d19      	ldrb	r1, [r3, #20]
 8008f56:	2901      	cmp	r1, #1
 8008f58:	d90d      	bls.n	8008f76 <etharp_output+0xde>
 8008f5a:	6899      	ldr	r1, [r3, #8]
 8008f5c:	42a1      	cmp	r1, r4
 8008f5e:	d10a      	bne.n	8008f76 <etharp_output+0xde>
 8008f60:	6829      	ldr	r1, [r5, #0]
 8008f62:	685b      	ldr	r3, [r3, #4]
 8008f64:	4299      	cmp	r1, r3
 8008f66:	d106      	bne.n	8008f76 <etharp_output+0xde>
 8008f68:	4631      	mov	r1, r6
 8008f6a:	4620      	mov	r0, r4
 8008f6c:	b005      	add	sp, #20
 8008f6e:	e8bd 40f0 	ldmia.w	sp!, {r4, r5, r6, r7, lr}
 8008f72:	f7ff bea3 	b.w	8008cbc <etharp_output_to_arp_index>
 8008f76:	4b15      	ldr	r3, [pc, #84]	; (8008fcc <etharp_output+0x134>)
 8008f78:	2100      	movs	r1, #0
 8008f7a:	7d1f      	ldrb	r7, [r3, #20]
 8008f7c:	b2ca      	uxtb	r2, r1
 8008f7e:	2f01      	cmp	r7, #1
 8008f80:	d909      	bls.n	8008f96 <etharp_output+0xfe>
 8008f82:	689f      	ldr	r7, [r3, #8]
 8008f84:	42a7      	cmp	r7, r4
 8008f86:	d106      	bne.n	8008f96 <etharp_output+0xfe>
 8008f88:	685f      	ldr	r7, [r3, #4]
 8008f8a:	6828      	ldr	r0, [r5, #0]
 8008f8c:	42b8      	cmp	r0, r7
 8008f8e:	d102      	bne.n	8008f96 <etharp_output+0xfe>
 8008f90:	f88c 2000 	strb.w	r2, [ip]
 8008f94:	e7e8      	b.n	8008f68 <etharp_output+0xd0>
 8008f96:	3101      	adds	r1, #1
 8008f98:	3318      	adds	r3, #24
 8008f9a:	290a      	cmp	r1, #10
 8008f9c:	d1ed      	bne.n	8008f7a <etharp_output+0xe2>
 8008f9e:	4632      	mov	r2, r6
 8008fa0:	4629      	mov	r1, r5
 8008fa2:	4620      	mov	r0, r4
 8008fa4:	b005      	add	sp, #20
 8008fa6:	e8bd 40f0 	ldmia.w	sp!, {r4, r5, r6, r7, lr}
 8008faa:	f7ff bedd 	b.w	8008d68 <etharp_query>
 8008fae:	4b08      	ldr	r3, [pc, #32]	; (8008fd0 <etharp_output+0x138>)
 8008fb0:	e7ae      	b.n	8008f10 <etharp_output+0x78>
 8008fb2:	f06f 0003 	mvn.w	r0, #3
 8008fb6:	e7b4      	b.n	8008f22 <etharp_output+0x8a>
 8008fb8:	0800c99c 	.word	0x0800c99c
 8008fbc:	0800c83e 	.word	0x0800c83e
 8008fc0:	0800af68 	.word	0x0800af68
 8008fc4:	0800b4d5 	.word	0x0800b4d5
 8008fc8:	0800ca85 	.word	0x0800ca85
 8008fcc:	20005d98 	.word	0x20005d98
 8008fd0:	0800ce8a 	.word	0x0800ce8a
 8008fd4:	20005e88 	.word	0x20005e88

08008fd8 <icmp_send_response>:
 8008fd8:	b5f0      	push	{r4, r5, r6, r7, lr}
 8008fda:	4604      	mov	r4, r0
 8008fdc:	b087      	sub	sp, #28
 8008fde:	460f      	mov	r7, r1
 8008fe0:	4616      	mov	r6, r2
 8008fe2:	2124      	movs	r1, #36	; 0x24
 8008fe4:	f44f 7220 	mov.w	r2, #640	; 0x280
 8008fe8:	2022      	movs	r0, #34	; 0x22
 8008fea:	f7fa fd9d 	bl	8003b28 <pbuf_alloc>
 8008fee:	4605      	mov	r5, r0
 8008ff0:	b390      	cbz	r0, 8009058 <icmp_send_response+0x80>
 8008ff2:	8943      	ldrh	r3, [r0, #10]
 8008ff4:	2b23      	cmp	r3, #35	; 0x23
 8008ff6:	d806      	bhi.n	8009006 <icmp_send_response+0x2e>
 8008ff8:	4b18      	ldr	r3, [pc, #96]	; (800905c <icmp_send_response+0x84>)
 8008ffa:	f44f 72b4 	mov.w	r2, #360	; 0x168
 8008ffe:	4918      	ldr	r1, [pc, #96]	; (8009060 <icmp_send_response+0x88>)
 8009000:	4818      	ldr	r0, [pc, #96]	; (8009064 <icmp_send_response+0x8c>)
 8009002:	f000 ff33 	bl	8009e6c <iprintf>
 8009006:	6860      	ldr	r0, [r4, #4]
 8009008:	2300      	movs	r3, #0
 800900a:	686c      	ldr	r4, [r5, #4]
 800900c:	f100 011c 	add.w	r1, r0, #28
 8009010:	7123      	strb	r3, [r4, #4]
 8009012:	f104 0208 	add.w	r2, r4, #8
 8009016:	7163      	strb	r3, [r4, #5]
 8009018:	71a3      	strb	r3, [r4, #6]
 800901a:	71e3      	strb	r3, [r4, #7]
 800901c:	4603      	mov	r3, r0
 800901e:	7027      	strb	r7, [r4, #0]
 8009020:	7066      	strb	r6, [r4, #1]
 8009022:	f853 6b04 	ldr.w	r6, [r3], #4
 8009026:	428b      	cmp	r3, r1
 8009028:	f842 6b04 	str.w	r6, [r2], #4
 800902c:	d1f9      	bne.n	8009022 <icmp_send_response+0x4a>
 800902e:	68c3      	ldr	r3, [r0, #12]
 8009030:	a805      	add	r0, sp, #20
 8009032:	9305      	str	r3, [sp, #20]
 8009034:	f000 f8d0 	bl	80091d8 <ip4_route>
 8009038:	b158      	cbz	r0, 8009052 <icmp_send_response+0x7a>
 800903a:	2100      	movs	r1, #0
 800903c:	2301      	movs	r3, #1
 800903e:	aa05      	add	r2, sp, #20
 8009040:	70a1      	strb	r1, [r4, #2]
 8009042:	70e1      	strb	r1, [r4, #3]
 8009044:	9002      	str	r0, [sp, #8]
 8009046:	4628      	mov	r0, r5
 8009048:	e9cd 1300 	strd	r1, r3, [sp]
 800904c:	23ff      	movs	r3, #255	; 0xff
 800904e:	f000 fa31 	bl	80094b4 <ip4_output_if>
 8009052:	4628      	mov	r0, r5
 8009054:	f7fa fd04 	bl	8003a60 <pbuf_free>
 8009058:	b007      	add	sp, #28
 800905a:	bdf0      	pop	{r4, r5, r6, r7, pc}
 800905c:	0800cb20 	.word	0x0800cb20
 8009060:	0800cb55 	.word	0x0800cb55
 8009064:	0800af68 	.word	0x0800af68

08009068 <icmp_input>:
 8009068:	e92d 43f0 	stmdb	sp!, {r4, r5, r6, r7, r8, r9, lr}
 800906c:	4f43      	ldr	r7, [pc, #268]	; (800917c <icmp_input+0x114>)
 800906e:	b087      	sub	sp, #28
 8009070:	4604      	mov	r4, r0
 8009072:	4688      	mov	r8, r1
 8009074:	f8d7 9008 	ldr.w	r9, [r7, #8]
 8009078:	f899 5000 	ldrb.w	r5, [r9]
 800907c:	f005 050f 	and.w	r5, r5, #15
 8009080:	00ad      	lsls	r5, r5, #2
 8009082:	2d13      	cmp	r5, #19
 8009084:	d92f      	bls.n	80090e6 <icmp_input+0x7e>
 8009086:	8943      	ldrh	r3, [r0, #10]
 8009088:	2b03      	cmp	r3, #3
 800908a:	d92c      	bls.n	80090e6 <icmp_input+0x7e>
 800908c:	6843      	ldr	r3, [r0, #4]
 800908e:	781b      	ldrb	r3, [r3, #0]
 8009090:	2b08      	cmp	r3, #8
 8009092:	d128      	bne.n	80090e6 <icmp_input+0x7e>
 8009094:	6978      	ldr	r0, [r7, #20]
 8009096:	f000 03f0 	and.w	r3, r0, #240	; 0xf0
 800909a:	2be0      	cmp	r3, #224	; 0xe0
 800909c:	d023      	beq.n	80090e6 <icmp_input+0x7e>
 800909e:	6839      	ldr	r1, [r7, #0]
 80090a0:	f000 fa19 	bl	80094d6 <ip4_addr_isbroadcast_u32>
 80090a4:	b9f8      	cbnz	r0, 80090e6 <icmp_input+0x7e>
 80090a6:	8923      	ldrh	r3, [r4, #8]
 80090a8:	2b07      	cmp	r3, #7
 80090aa:	d91c      	bls.n	80090e6 <icmp_input+0x7e>
 80090ac:	f105 010e 	add.w	r1, r5, #14
 80090b0:	4620      	mov	r0, r4
 80090b2:	9105      	str	r1, [sp, #20]
 80090b4:	f7fa fc9c 	bl	80039f0 <pbuf_add_header>
 80090b8:	9905      	ldr	r1, [sp, #20]
 80090ba:	2800      	cmp	r0, #0
 80090bc:	d052      	beq.n	8009164 <icmp_input+0xfc>
 80090be:	8923      	ldrh	r3, [r4, #8]
 80090c0:	1959      	adds	r1, r3, r5
 80090c2:	b289      	uxth	r1, r1
 80090c4:	428b      	cmp	r3, r1
 80090c6:	d80e      	bhi.n	80090e6 <icmp_input+0x7e>
 80090c8:	f44f 7220 	mov.w	r2, #640	; 0x280
 80090cc:	200e      	movs	r0, #14
 80090ce:	f7fa fd2b 	bl	8003b28 <pbuf_alloc>
 80090d2:	4606      	mov	r6, r0
 80090d4:	b138      	cbz	r0, 80090e6 <icmp_input+0x7e>
 80090d6:	8942      	ldrh	r2, [r0, #10]
 80090d8:	f105 0308 	add.w	r3, r5, #8
 80090dc:	429a      	cmp	r2, r3
 80090de:	d208      	bcs.n	80090f2 <icmp_input+0x8a>
 80090e0:	4630      	mov	r0, r6
 80090e2:	f7fa fcbd 	bl	8003a60 <pbuf_free>
 80090e6:	4620      	mov	r0, r4
 80090e8:	b007      	add	sp, #28
 80090ea:	e8bd 43f0 	ldmia.w	sp!, {r4, r5, r6, r7, r8, r9, lr}
 80090ee:	f7fa bcb7 	b.w	8003a60 <pbuf_free>
 80090f2:	4649      	mov	r1, r9
 80090f4:	462a      	mov	r2, r5
 80090f6:	6840      	ldr	r0, [r0, #4]
 80090f8:	f000 fea2 	bl	8009e40 <memcpy>
 80090fc:	4629      	mov	r1, r5
 80090fe:	4630      	mov	r0, r6
 8009100:	f7fa fc7a 	bl	80039f8 <pbuf_remove_header>
 8009104:	b130      	cbz	r0, 8009114 <icmp_input+0xac>
 8009106:	4b1e      	ldr	r3, [pc, #120]	; (8009180 <icmp_input+0x118>)
 8009108:	22b6      	movs	r2, #182	; 0xb6
 800910a:	491e      	ldr	r1, [pc, #120]	; (8009184 <icmp_input+0x11c>)
 800910c:	481e      	ldr	r0, [pc, #120]	; (8009188 <icmp_input+0x120>)
 800910e:	f000 fead 	bl	8009e6c <iprintf>
 8009112:	e7e5      	b.n	80090e0 <icmp_input+0x78>
 8009114:	4621      	mov	r1, r4
 8009116:	4630      	mov	r0, r6
 8009118:	f7fa fe3e 	bl	8003d98 <pbuf_copy>
 800911c:	2800      	cmp	r0, #0
 800911e:	d1df      	bne.n	80090e0 <icmp_input+0x78>
 8009120:	4620      	mov	r0, r4
 8009122:	4634      	mov	r4, r6
 8009124:	f7fa fc9c 	bl	8003a60 <pbuf_free>
 8009128:	4629      	mov	r1, r5
 800912a:	4620      	mov	r0, r4
 800912c:	6866      	ldr	r6, [r4, #4]
 800912e:	f7fa fc5f 	bl	80039f0 <pbuf_add_header>
 8009132:	2800      	cmp	r0, #0
 8009134:	d1d7      	bne.n	80090e6 <icmp_input+0x7e>
 8009136:	6862      	ldr	r2, [r4, #4]
 8009138:	697b      	ldr	r3, [r7, #20]
 800913a:	4914      	ldr	r1, [pc, #80]	; (800918c <icmp_input+0x124>)
 800913c:	60d3      	str	r3, [r2, #12]
 800913e:	693b      	ldr	r3, [r7, #16]
 8009140:	6113      	str	r3, [r2, #16]
 8009142:	23ff      	movs	r3, #255	; 0xff
 8009144:	7030      	strb	r0, [r6, #0]
 8009146:	70b0      	strb	r0, [r6, #2]
 8009148:	70f0      	strb	r0, [r6, #3]
 800914a:	7213      	strb	r3, [r2, #8]
 800914c:	7290      	strb	r0, [r2, #10]
 800914e:	72d0      	strb	r0, [r2, #11]
 8009150:	2201      	movs	r2, #1
 8009152:	f8cd 8008 	str.w	r8, [sp, #8]
 8009156:	e9cd 0200 	strd	r0, r2, [sp]
 800915a:	4602      	mov	r2, r0
 800915c:	4620      	mov	r0, r4
 800915e:	f000 f9a9 	bl	80094b4 <ip4_output_if>
 8009162:	e7c0      	b.n	80090e6 <icmp_input+0x7e>
 8009164:	4620      	mov	r0, r4
 8009166:	f7fa fc47 	bl	80039f8 <pbuf_remove_header>
 800916a:	2800      	cmp	r0, #0
 800916c:	d0dc      	beq.n	8009128 <icmp_input+0xc0>
 800916e:	4b04      	ldr	r3, [pc, #16]	; (8009180 <icmp_input+0x118>)
 8009170:	22c7      	movs	r2, #199	; 0xc7
 8009172:	4907      	ldr	r1, [pc, #28]	; (8009190 <icmp_input+0x128>)
 8009174:	4804      	ldr	r0, [pc, #16]	; (8009188 <icmp_input+0x120>)
 8009176:	f000 fe79 	bl	8009e6c <iprintf>
 800917a:	e7b4      	b.n	80090e6 <icmp_input+0x7e>
 800917c:	200005b0 	.word	0x200005b0
 8009180:	0800cb20 	.word	0x0800cb20
 8009184:	0800cb81 	.word	0x0800cb81
 8009188:	0800af68 	.word	0x0800af68
 800918c:	200005c4 	.word	0x200005c4
 8009190:	0800cbb6 	.word	0x0800cbb6

08009194 <icmp_dest_unreach>:
 8009194:	460a      	mov	r2, r1
 8009196:	2103      	movs	r1, #3
 8009198:	f7ff bf1e 	b.w	8008fd8 <icmp_send_response>

0800919c <icmp_time_exceeded>:
 800919c:	460a      	mov	r2, r1
 800919e:	210b      	movs	r1, #11
 80091a0:	f7ff bf1a 	b.w	8008fd8 <icmp_send_response>

080091a4 <ip4_input_accept>:
 80091a4:	b508      	push	{r3, lr}
 80091a6:	f890 3031 	ldrb.w	r3, [r0, #49]	; 0x31
 80091aa:	4601      	mov	r1, r0
 80091ac:	f013 0301 	ands.w	r3, r3, #1
 80091b0:	d00b      	beq.n	80091ca <ip4_input_accept+0x26>
 80091b2:	6843      	ldr	r3, [r0, #4]
 80091b4:	b14b      	cbz	r3, 80091ca <ip4_input_accept+0x26>
 80091b6:	4a07      	ldr	r2, [pc, #28]	; (80091d4 <ip4_input_accept+0x30>)
 80091b8:	6950      	ldr	r0, [r2, #20]
 80091ba:	4283      	cmp	r3, r0
 80091bc:	d007      	beq.n	80091ce <ip4_input_accept+0x2a>
 80091be:	f000 f98a 	bl	80094d6 <ip4_addr_isbroadcast_u32>
 80091c2:	3800      	subs	r0, #0
 80091c4:	bf18      	it	ne
 80091c6:	2001      	movne	r0, #1
 80091c8:	bd08      	pop	{r3, pc}
 80091ca:	4618      	mov	r0, r3
 80091cc:	e7fc      	b.n	80091c8 <ip4_input_accept+0x24>
 80091ce:	2001      	movs	r0, #1
 80091d0:	e7fa      	b.n	80091c8 <ip4_input_accept+0x24>
 80091d2:	bf00      	nop
 80091d4:	200005b0 	.word	0x200005b0

080091d8 <ip4_route>:
 80091d8:	4b14      	ldr	r3, [pc, #80]	; (800922c <ip4_route+0x54>)
 80091da:	4602      	mov	r2, r0
 80091dc:	6818      	ldr	r0, [r3, #0]
 80091de:	b530      	push	{r4, r5, lr}
 80091e0:	b978      	cbnz	r0, 8009202 <ip4_route+0x2a>
 80091e2:	4b13      	ldr	r3, [pc, #76]	; (8009230 <ip4_route+0x58>)
 80091e4:	681b      	ldr	r3, [r3, #0]
 80091e6:	b15b      	cbz	r3, 8009200 <ip4_route+0x28>
 80091e8:	f893 1031 	ldrb.w	r1, [r3, #49]	; 0x31
 80091ec:	f001 0105 	and.w	r1, r1, #5
 80091f0:	2905      	cmp	r1, #5
 80091f2:	d105      	bne.n	8009200 <ip4_route+0x28>
 80091f4:	6859      	ldr	r1, [r3, #4]
 80091f6:	b119      	cbz	r1, 8009200 <ip4_route+0x28>
 80091f8:	7812      	ldrb	r2, [r2, #0]
 80091fa:	2a7f      	cmp	r2, #127	; 0x7f
 80091fc:	bf18      	it	ne
 80091fe:	4618      	movne	r0, r3
 8009200:	bd30      	pop	{r4, r5, pc}
 8009202:	f890 1031 	ldrb.w	r1, [r0, #49]	; 0x31
 8009206:	07cd      	lsls	r5, r1, #31
 8009208:	d50d      	bpl.n	8009226 <ip4_route+0x4e>
 800920a:	074c      	lsls	r4, r1, #29
 800920c:	d50b      	bpl.n	8009226 <ip4_route+0x4e>
 800920e:	6843      	ldr	r3, [r0, #4]
 8009210:	b14b      	cbz	r3, 8009226 <ip4_route+0x4e>
 8009212:	6814      	ldr	r4, [r2, #0]
 8009214:	6885      	ldr	r5, [r0, #8]
 8009216:	4063      	eors	r3, r4
 8009218:	422b      	tst	r3, r5
 800921a:	d0f1      	beq.n	8009200 <ip4_route+0x28>
 800921c:	078b      	lsls	r3, r1, #30
 800921e:	d402      	bmi.n	8009226 <ip4_route+0x4e>
 8009220:	68c3      	ldr	r3, [r0, #12]
 8009222:	429c      	cmp	r4, r3
 8009224:	d0ec      	beq.n	8009200 <ip4_route+0x28>
 8009226:	6800      	ldr	r0, [r0, #0]
 8009228:	e7da      	b.n	80091e0 <ip4_route+0x8>
 800922a:	bf00      	nop
 800922c:	20005cf0 	.word	0x20005cf0
 8009230:	20005cec 	.word	0x20005cec

08009234 <ip4_input>:
 8009234:	e92d 43f8 	stmdb	sp!, {r3, r4, r5, r6, r7, r8, r9, lr}
 8009238:	f8d0 8004 	ldr.w	r8, [r0, #4]
 800923c:	4604      	mov	r4, r0
 800923e:	460e      	mov	r6, r1
 8009240:	f898 5000 	ldrb.w	r5, [r8]
 8009244:	092b      	lsrs	r3, r5, #4
 8009246:	2b04      	cmp	r3, #4
 8009248:	d005      	beq.n	8009256 <ip4_input+0x22>
 800924a:	4620      	mov	r0, r4
 800924c:	f7fa fc08 	bl	8003a60 <pbuf_free>
 8009250:	2000      	movs	r0, #0
 8009252:	e8bd 83f8 	ldmia.w	sp!, {r3, r4, r5, r6, r7, r8, r9, pc}
 8009256:	f8b8 0002 	ldrh.w	r0, [r8, #2]
 800925a:	f005 050f 	and.w	r5, r5, #15
 800925e:	f7f9 ff23 	bl	80030a8 <lwip_htons>
 8009262:	8923      	ldrh	r3, [r4, #8]
 8009264:	ea4f 0985 	mov.w	r9, r5, lsl #2
 8009268:	4607      	mov	r7, r0
 800926a:	4283      	cmp	r3, r0
 800926c:	464d      	mov	r5, r9
 800926e:	d903      	bls.n	8009278 <ip4_input+0x44>
 8009270:	4601      	mov	r1, r0
 8009272:	4620      	mov	r0, r4
 8009274:	f7fa fcd8 	bl	8003c28 <pbuf_realloc>
 8009278:	8963      	ldrh	r3, [r4, #10]
 800927a:	42ab      	cmp	r3, r5
 800927c:	d3e5      	bcc.n	800924a <ip4_input+0x16>
 800927e:	8923      	ldrh	r3, [r4, #8]
 8009280:	42bb      	cmp	r3, r7
 8009282:	d3e2      	bcc.n	800924a <ip4_input+0x16>
 8009284:	2d13      	cmp	r5, #19
 8009286:	d9e0      	bls.n	800924a <ip4_input+0x16>
 8009288:	f8d8 3010 	ldr.w	r3, [r8, #16]
 800928c:	4d49      	ldr	r5, [pc, #292]	; (80093b4 <ip4_input+0x180>)
 800928e:	616b      	str	r3, [r5, #20]
 8009290:	f003 03f0 	and.w	r3, r3, #240	; 0xf0
 8009294:	f8d8 200c 	ldr.w	r2, [r8, #12]
 8009298:	2be0      	cmp	r3, #224	; 0xe0
 800929a:	612a      	str	r2, [r5, #16]
 800929c:	d143      	bne.n	8009326 <ip4_input+0xf2>
 800929e:	f896 3031 	ldrb.w	r3, [r6, #49]	; 0x31
 80092a2:	07db      	lsls	r3, r3, #31
 80092a4:	d405      	bmi.n	80092b2 <ip4_input+0x7e>
 80092a6:	f898 3009 	ldrb.w	r3, [r8, #9]
 80092aa:	2b11      	cmp	r3, #17
 80092ac:	d053      	beq.n	8009356 <ip4_input+0x122>
 80092ae:	2700      	movs	r7, #0
 80092b0:	e003      	b.n	80092ba <ip4_input+0x86>
 80092b2:	6873      	ldr	r3, [r6, #4]
 80092b4:	2b00      	cmp	r3, #0
 80092b6:	d0f6      	beq.n	80092a6 <ip4_input+0x72>
 80092b8:	4637      	mov	r7, r6
 80092ba:	6928      	ldr	r0, [r5, #16]
 80092bc:	b148      	cbz	r0, 80092d2 <ip4_input+0x9e>
 80092be:	4631      	mov	r1, r6
 80092c0:	f000 f909 	bl	80094d6 <ip4_addr_isbroadcast_u32>
 80092c4:	2800      	cmp	r0, #0
 80092c6:	d1c0      	bne.n	800924a <ip4_input+0x16>
 80092c8:	692b      	ldr	r3, [r5, #16]
 80092ca:	f003 03f0 	and.w	r3, r3, #240	; 0xf0
 80092ce:	2be0      	cmp	r3, #224	; 0xe0
 80092d0:	d0bb      	beq.n	800924a <ip4_input+0x16>
 80092d2:	2f00      	cmp	r7, #0
 80092d4:	d0b9      	beq.n	800924a <ip4_input+0x16>
 80092d6:	f8b8 3006 	ldrh.w	r3, [r8, #6]
 80092da:	f023 03c0 	bic.w	r3, r3, #192	; 0xc0
 80092de:	b13b      	cbz	r3, 80092f0 <ip4_input+0xbc>
 80092e0:	4620      	mov	r0, r4
 80092e2:	f000 fa2b 	bl	800973c <ip4_reass>
 80092e6:	4604      	mov	r4, r0
 80092e8:	2800      	cmp	r0, #0
 80092ea:	d0b1      	beq.n	8009250 <ip4_input+0x1c>
 80092ec:	f8d0 8004 	ldr.w	r8, [r0, #4]
 80092f0:	f8c5 8008 	str.w	r8, [r5, #8]
 80092f4:	4649      	mov	r1, r9
 80092f6:	4620      	mov	r0, r4
 80092f8:	e9c5 7600 	strd	r7, r6, [r5]
 80092fc:	f898 3000 	ldrb.w	r3, [r8]
 8009300:	f003 030f 	and.w	r3, r3, #15
 8009304:	009b      	lsls	r3, r3, #2
 8009306:	81ab      	strh	r3, [r5, #12]
 8009308:	f7fa fb76 	bl	80039f8 <pbuf_remove_header>
 800930c:	f898 3009 	ldrb.w	r3, [r8, #9]
 8009310:	2b06      	cmp	r3, #6
 8009312:	d034      	beq.n	800937e <ip4_input+0x14a>
 8009314:	2b11      	cmp	r3, #17
 8009316:	d026      	beq.n	8009366 <ip4_input+0x132>
 8009318:	2b01      	cmp	r3, #1
 800931a:	d135      	bne.n	8009388 <ip4_input+0x154>
 800931c:	4631      	mov	r1, r6
 800931e:	4620      	mov	r0, r4
 8009320:	f7ff fea2 	bl	8009068 <icmp_input>
 8009324:	e023      	b.n	800936e <ip4_input+0x13a>
 8009326:	4630      	mov	r0, r6
 8009328:	f7ff ff3c 	bl	80091a4 <ip4_input_accept>
 800932c:	b980      	cbnz	r0, 8009350 <ip4_input+0x11c>
 800932e:	7d2b      	ldrb	r3, [r5, #20]
 8009330:	2b7f      	cmp	r3, #127	; 0x7f
 8009332:	d0b8      	beq.n	80092a6 <ip4_input+0x72>
 8009334:	4b20      	ldr	r3, [pc, #128]	; (80093b8 <ip4_input+0x184>)
 8009336:	681f      	ldr	r7, [r3, #0]
 8009338:	2f00      	cmp	r7, #0
 800933a:	d0b4      	beq.n	80092a6 <ip4_input+0x72>
 800933c:	42b7      	cmp	r7, r6
 800933e:	d101      	bne.n	8009344 <ip4_input+0x110>
 8009340:	683f      	ldr	r7, [r7, #0]
 8009342:	e7f9      	b.n	8009338 <ip4_input+0x104>
 8009344:	4638      	mov	r0, r7
 8009346:	f7ff ff2d 	bl	80091a4 <ip4_input_accept>
 800934a:	2800      	cmp	r0, #0
 800934c:	d0f8      	beq.n	8009340 <ip4_input+0x10c>
 800934e:	e7b4      	b.n	80092ba <ip4_input+0x86>
 8009350:	2e00      	cmp	r6, #0
 8009352:	d1b1      	bne.n	80092b8 <ip4_input+0x84>
 8009354:	e7a7      	b.n	80092a6 <ip4_input+0x72>
 8009356:	eb08 0309 	add.w	r3, r8, r9
 800935a:	885b      	ldrh	r3, [r3, #2]
 800935c:	f5b3 4f88 	cmp.w	r3, #17408	; 0x4400
 8009360:	d1a5      	bne.n	80092ae <ip4_input+0x7a>
 8009362:	4637      	mov	r7, r6
 8009364:	e7b5      	b.n	80092d2 <ip4_input+0x9e>
 8009366:	4631      	mov	r1, r6
 8009368:	4620      	mov	r0, r4
 800936a:	f7fd ff3b 	bl	80071e4 <udp_input>
 800936e:	2300      	movs	r3, #0
 8009370:	e9c5 3300 	strd	r3, r3, [r5]
 8009374:	60ab      	str	r3, [r5, #8]
 8009376:	81ab      	strh	r3, [r5, #12]
 8009378:	e9c5 3304 	strd	r3, r3, [r5, #16]
 800937c:	e768      	b.n	8009250 <ip4_input+0x1c>
 800937e:	4631      	mov	r1, r6
 8009380:	4620      	mov	r0, r4
 8009382:	f7fc fa5b 	bl	800583c <tcp_input>
 8009386:	e7f2      	b.n	800936e <ip4_input+0x13a>
 8009388:	4639      	mov	r1, r7
 800938a:	6968      	ldr	r0, [r5, #20]
 800938c:	f000 f8a3 	bl	80094d6 <ip4_addr_isbroadcast_u32>
 8009390:	b960      	cbnz	r0, 80093ac <ip4_input+0x178>
 8009392:	696b      	ldr	r3, [r5, #20]
 8009394:	f003 03f0 	and.w	r3, r3, #240	; 0xf0
 8009398:	2be0      	cmp	r3, #224	; 0xe0
 800939a:	d007      	beq.n	80093ac <ip4_input+0x178>
 800939c:	4649      	mov	r1, r9
 800939e:	4620      	mov	r0, r4
 80093a0:	f7fa fb56 	bl	8003a50 <pbuf_header_force>
 80093a4:	2102      	movs	r1, #2
 80093a6:	4620      	mov	r0, r4
 80093a8:	f7ff fef4 	bl	8009194 <icmp_dest_unreach>
 80093ac:	4620      	mov	r0, r4
 80093ae:	f7fa fb57 	bl	8003a60 <pbuf_free>
 80093b2:	e7dc      	b.n	800936e <ip4_input+0x13a>
 80093b4:	200005b0 	.word	0x200005b0
 80093b8:	20005cf0 	.word	0x20005cf0

080093bc <ip4_output_if_src>:
 80093bc:	e92d 47f3 	stmdb	sp!, {r0, r1, r4, r5, r6, r7, r8, r9, sl, lr}
 80093c0:	4698      	mov	r8, r3
 80093c2:	7b83      	ldrb	r3, [r0, #14]
 80093c4:	4604      	mov	r4, r0
 80093c6:	4689      	mov	r9, r1
 80093c8:	2b01      	cmp	r3, #1
 80093ca:	4616      	mov	r6, r2
 80093cc:	9f0c      	ldr	r7, [sp, #48]	; 0x30
 80093ce:	d006      	beq.n	80093de <ip4_output_if_src+0x22>
 80093d0:	4b32      	ldr	r3, [pc, #200]	; (800949c <ip4_output_if_src+0xe0>)
 80093d2:	f44f 7255 	mov.w	r2, #852	; 0x354
 80093d6:	4932      	ldr	r1, [pc, #200]	; (80094a0 <ip4_output_if_src+0xe4>)
 80093d8:	4832      	ldr	r0, [pc, #200]	; (80094a4 <ip4_output_if_src+0xe8>)
 80093da:	f000 fd47 	bl	8009e6c <iprintf>
 80093de:	2e00      	cmp	r6, #0
 80093e0:	d04e      	beq.n	8009480 <ip4_output_if_src+0xc4>
 80093e2:	2114      	movs	r1, #20
 80093e4:	4620      	mov	r0, r4
 80093e6:	f7fa fb03 	bl	80039f0 <pbuf_add_header>
 80093ea:	b120      	cbz	r0, 80093f6 <ip4_output_if_src+0x3a>
 80093ec:	f06f 0001 	mvn.w	r0, #1
 80093f0:	b002      	add	sp, #8
 80093f2:	e8bd 87f0 	ldmia.w	sp!, {r4, r5, r6, r7, r8, r9, sl, pc}
 80093f6:	8963      	ldrh	r3, [r4, #10]
 80093f8:	6865      	ldr	r5, [r4, #4]
 80093fa:	2b13      	cmp	r3, #19
 80093fc:	d806      	bhi.n	800940c <ip4_output_if_src+0x50>
 80093fe:	4b27      	ldr	r3, [pc, #156]	; (800949c <ip4_output_if_src+0xe0>)
 8009400:	f44f 7262 	mov.w	r2, #904	; 0x388
 8009404:	4928      	ldr	r1, [pc, #160]	; (80094a8 <ip4_output_if_src+0xec>)
 8009406:	4827      	ldr	r0, [pc, #156]	; (80094a4 <ip4_output_if_src+0xe8>)
 8009408:	f000 fd30 	bl	8009e6c <iprintf>
 800940c:	f89d 302c 	ldrb.w	r3, [sp, #44]	; 0x2c
 8009410:	f885 8008 	strb.w	r8, [r5, #8]
 8009414:	f04f 0800 	mov.w	r8, #0
 8009418:	726b      	strb	r3, [r5, #9]
 800941a:	6833      	ldr	r3, [r6, #0]
 800941c:	f8df a090 	ldr.w	sl, [pc, #144]	; 80094b0 <ip4_output_if_src+0xf4>
 8009420:	612b      	str	r3, [r5, #16]
 8009422:	2345      	movs	r3, #69	; 0x45
 8009424:	702b      	strb	r3, [r5, #0]
 8009426:	f89d 3028 	ldrb.w	r3, [sp, #40]	; 0x28
 800942a:	706b      	strb	r3, [r5, #1]
 800942c:	8920      	ldrh	r0, [r4, #8]
 800942e:	f7f9 fe3b 	bl	80030a8 <lwip_htons>
 8009432:	f885 8006 	strb.w	r8, [r5, #6]
 8009436:	8068      	strh	r0, [r5, #2]
 8009438:	f885 8007 	strb.w	r8, [r5, #7]
 800943c:	f8ba 0000 	ldrh.w	r0, [sl]
 8009440:	f7f9 fe32 	bl	80030a8 <lwip_htons>
 8009444:	f8ba 3000 	ldrh.w	r3, [sl]
 8009448:	80a8      	strh	r0, [r5, #4]
 800944a:	3301      	adds	r3, #1
 800944c:	f8aa 3000 	strh.w	r3, [sl]
 8009450:	f1b9 0f00 	cmp.w	r9, #0
 8009454:	d111      	bne.n	800947a <ip4_output_if_src+0xbe>
 8009456:	4b15      	ldr	r3, [pc, #84]	; (80094ac <ip4_output_if_src+0xf0>)
 8009458:	681b      	ldr	r3, [r3, #0]
 800945a:	60eb      	str	r3, [r5, #12]
 800945c:	f885 800a 	strb.w	r8, [r5, #10]
 8009460:	f885 800b 	strb.w	r8, [r5, #11]
 8009464:	8d3b      	ldrh	r3, [r7, #40]	; 0x28
 8009466:	b19b      	cbz	r3, 8009490 <ip4_output_if_src+0xd4>
 8009468:	8922      	ldrh	r2, [r4, #8]
 800946a:	429a      	cmp	r2, r3
 800946c:	d910      	bls.n	8009490 <ip4_output_if_src+0xd4>
 800946e:	4632      	mov	r2, r6
 8009470:	4639      	mov	r1, r7
 8009472:	4620      	mov	r0, r4
 8009474:	f000 fb3c 	bl	8009af0 <ip4_frag>
 8009478:	e7ba      	b.n	80093f0 <ip4_output_if_src+0x34>
 800947a:	f8d9 3000 	ldr.w	r3, [r9]
 800947e:	e7ec      	b.n	800945a <ip4_output_if_src+0x9e>
 8009480:	8963      	ldrh	r3, [r4, #10]
 8009482:	2b13      	cmp	r3, #19
 8009484:	d9b2      	bls.n	80093ec <ip4_output_if_src+0x30>
 8009486:	6863      	ldr	r3, [r4, #4]
 8009488:	ae01      	add	r6, sp, #4
 800948a:	691b      	ldr	r3, [r3, #16]
 800948c:	9301      	str	r3, [sp, #4]
 800948e:	e7e9      	b.n	8009464 <ip4_output_if_src+0xa8>
 8009490:	697b      	ldr	r3, [r7, #20]
 8009492:	4632      	mov	r2, r6
 8009494:	4621      	mov	r1, r4
 8009496:	4638      	mov	r0, r7
 8009498:	4798      	blx	r3
 800949a:	e7a9      	b.n	80093f0 <ip4_output_if_src+0x34>
 800949c:	0800cbe8 	.word	0x0800cbe8
 80094a0:	0800cc1c 	.word	0x0800cc1c
 80094a4:	0800af68 	.word	0x0800af68
 80094a8:	0800cc28 	.word	0x0800cc28
 80094ac:	0800cc58 	.word	0x0800cc58
 80094b0:	20005e8a 	.word	0x20005e8a

080094b4 <ip4_output_if>:
 80094b4:	b4f0      	push	{r4, r5, r6, r7}
 80094b6:	9c06      	ldr	r4, [sp, #24]
 80094b8:	f89d 5010 	ldrb.w	r5, [sp, #16]
 80094bc:	f89d 6014 	ldrb.w	r6, [sp, #20]
 80094c0:	b11a      	cbz	r2, 80094ca <ip4_output_if+0x16>
 80094c2:	b109      	cbz	r1, 80094c8 <ip4_output_if+0x14>
 80094c4:	680f      	ldr	r7, [r1, #0]
 80094c6:	b907      	cbnz	r7, 80094ca <ip4_output_if+0x16>
 80094c8:	1d21      	adds	r1, r4, #4
 80094ca:	9504      	str	r5, [sp, #16]
 80094cc:	e9cd 6405 	strd	r6, r4, [sp, #20]
 80094d0:	bcf0      	pop	{r4, r5, r6, r7}
 80094d2:	f7ff bf73 	b.w	80093bc <ip4_output_if_src>

080094d6 <ip4_addr_isbroadcast_u32>:
 80094d6:	1e43      	subs	r3, r0, #1
 80094d8:	4602      	mov	r2, r0
 80094da:	3303      	adds	r3, #3
 80094dc:	d812      	bhi.n	8009504 <ip4_addr_isbroadcast_u32+0x2e>
 80094de:	f891 3031 	ldrb.w	r3, [r1, #49]	; 0x31
 80094e2:	f013 0002 	ands.w	r0, r3, #2
 80094e6:	d010      	beq.n	800950a <ip4_addr_isbroadcast_u32+0x34>
 80094e8:	684b      	ldr	r3, [r1, #4]
 80094ea:	4293      	cmp	r3, r2
 80094ec:	d00c      	beq.n	8009508 <ip4_addr_isbroadcast_u32+0x32>
 80094ee:	6888      	ldr	r0, [r1, #8]
 80094f0:	4053      	eors	r3, r2
 80094f2:	4203      	tst	r3, r0
 80094f4:	d108      	bne.n	8009508 <ip4_addr_isbroadcast_u32+0x32>
 80094f6:	43c3      	mvns	r3, r0
 80094f8:	ea22 0000 	bic.w	r0, r2, r0
 80094fc:	1ac3      	subs	r3, r0, r3
 80094fe:	4258      	negs	r0, r3
 8009500:	4158      	adcs	r0, r3
 8009502:	4770      	bx	lr
 8009504:	2001      	movs	r0, #1
 8009506:	4770      	bx	lr
 8009508:	2000      	movs	r0, #0
 800950a:	4770      	bx	lr

0800950c <ip_reass_dequeue_datagram>:
 800950c:	b538      	push	{r3, r4, r5, lr}
 800950e:	4b0c      	ldr	r3, [pc, #48]	; (8009540 <ip_reass_dequeue_datagram+0x34>)
 8009510:	4604      	mov	r4, r0
 8009512:	460d      	mov	r5, r1
 8009514:	681a      	ldr	r2, [r3, #0]
 8009516:	4282      	cmp	r2, r0
 8009518:	d107      	bne.n	800952a <ip_reass_dequeue_datagram+0x1e>
 800951a:	6802      	ldr	r2, [r0, #0]
 800951c:	601a      	str	r2, [r3, #0]
 800951e:	4621      	mov	r1, r4
 8009520:	2004      	movs	r0, #4
 8009522:	e8bd 4038 	ldmia.w	sp!, {r3, r4, r5, lr}
 8009526:	f7fa b865 	b.w	80035f4 <memp_free>
 800952a:	b931      	cbnz	r1, 800953a <ip_reass_dequeue_datagram+0x2e>
 800952c:	4b05      	ldr	r3, [pc, #20]	; (8009544 <ip_reass_dequeue_datagram+0x38>)
 800952e:	f240 1245 	movw	r2, #325	; 0x145
 8009532:	4905      	ldr	r1, [pc, #20]	; (8009548 <ip_reass_dequeue_datagram+0x3c>)
 8009534:	4805      	ldr	r0, [pc, #20]	; (800954c <ip_reass_dequeue_datagram+0x40>)
 8009536:	f000 fc99 	bl	8009e6c <iprintf>
 800953a:	6823      	ldr	r3, [r4, #0]
 800953c:	602b      	str	r3, [r5, #0]
 800953e:	e7ee      	b.n	800951e <ip_reass_dequeue_datagram+0x12>
 8009540:	20005e90 	.word	0x20005e90
 8009544:	0800cc60 	.word	0x0800cc60
 8009548:	0800cc99 	.word	0x0800cc99
 800954c:	0800af68 	.word	0x0800af68

08009550 <ip_reass_free_complete_datagram>:
 8009550:	4281      	cmp	r1, r0
 8009552:	e92d 4ff8 	stmdb	sp!, {r3, r4, r5, r6, r7, r8, r9, sl, fp, lr}
 8009556:	4604      	mov	r4, r0
 8009558:	460e      	mov	r6, r1
 800955a:	d105      	bne.n	8009568 <ip_reass_free_complete_datagram+0x18>
 800955c:	4b2f      	ldr	r3, [pc, #188]	; (800961c <ip_reass_free_complete_datagram+0xcc>)
 800955e:	22ab      	movs	r2, #171	; 0xab
 8009560:	492f      	ldr	r1, [pc, #188]	; (8009620 <ip_reass_free_complete_datagram+0xd0>)
 8009562:	4830      	ldr	r0, [pc, #192]	; (8009624 <ip_reass_free_complete_datagram+0xd4>)
 8009564:	f000 fc82 	bl	8009e6c <iprintf>
 8009568:	b146      	cbz	r6, 800957c <ip_reass_free_complete_datagram+0x2c>
 800956a:	6833      	ldr	r3, [r6, #0]
 800956c:	42a3      	cmp	r3, r4
 800956e:	d005      	beq.n	800957c <ip_reass_free_complete_datagram+0x2c>
 8009570:	4b2a      	ldr	r3, [pc, #168]	; (800961c <ip_reass_free_complete_datagram+0xcc>)
 8009572:	22ad      	movs	r2, #173	; 0xad
 8009574:	492c      	ldr	r1, [pc, #176]	; (8009628 <ip_reass_free_complete_datagram+0xd8>)
 8009576:	482b      	ldr	r0, [pc, #172]	; (8009624 <ip_reass_free_complete_datagram+0xd4>)
 8009578:	f000 fc78 	bl	8009e6c <iprintf>
 800957c:	6867      	ldr	r7, [r4, #4]
 800957e:	687b      	ldr	r3, [r7, #4]
 8009580:	889a      	ldrh	r2, [r3, #4]
 8009582:	bb92      	cbnz	r2, 80095ea <ip_reass_free_complete_datagram+0x9a>
 8009584:	681a      	ldr	r2, [r3, #0]
 8009586:	f104 011c 	add.w	r1, r4, #28
 800958a:	6062      	str	r2, [r4, #4]
 800958c:	f104 0208 	add.w	r2, r4, #8
 8009590:	f852 0b04 	ldr.w	r0, [r2], #4
 8009594:	428a      	cmp	r2, r1
 8009596:	f843 0b04 	str.w	r0, [r3], #4
 800959a:	d1f9      	bne.n	8009590 <ip_reass_free_complete_datagram+0x40>
 800959c:	2101      	movs	r1, #1
 800959e:	4638      	mov	r0, r7
 80095a0:	f7ff fdfc 	bl	800919c <icmp_time_exceeded>
 80095a4:	4638      	mov	r0, r7
 80095a6:	f7fa fb97 	bl	8003cd8 <pbuf_clen>
 80095aa:	4605      	mov	r5, r0
 80095ac:	4638      	mov	r0, r7
 80095ae:	f7fa fa57 	bl	8003a60 <pbuf_free>
 80095b2:	6867      	ldr	r7, [r4, #4]
 80095b4:	f8df 8064 	ldr.w	r8, [pc, #100]	; 800961c <ip_reass_free_complete_datagram+0xcc>
 80095b8:	f8df 9078 	ldr.w	r9, [pc, #120]	; 8009634 <ip_reass_free_complete_datagram+0xe4>
 80095bc:	f8df a064 	ldr.w	sl, [pc, #100]	; 8009624 <ip_reass_free_complete_datagram+0xd4>
 80095c0:	b9af      	cbnz	r7, 80095ee <ip_reass_free_complete_datagram+0x9e>
 80095c2:	4620      	mov	r0, r4
 80095c4:	4c19      	ldr	r4, [pc, #100]	; (800962c <ip_reass_free_complete_datagram+0xdc>)
 80095c6:	4631      	mov	r1, r6
 80095c8:	f7ff ffa0 	bl	800950c <ip_reass_dequeue_datagram>
 80095cc:	8823      	ldrh	r3, [r4, #0]
 80095ce:	42ab      	cmp	r3, r5
 80095d0:	d205      	bcs.n	80095de <ip_reass_free_complete_datagram+0x8e>
 80095d2:	4b12      	ldr	r3, [pc, #72]	; (800961c <ip_reass_free_complete_datagram+0xcc>)
 80095d4:	22d2      	movs	r2, #210	; 0xd2
 80095d6:	4916      	ldr	r1, [pc, #88]	; (8009630 <ip_reass_free_complete_datagram+0xe0>)
 80095d8:	4812      	ldr	r0, [pc, #72]	; (8009624 <ip_reass_free_complete_datagram+0xd4>)
 80095da:	f000 fc47 	bl	8009e6c <iprintf>
 80095de:	8823      	ldrh	r3, [r4, #0]
 80095e0:	4628      	mov	r0, r5
 80095e2:	1b5b      	subs	r3, r3, r5
 80095e4:	8023      	strh	r3, [r4, #0]
 80095e6:	e8bd 8ff8 	ldmia.w	sp!, {r3, r4, r5, r6, r7, r8, r9, sl, fp, pc}
 80095ea:	2500      	movs	r5, #0
 80095ec:	e7e1      	b.n	80095b2 <ip_reass_free_complete_datagram+0x62>
 80095ee:	687b      	ldr	r3, [r7, #4]
 80095f0:	4638      	mov	r0, r7
 80095f2:	f8d3 b000 	ldr.w	fp, [r3]
 80095f6:	f7fa fb6f 	bl	8003cd8 <pbuf_clen>
 80095fa:	4405      	add	r5, r0
 80095fc:	f5b5 3f80 	cmp.w	r5, #65536	; 0x10000
 8009600:	db05      	blt.n	800960e <ip_reass_free_complete_datagram+0xbe>
 8009602:	4643      	mov	r3, r8
 8009604:	22cc      	movs	r2, #204	; 0xcc
 8009606:	4649      	mov	r1, r9
 8009608:	4650      	mov	r0, sl
 800960a:	f000 fc2f 	bl	8009e6c <iprintf>
 800960e:	4638      	mov	r0, r7
 8009610:	b2ad      	uxth	r5, r5
 8009612:	465f      	mov	r7, fp
 8009614:	f7fa fa24 	bl	8003a60 <pbuf_free>
 8009618:	e7d2      	b.n	80095c0 <ip_reass_free_complete_datagram+0x70>
 800961a:	bf00      	nop
 800961c:	0800cc60 	.word	0x0800cc60
 8009620:	0800ccb2 	.word	0x0800ccb2
 8009624:	0800af68 	.word	0x0800af68
 8009628:	0800ccbe 	.word	0x0800ccbe
 800962c:	20005e8c 	.word	0x20005e8c
 8009630:	0800cced 	.word	0x0800cced
 8009634:	0800ccd0 	.word	0x0800ccd0

08009638 <ip_reass_remove_oldest_datagram>:
 8009638:	e92d 41f0 	stmdb	sp!, {r4, r5, r6, r7, r8, lr}
 800963c:	4605      	mov	r5, r0
 800963e:	460f      	mov	r7, r1
 8009640:	2600      	movs	r6, #0
 8009642:	f8df 8068 	ldr.w	r8, [pc, #104]	; 80096ac <ip_reass_remove_oldest_datagram+0x74>
 8009646:	2400      	movs	r4, #0
 8009648:	f8d8 3000 	ldr.w	r3, [r8]
 800964c:	4621      	mov	r1, r4
 800964e:	46a4      	mov	ip, r4
 8009650:	4620      	mov	r0, r4
 8009652:	b953      	cbnz	r3, 800966a <ip_reass_remove_oldest_datagram+0x32>
 8009654:	b110      	cbz	r0, 800965c <ip_reass_remove_oldest_datagram+0x24>
 8009656:	f7ff ff7b 	bl	8009550 <ip_reass_free_complete_datagram>
 800965a:	4406      	add	r6, r0
 800965c:	42be      	cmp	r6, r7
 800965e:	da01      	bge.n	8009664 <ip_reass_remove_oldest_datagram+0x2c>
 8009660:	2c01      	cmp	r4, #1
 8009662:	dcf0      	bgt.n	8009646 <ip_reass_remove_oldest_datagram+0xe>
 8009664:	4630      	mov	r0, r6
 8009666:	e8bd 81f0 	ldmia.w	sp!, {r4, r5, r6, r7, r8, pc}
 800966a:	f8d5 e00c 	ldr.w	lr, [r5, #12]
 800966e:	695a      	ldr	r2, [r3, #20]
 8009670:	4572      	cmp	r2, lr
 8009672:	d109      	bne.n	8009688 <ip_reass_remove_oldest_datagram+0x50>
 8009674:	f8d5 e010 	ldr.w	lr, [r5, #16]
 8009678:	699a      	ldr	r2, [r3, #24]
 800967a:	4572      	cmp	r2, lr
 800967c:	d104      	bne.n	8009688 <ip_reass_remove_oldest_datagram+0x50>
 800967e:	f8b3 e00c 	ldrh.w	lr, [r3, #12]
 8009682:	88aa      	ldrh	r2, [r5, #4]
 8009684:	4596      	cmp	lr, r2
 8009686:	d008      	beq.n	800969a <ip_reass_remove_oldest_datagram+0x62>
 8009688:	3401      	adds	r4, #1
 800968a:	b160      	cbz	r0, 80096a6 <ip_reass_remove_oldest_datagram+0x6e>
 800968c:	7fc2      	ldrb	r2, [r0, #31]
 800968e:	f893 e01f 	ldrb.w	lr, [r3, #31]
 8009692:	4596      	cmp	lr, r2
 8009694:	bf9c      	itt	ls
 8009696:	4661      	movls	r1, ip
 8009698:	4618      	movls	r0, r3
 800969a:	681a      	ldr	r2, [r3, #0]
 800969c:	2a00      	cmp	r2, #0
 800969e:	bf18      	it	ne
 80096a0:	469c      	movne	ip, r3
 80096a2:	4613      	mov	r3, r2
 80096a4:	e7d5      	b.n	8009652 <ip_reass_remove_oldest_datagram+0x1a>
 80096a6:	4661      	mov	r1, ip
 80096a8:	4618      	mov	r0, r3
 80096aa:	e7f6      	b.n	800969a <ip_reass_remove_oldest_datagram+0x62>
 80096ac:	20005e90 	.word	0x20005e90

080096b0 <ip_frag_free_pbuf_custom_ref>:
 80096b0:	b510      	push	{r4, lr}
 80096b2:	4604      	mov	r4, r0
 80096b4:	b930      	cbnz	r0, 80096c4 <ip_frag_free_pbuf_custom_ref+0x14>
 80096b6:	4b06      	ldr	r3, [pc, #24]	; (80096d0 <ip_frag_free_pbuf_custom_ref+0x20>)
 80096b8:	f44f 7231 	mov.w	r2, #708	; 0x2c4
 80096bc:	4905      	ldr	r1, [pc, #20]	; (80096d4 <ip_frag_free_pbuf_custom_ref+0x24>)
 80096be:	4806      	ldr	r0, [pc, #24]	; (80096d8 <ip_frag_free_pbuf_custom_ref+0x28>)
 80096c0:	f000 fbd4 	bl	8009e6c <iprintf>
 80096c4:	4621      	mov	r1, r4
 80096c6:	2005      	movs	r0, #5
 80096c8:	e8bd 4010 	ldmia.w	sp!, {r4, lr}
 80096cc:	f7f9 bf92 	b.w	80035f4 <memp_free>
 80096d0:	0800cc60 	.word	0x0800cc60
 80096d4:	0800b4bd 	.word	0x0800b4bd
 80096d8:	0800af68 	.word	0x0800af68

080096dc <ipfrag_free_pbuf_custom>:
 80096dc:	b510      	push	{r4, lr}
 80096de:	4604      	mov	r4, r0
 80096e0:	b930      	cbnz	r0, 80096f0 <ipfrag_free_pbuf_custom+0x14>
 80096e2:	4b08      	ldr	r3, [pc, #32]	; (8009704 <ipfrag_free_pbuf_custom+0x28>)
 80096e4:	f240 22ce 	movw	r2, #718	; 0x2ce
 80096e8:	4907      	ldr	r1, [pc, #28]	; (8009708 <ipfrag_free_pbuf_custom+0x2c>)
 80096ea:	4808      	ldr	r0, [pc, #32]	; (800970c <ipfrag_free_pbuf_custom+0x30>)
 80096ec:	f000 fbbe 	bl	8009e6c <iprintf>
 80096f0:	6960      	ldr	r0, [r4, #20]
 80096f2:	b108      	cbz	r0, 80096f8 <ipfrag_free_pbuf_custom+0x1c>
 80096f4:	f7fa f9b4 	bl	8003a60 <pbuf_free>
 80096f8:	4620      	mov	r0, r4
 80096fa:	e8bd 4010 	ldmia.w	sp!, {r4, lr}
 80096fe:	f7ff bfd7 	b.w	80096b0 <ip_frag_free_pbuf_custom_ref>
 8009702:	bf00      	nop
 8009704:	0800cc60 	.word	0x0800cc60
 8009708:	0800cd0f 	.word	0x0800cd0f
 800970c:	0800af68 	.word	0x0800af68

08009710 <ip_reass_tmr>:
 8009710:	b538      	push	{r3, r4, r5, lr}
 8009712:	4b09      	ldr	r3, [pc, #36]	; (8009738 <ip_reass_tmr+0x28>)
 8009714:	2400      	movs	r4, #0
 8009716:	6818      	ldr	r0, [r3, #0]
 8009718:	b900      	cbnz	r0, 800971c <ip_reass_tmr+0xc>
 800971a:	bd38      	pop	{r3, r4, r5, pc}
 800971c:	7fc3      	ldrb	r3, [r0, #31]
 800971e:	6805      	ldr	r5, [r0, #0]
 8009720:	b123      	cbz	r3, 800972c <ip_reass_tmr+0x1c>
 8009722:	3b01      	subs	r3, #1
 8009724:	77c3      	strb	r3, [r0, #31]
 8009726:	4604      	mov	r4, r0
 8009728:	4628      	mov	r0, r5
 800972a:	e7f5      	b.n	8009718 <ip_reass_tmr+0x8>
 800972c:	4621      	mov	r1, r4
 800972e:	f7ff ff0f 	bl	8009550 <ip_reass_free_complete_datagram>
 8009732:	4620      	mov	r0, r4
 8009734:	e7f7      	b.n	8009726 <ip_reass_tmr+0x16>
 8009736:	bf00      	nop
 8009738:	20005e90 	.word	0x20005e90

0800973c <ip4_reass>:
 800973c:	e92d 4ff7 	stmdb	sp!, {r0, r1, r2, r4, r5, r6, r7, r8, r9, sl, fp, lr}
 8009740:	6845      	ldr	r5, [r0, #4]
 8009742:	4680      	mov	r8, r0
 8009744:	782b      	ldrb	r3, [r5, #0]
 8009746:	f003 030f 	and.w	r3, r3, #15
 800974a:	2b05      	cmp	r3, #5
 800974c:	f040 80a1 	bne.w	8009892 <ip4_reass+0x156>
 8009750:	88e8      	ldrh	r0, [r5, #6]
 8009752:	f7f9 fca9 	bl	80030a8 <lwip_htons>
 8009756:	4607      	mov	r7, r0
 8009758:	8868      	ldrh	r0, [r5, #2]
 800975a:	f7f9 fca5 	bl	80030a8 <lwip_htons>
 800975e:	782a      	ldrb	r2, [r5, #0]
 8009760:	f002 020f 	and.w	r2, r2, #15
 8009764:	ebb0 0f82 	cmp.w	r0, r2, lsl #2
 8009768:	ea4f 0382 	mov.w	r3, r2, lsl #2
 800976c:	f0c0 8091 	bcc.w	8009892 <ip4_reass+0x156>
 8009770:	1ac3      	subs	r3, r0, r3
 8009772:	4cb6      	ldr	r4, [pc, #728]	; (8009a4c <ip4_reass+0x310>)
 8009774:	4640      	mov	r0, r8
 8009776:	b29b      	uxth	r3, r3
 8009778:	9301      	str	r3, [sp, #4]
 800977a:	f7fa faad 	bl	8003cd8 <pbuf_clen>
 800977e:	8823      	ldrh	r3, [r4, #0]
 8009780:	4681      	mov	r9, r0
 8009782:	4403      	add	r3, r0
 8009784:	2b0a      	cmp	r3, #10
 8009786:	dc7a      	bgt.n	800987e <ip4_reass+0x142>
 8009788:	4eb1      	ldr	r6, [pc, #708]	; (8009a50 <ip4_reass+0x314>)
 800978a:	6834      	ldr	r4, [r6, #0]
 800978c:	2c00      	cmp	r4, #0
 800978e:	f040 8085 	bne.w	800989c <ip4_reass+0x160>
 8009792:	2004      	movs	r0, #4
 8009794:	f7f9 ff12 	bl	80035bc <memp_malloc>
 8009798:	4604      	mov	r4, r0
 800979a:	b958      	cbnz	r0, 80097b4 <ip4_reass+0x78>
 800979c:	4649      	mov	r1, r9
 800979e:	4628      	mov	r0, r5
 80097a0:	f7ff ff4a 	bl	8009638 <ip_reass_remove_oldest_datagram>
 80097a4:	4581      	cmp	r9, r0
 80097a6:	dc74      	bgt.n	8009892 <ip4_reass+0x156>
 80097a8:	2004      	movs	r0, #4
 80097aa:	f7f9 ff07 	bl	80035bc <memp_malloc>
 80097ae:	4604      	mov	r4, r0
 80097b0:	2800      	cmp	r0, #0
 80097b2:	d06e      	beq.n	8009892 <ip4_reass+0x156>
 80097b4:	221c      	movs	r2, #28
 80097b6:	2100      	movs	r1, #0
 80097b8:	1d20      	adds	r0, r4, #4
 80097ba:	f000 fb4f 	bl	8009e5c <memset>
 80097be:	230f      	movs	r3, #15
 80097c0:	f104 0208 	add.w	r2, r4, #8
 80097c4:	f105 0114 	add.w	r1, r5, #20
 80097c8:	77e3      	strb	r3, [r4, #31]
 80097ca:	6833      	ldr	r3, [r6, #0]
 80097cc:	6034      	str	r4, [r6, #0]
 80097ce:	6023      	str	r3, [r4, #0]
 80097d0:	462b      	mov	r3, r5
 80097d2:	f853 0b04 	ldr.w	r0, [r3], #4
 80097d6:	428b      	cmp	r3, r1
 80097d8:	f842 0b04 	str.w	r0, [r2], #4
 80097dc:	d1f9      	bne.n	80097d2 <ip4_reass+0x96>
 80097de:	f8b5 b006 	ldrh.w	fp, [r5, #6]
 80097e2:	f3c7 070c 	ubfx	r7, r7, #0, #13
 80097e6:	f01b 0b20 	ands.w	fp, fp, #32
 80097ea:	ea4f 07c7 	mov.w	r7, r7, lsl #3
 80097ee:	d10a      	bne.n	8009806 <ip4_reass+0xca>
 80097f0:	9b01      	ldr	r3, [sp, #4]
 80097f2:	18fb      	adds	r3, r7, r3
 80097f4:	b29b      	uxth	r3, r3
 80097f6:	429f      	cmp	r7, r3
 80097f8:	f200 813a 	bhi.w	8009a70 <ip4_reass+0x334>
 80097fc:	f64f 72eb 	movw	r2, #65515	; 0xffeb
 8009800:	4293      	cmp	r3, r2
 8009802:	f200 8135 	bhi.w	8009a70 <ip4_reass+0x334>
 8009806:	f8d8 5004 	ldr.w	r5, [r8, #4]
 800980a:	8868      	ldrh	r0, [r5, #2]
 800980c:	f7f9 fc4c 	bl	80030a8 <lwip_htons>
 8009810:	782b      	ldrb	r3, [r5, #0]
 8009812:	f003 030f 	and.w	r3, r3, #15
 8009816:	ebb0 0f83 	cmp.w	r0, r3, lsl #2
 800981a:	ea4f 0283 	mov.w	r2, r3, lsl #2
 800981e:	f0c0 8127 	bcc.w	8009a70 <ip4_reass+0x334>
 8009822:	1a80      	subs	r0, r0, r2
 8009824:	fa1f fa80 	uxth.w	sl, r0
 8009828:	88e8      	ldrh	r0, [r5, #6]
 800982a:	f7f9 fc3d 	bl	80030a8 <lwip_htons>
 800982e:	f3c0 000c 	ubfx	r0, r0, #0, #13
 8009832:	f8d8 6004 	ldr.w	r6, [r8, #4]
 8009836:	2500      	movs	r5, #0
 8009838:	00c0      	lsls	r0, r0, #3
 800983a:	7035      	strb	r5, [r6, #0]
 800983c:	eb0a 0300 	add.w	r3, sl, r0
 8009840:	7075      	strb	r5, [r6, #1]
 8009842:	70b5      	strb	r5, [r6, #2]
 8009844:	fa1f fc83 	uxth.w	ip, r3
 8009848:	70f5      	strb	r5, [r6, #3]
 800984a:	80b0      	strh	r0, [r6, #4]
 800984c:	4560      	cmp	r0, ip
 800984e:	80f3      	strh	r3, [r6, #6]
 8009850:	f200 810e 	bhi.w	8009a70 <ip4_reass+0x334>
 8009854:	f8d4 e004 	ldr.w	lr, [r4, #4]
 8009858:	f04f 0a01 	mov.w	sl, #1
 800985c:	4671      	mov	r1, lr
 800985e:	bb61      	cbnz	r1, 80098ba <ip4_reass+0x17e>
 8009860:	2d00      	cmp	r5, #0
 8009862:	f040 80aa 	bne.w	80099ba <ip4_reass+0x27e>
 8009866:	f1be 0f00 	cmp.w	lr, #0
 800986a:	f000 8096 	beq.w	800999a <ip4_reass+0x25e>
 800986e:	4b79      	ldr	r3, [pc, #484]	; (8009a54 <ip4_reass+0x318>)
 8009870:	f44f 72df 	mov.w	r2, #446	; 0x1be
 8009874:	4978      	ldr	r1, [pc, #480]	; (8009a58 <ip4_reass+0x31c>)
 8009876:	4879      	ldr	r0, [pc, #484]	; (8009a5c <ip4_reass+0x320>)
 8009878:	f000 faf8 	bl	8009e6c <iprintf>
 800987c:	e08d      	b.n	800999a <ip4_reass+0x25e>
 800987e:	4601      	mov	r1, r0
 8009880:	4628      	mov	r0, r5
 8009882:	f7ff fed9 	bl	8009638 <ip_reass_remove_oldest_datagram>
 8009886:	b120      	cbz	r0, 8009892 <ip4_reass+0x156>
 8009888:	8823      	ldrh	r3, [r4, #0]
 800988a:	444b      	add	r3, r9
 800988c:	2b0a      	cmp	r3, #10
 800988e:	f77f af7b 	ble.w	8009788 <ip4_reass+0x4c>
 8009892:	4640      	mov	r0, r8
 8009894:	f7fa f8e4 	bl	8003a60 <pbuf_free>
 8009898:	2700      	movs	r7, #0
 800989a:	e078      	b.n	800998e <ip4_reass+0x252>
 800989c:	68eb      	ldr	r3, [r5, #12]
 800989e:	6962      	ldr	r2, [r4, #20]
 80098a0:	429a      	cmp	r2, r3
 80098a2:	d108      	bne.n	80098b6 <ip4_reass+0x17a>
 80098a4:	692b      	ldr	r3, [r5, #16]
 80098a6:	69a2      	ldr	r2, [r4, #24]
 80098a8:	429a      	cmp	r2, r3
 80098aa:	d104      	bne.n	80098b6 <ip4_reass+0x17a>
 80098ac:	89a2      	ldrh	r2, [r4, #12]
 80098ae:	88ab      	ldrh	r3, [r5, #4]
 80098b0:	429a      	cmp	r2, r3
 80098b2:	f000 80f1 	beq.w	8009a98 <ip4_reass+0x35c>
 80098b6:	6824      	ldr	r4, [r4, #0]
 80098b8:	e768      	b.n	800978c <ip4_reass+0x50>
 80098ba:	684b      	ldr	r3, [r1, #4]
 80098bc:	889a      	ldrh	r2, [r3, #4]
 80098be:	4290      	cmp	r0, r2
 80098c0:	d26e      	bcs.n	80099a0 <ip4_reass+0x264>
 80098c2:	6031      	str	r1, [r6, #0]
 80098c4:	2d00      	cmp	r5, #0
 80098c6:	d066      	beq.n	8009996 <ip4_reass+0x25a>
 80098c8:	88eb      	ldrh	r3, [r5, #6]
 80098ca:	4298      	cmp	r0, r3
 80098cc:	f0c0 80d0 	bcc.w	8009a70 <ip4_reass+0x334>
 80098d0:	4594      	cmp	ip, r2
 80098d2:	f200 80cd 	bhi.w	8009a70 <ip4_reass+0x334>
 80098d6:	4298      	cmp	r0, r3
 80098d8:	f8c5 8000 	str.w	r8, [r5]
 80098dc:	f040 80f8 	bne.w	8009ad0 <ip4_reass+0x394>
 80098e0:	f1bb 0f00 	cmp.w	fp, #0
 80098e4:	d004      	beq.n	80098f0 <ip4_reass+0x1b4>
 80098e6:	7fa3      	ldrb	r3, [r4, #30]
 80098e8:	f013 0301 	ands.w	r3, r3, #1
 80098ec:	f000 809c 	beq.w	8009a28 <ip4_reass+0x2ec>
 80098f0:	f1ba 0f00 	cmp.w	sl, #0
 80098f4:	d171      	bne.n	80099da <ip4_reass+0x29e>
 80098f6:	f04f 0a00 	mov.w	sl, #0
 80098fa:	4e54      	ldr	r6, [pc, #336]	; (8009a4c <ip4_reass+0x310>)
 80098fc:	8830      	ldrh	r0, [r6, #0]
 80098fe:	4481      	add	r9, r0
 8009900:	f8a6 9000 	strh.w	r9, [r6]
 8009904:	f1bb 0f00 	cmp.w	fp, #0
 8009908:	d106      	bne.n	8009918 <ip4_reass+0x1dc>
 800990a:	9b01      	ldr	r3, [sp, #4]
 800990c:	441f      	add	r7, r3
 800990e:	7fa3      	ldrb	r3, [r4, #30]
 8009910:	f043 0301 	orr.w	r3, r3, #1
 8009914:	83a7      	strh	r7, [r4, #28]
 8009916:	77a3      	strb	r3, [r4, #30]
 8009918:	f1ba 0f01 	cmp.w	sl, #1
 800991c:	d1bc      	bne.n	8009898 <ip4_reass+0x15c>
 800991e:	6863      	ldr	r3, [r4, #4]
 8009920:	f104 011c 	add.w	r1, r4, #28
 8009924:	8ba0      	ldrh	r0, [r4, #28]
 8009926:	685f      	ldr	r7, [r3, #4]
 8009928:	f104 0308 	add.w	r3, r4, #8
 800992c:	3014      	adds	r0, #20
 800992e:	683d      	ldr	r5, [r7, #0]
 8009930:	463a      	mov	r2, r7
 8009932:	b280      	uxth	r0, r0
 8009934:	f853 cb04 	ldr.w	ip, [r3], #4
 8009938:	428b      	cmp	r3, r1
 800993a:	f842 cb04 	str.w	ip, [r2], #4
 800993e:	d1f9      	bne.n	8009934 <ip4_reass+0x1f8>
 8009940:	f7f9 fbb2 	bl	80030a8 <lwip_htons>
 8009944:	2300      	movs	r3, #0
 8009946:	8078      	strh	r0, [r7, #2]
 8009948:	71bb      	strb	r3, [r7, #6]
 800994a:	71fb      	strb	r3, [r7, #7]
 800994c:	72bb      	strb	r3, [r7, #10]
 800994e:	72fb      	strb	r3, [r7, #11]
 8009950:	6867      	ldr	r7, [r4, #4]
 8009952:	2d00      	cmp	r5, #0
 8009954:	d16a      	bne.n	8009a2c <ip4_reass+0x2f0>
 8009956:	4b3e      	ldr	r3, [pc, #248]	; (8009a50 <ip4_reass+0x314>)
 8009958:	681b      	ldr	r3, [r3, #0]
 800995a:	42a3      	cmp	r3, r4
 800995c:	d002      	beq.n	8009964 <ip4_reass+0x228>
 800995e:	461d      	mov	r5, r3
 8009960:	2b00      	cmp	r3, #0
 8009962:	d170      	bne.n	8009a46 <ip4_reass+0x30a>
 8009964:	4620      	mov	r0, r4
 8009966:	4629      	mov	r1, r5
 8009968:	f7ff fdd0 	bl	800950c <ip_reass_dequeue_datagram>
 800996c:	4638      	mov	r0, r7
 800996e:	f7fa f9b3 	bl	8003cd8 <pbuf_clen>
 8009972:	8833      	ldrh	r3, [r6, #0]
 8009974:	4604      	mov	r4, r0
 8009976:	4283      	cmp	r3, r0
 8009978:	d206      	bcs.n	8009988 <ip4_reass+0x24c>
 800997a:	4b36      	ldr	r3, [pc, #216]	; (8009a54 <ip4_reass+0x318>)
 800997c:	f240 229b 	movw	r2, #667	; 0x29b
 8009980:	4937      	ldr	r1, [pc, #220]	; (8009a60 <ip4_reass+0x324>)
 8009982:	4836      	ldr	r0, [pc, #216]	; (8009a5c <ip4_reass+0x320>)
 8009984:	f000 fa72 	bl	8009e6c <iprintf>
 8009988:	8830      	ldrh	r0, [r6, #0]
 800998a:	1b04      	subs	r4, r0, r4
 800998c:	8034      	strh	r4, [r6, #0]
 800998e:	4638      	mov	r0, r7
 8009990:	b003      	add	sp, #12
 8009992:	e8bd 8ff0 	ldmia.w	sp!, {r4, r5, r6, r7, r8, r9, sl, fp, pc}
 8009996:	4594      	cmp	ip, r2
 8009998:	d86a      	bhi.n	8009a70 <ip4_reass+0x334>
 800999a:	f8c4 8004 	str.w	r8, [r4, #4]
 800999e:	e79f      	b.n	80098e0 <ip4_reass+0x1a4>
 80099a0:	d066      	beq.n	8009a70 <ip4_reass+0x334>
 80099a2:	88d9      	ldrh	r1, [r3, #6]
 80099a4:	4281      	cmp	r1, r0
 80099a6:	d863      	bhi.n	8009a70 <ip4_reass+0x334>
 80099a8:	b125      	cbz	r5, 80099b4 <ip4_reass+0x278>
 80099aa:	88e9      	ldrh	r1, [r5, #6]
 80099ac:	4291      	cmp	r1, r2
 80099ae:	bf18      	it	ne
 80099b0:	f04f 0a00 	movne.w	sl, #0
 80099b4:	6819      	ldr	r1, [r3, #0]
 80099b6:	461d      	mov	r5, r3
 80099b8:	e751      	b.n	800985e <ip4_reass+0x122>
 80099ba:	88eb      	ldrh	r3, [r5, #6]
 80099bc:	4283      	cmp	r3, r0
 80099be:	d906      	bls.n	80099ce <ip4_reass+0x292>
 80099c0:	4b24      	ldr	r3, [pc, #144]	; (8009a54 <ip4_reass+0x318>)
 80099c2:	f44f 72db 	mov.w	r2, #438	; 0x1b6
 80099c6:	4927      	ldr	r1, [pc, #156]	; (8009a64 <ip4_reass+0x328>)
 80099c8:	4824      	ldr	r0, [pc, #144]	; (8009a5c <ip4_reass+0x320>)
 80099ca:	f000 fa4f 	bl	8009e6c <iprintf>
 80099ce:	88ea      	ldrh	r2, [r5, #6]
 80099d0:	f8c5 8000 	str.w	r8, [r5]
 80099d4:	88b3      	ldrh	r3, [r6, #4]
 80099d6:	429a      	cmp	r2, r3
 80099d8:	e780      	b.n	80098dc <ip4_reass+0x1a0>
 80099da:	6863      	ldr	r3, [r4, #4]
 80099dc:	2b00      	cmp	r3, #0
 80099de:	d08a      	beq.n	80098f6 <ip4_reass+0x1ba>
 80099e0:	6859      	ldr	r1, [r3, #4]
 80099e2:	888b      	ldrh	r3, [r1, #4]
 80099e4:	2b00      	cmp	r3, #0
 80099e6:	d186      	bne.n	80098f6 <ip4_reass+0x1ba>
 80099e8:	6833      	ldr	r3, [r6, #0]
 80099ea:	b9a3      	cbnz	r3, 8009a16 <ip4_reass+0x2da>
 80099ec:	42b1      	cmp	r1, r6
 80099ee:	d106      	bne.n	80099fe <ip4_reass+0x2c2>
 80099f0:	4b18      	ldr	r3, [pc, #96]	; (8009a54 <ip4_reass+0x318>)
 80099f2:	f44f 72f0 	mov.w	r2, #480	; 0x1e0
 80099f6:	491c      	ldr	r1, [pc, #112]	; (8009a68 <ip4_reass+0x32c>)
 80099f8:	4818      	ldr	r0, [pc, #96]	; (8009a5c <ip4_reass+0x320>)
 80099fa:	f000 fa37 	bl	8009e6c <iprintf>
 80099fe:	6833      	ldr	r3, [r6, #0]
 8009a00:	2b00      	cmp	r3, #0
 8009a02:	f43f af7a 	beq.w	80098fa <ip4_reass+0x1be>
 8009a06:	4b13      	ldr	r3, [pc, #76]	; (8009a54 <ip4_reass+0x318>)
 8009a08:	f44f 72f1 	mov.w	r2, #482	; 0x1e2
 8009a0c:	4917      	ldr	r1, [pc, #92]	; (8009a6c <ip4_reass+0x330>)
 8009a0e:	4813      	ldr	r0, [pc, #76]	; (8009a5c <ip4_reass+0x320>)
 8009a10:	f000 fa2c 	bl	8009e6c <iprintf>
 8009a14:	e771      	b.n	80098fa <ip4_reass+0x1be>
 8009a16:	685a      	ldr	r2, [r3, #4]
 8009a18:	88f0      	ldrh	r0, [r6, #6]
 8009a1a:	8893      	ldrh	r3, [r2, #4]
 8009a1c:	4298      	cmp	r0, r3
 8009a1e:	f47f af6a 	bne.w	80098f6 <ip4_reass+0x1ba>
 8009a22:	6813      	ldr	r3, [r2, #0]
 8009a24:	4616      	mov	r6, r2
 8009a26:	e7e0      	b.n	80099ea <ip4_reass+0x2ae>
 8009a28:	469a      	mov	sl, r3
 8009a2a:	e766      	b.n	80098fa <ip4_reass+0x1be>
 8009a2c:	f8d5 8004 	ldr.w	r8, [r5, #4]
 8009a30:	2114      	movs	r1, #20
 8009a32:	4628      	mov	r0, r5
 8009a34:	f7f9 ffe0 	bl	80039f8 <pbuf_remove_header>
 8009a38:	4629      	mov	r1, r5
 8009a3a:	4638      	mov	r0, r7
 8009a3c:	f7fa f968 	bl	8003d10 <pbuf_cat>
 8009a40:	f8d8 5000 	ldr.w	r5, [r8]
 8009a44:	e785      	b.n	8009952 <ip4_reass+0x216>
 8009a46:	682b      	ldr	r3, [r5, #0]
 8009a48:	e787      	b.n	800995a <ip4_reass+0x21e>
 8009a4a:	bf00      	nop
 8009a4c:	20005e8c 	.word	0x20005e8c
 8009a50:	20005e90 	.word	0x20005e90
 8009a54:	0800cc60 	.word	0x0800cc60
 8009a58:	0800cd39 	.word	0x0800cd39
 8009a5c:	0800af68 	.word	0x0800af68
 8009a60:	0800cd9f 	.word	0x0800cd9f
 8009a64:	0800cd1b 	.word	0x0800cd1b
 8009a68:	0800cd70 	.word	0x0800cd70
 8009a6c:	0800cd7d 	.word	0x0800cd7d
 8009a70:	6863      	ldr	r3, [r4, #4]
 8009a72:	2b00      	cmp	r3, #0
 8009a74:	f47f af0d 	bne.w	8009892 <ip4_reass+0x156>
 8009a78:	4b19      	ldr	r3, [pc, #100]	; (8009ae0 <ip4_reass+0x3a4>)
 8009a7a:	681b      	ldr	r3, [r3, #0]
 8009a7c:	42a3      	cmp	r3, r4
 8009a7e:	d006      	beq.n	8009a8e <ip4_reass+0x352>
 8009a80:	4b18      	ldr	r3, [pc, #96]	; (8009ae4 <ip4_reass+0x3a8>)
 8009a82:	f240 22ab 	movw	r2, #683	; 0x2ab
 8009a86:	4918      	ldr	r1, [pc, #96]	; (8009ae8 <ip4_reass+0x3ac>)
 8009a88:	4818      	ldr	r0, [pc, #96]	; (8009aec <ip4_reass+0x3b0>)
 8009a8a:	f000 f9ef 	bl	8009e6c <iprintf>
 8009a8e:	2100      	movs	r1, #0
 8009a90:	4620      	mov	r0, r4
 8009a92:	f7ff fd3b 	bl	800950c <ip_reass_dequeue_datagram>
 8009a96:	e6fc      	b.n	8009892 <ip4_reass+0x156>
 8009a98:	88e8      	ldrh	r0, [r5, #6]
 8009a9a:	f7f9 fb05 	bl	80030a8 <lwip_htons>
 8009a9e:	f3c0 000c 	ubfx	r0, r0, #0, #13
 8009aa2:	2800      	cmp	r0, #0
 8009aa4:	f47f ae9b 	bne.w	80097de <ip4_reass+0xa2>
 8009aa8:	89e0      	ldrh	r0, [r4, #14]
 8009aaa:	f7f9 fafd 	bl	80030a8 <lwip_htons>
 8009aae:	f3c0 000c 	ubfx	r0, r0, #0, #13
 8009ab2:	2800      	cmp	r0, #0
 8009ab4:	f43f ae93 	beq.w	80097de <ip4_reass+0xa2>
 8009ab8:	462b      	mov	r3, r5
 8009aba:	f104 0208 	add.w	r2, r4, #8
 8009abe:	f105 0114 	add.w	r1, r5, #20
 8009ac2:	f853 0b04 	ldr.w	r0, [r3], #4
 8009ac6:	428b      	cmp	r3, r1
 8009ac8:	f842 0b04 	str.w	r0, [r2], #4
 8009acc:	d1f9      	bne.n	8009ac2 <ip4_reass+0x386>
 8009ace:	e686      	b.n	80097de <ip4_reass+0xa2>
 8009ad0:	f1bb 0f00 	cmp.w	fp, #0
 8009ad4:	f43f af0f 	beq.w	80098f6 <ip4_reass+0x1ba>
 8009ad8:	f04f 0a00 	mov.w	sl, #0
 8009adc:	e703      	b.n	80098e6 <ip4_reass+0x1aa>
 8009ade:	bf00      	nop
 8009ae0:	20005e90 	.word	0x20005e90
 8009ae4:	0800cc60 	.word	0x0800cc60
 8009ae8:	0800cdba 	.word	0x0800cdba
 8009aec:	0800af68 	.word	0x0800af68

08009af0 <ip4_frag>:
 8009af0:	8d0b      	ldrh	r3, [r1, #40]	; 0x28
 8009af2:	e92d 4ff0 	stmdb	sp!, {r4, r5, r6, r7, r8, r9, sl, fp, lr}
 8009af6:	ed2d 8b02 	vpush	{d8}
 8009afa:	ee08 2a10 	vmov	s16, r2
 8009afe:	f1b3 0214 	subs.w	r2, r3, #20
 8009b02:	b08b      	sub	sp, #44	; 0x2c
 8009b04:	4605      	mov	r5, r0
 8009b06:	bf48      	it	mi
 8009b08:	f1a3 020d 	submi.w	r2, r3, #13
 8009b0c:	468a      	mov	sl, r1
 8009b0e:	f3c2 03cf 	ubfx	r3, r2, #3, #16
 8009b12:	9305      	str	r3, [sp, #20]
 8009b14:	6843      	ldr	r3, [r0, #4]
 8009b16:	9302      	str	r3, [sp, #8]
 8009b18:	781b      	ldrb	r3, [r3, #0]
 8009b1a:	f003 030f 	and.w	r3, r3, #15
 8009b1e:	2b05      	cmp	r3, #5
 8009b20:	ea4f 0783 	mov.w	r7, r3, lsl #2
 8009b24:	d109      	bne.n	8009b3a <ip4_frag+0x4a>
 8009b26:	8943      	ldrh	r3, [r0, #10]
 8009b28:	2b13      	cmp	r3, #19
 8009b2a:	d809      	bhi.n	8009b40 <ip4_frag+0x50>
 8009b2c:	4b60      	ldr	r3, [pc, #384]	; (8009cb0 <ip4_frag+0x1c0>)
 8009b2e:	f44f 723f 	mov.w	r2, #764	; 0x2fc
 8009b32:	4960      	ldr	r1, [pc, #384]	; (8009cb4 <ip4_frag+0x1c4>)
 8009b34:	4860      	ldr	r0, [pc, #384]	; (8009cb8 <ip4_frag+0x1c8>)
 8009b36:	f000 f999 	bl	8009e6c <iprintf>
 8009b3a:	f06f 0005 	mvn.w	r0, #5
 8009b3e:	e013      	b.n	8009b68 <ip4_frag+0x78>
 8009b40:	9b02      	ldr	r3, [sp, #8]
 8009b42:	2600      	movs	r6, #0
 8009b44:	88d8      	ldrh	r0, [r3, #6]
 8009b46:	f7f9 faaf 	bl	80030a8 <lwip_htons>
 8009b4a:	f3c0 030c 	ubfx	r3, r0, #0, #13
 8009b4e:	892c      	ldrh	r4, [r5, #8]
 8009b50:	9303      	str	r3, [sp, #12]
 8009b52:	f400 5300 	and.w	r3, r0, #8192	; 0x2000
 8009b56:	3c14      	subs	r4, #20
 8009b58:	9307      	str	r3, [sp, #28]
 8009b5a:	9b05      	ldr	r3, [sp, #20]
 8009b5c:	b2a4      	uxth	r4, r4
 8009b5e:	00db      	lsls	r3, r3, #3
 8009b60:	b29b      	uxth	r3, r3
 8009b62:	9306      	str	r3, [sp, #24]
 8009b64:	b92c      	cbnz	r4, 8009b72 <ip4_frag+0x82>
 8009b66:	4620      	mov	r0, r4
 8009b68:	b00b      	add	sp, #44	; 0x2c
 8009b6a:	ecbd 8b02 	vpop	{d8}
 8009b6e:	e8bd 8ff0 	ldmia.w	sp!, {r4, r5, r6, r7, r8, r9, sl, fp, pc}
 8009b72:	9b06      	ldr	r3, [sp, #24]
 8009b74:	f44f 7220 	mov.w	r2, #640	; 0x280
 8009b78:	2114      	movs	r1, #20
 8009b7a:	200e      	movs	r0, #14
 8009b7c:	42a3      	cmp	r3, r4
 8009b7e:	bf28      	it	cs
 8009b80:	4623      	movcs	r3, r4
 8009b82:	9304      	str	r3, [sp, #16]
 8009b84:	f7f9 ffd0 	bl	8003b28 <pbuf_alloc>
 8009b88:	4680      	mov	r8, r0
 8009b8a:	2800      	cmp	r0, #0
 8009b8c:	d036      	beq.n	8009bfc <ip4_frag+0x10c>
 8009b8e:	8943      	ldrh	r3, [r0, #10]
 8009b90:	2b13      	cmp	r3, #19
 8009b92:	d806      	bhi.n	8009ba2 <ip4_frag+0xb2>
 8009b94:	4b46      	ldr	r3, [pc, #280]	; (8009cb0 <ip4_frag+0x1c0>)
 8009b96:	f44f 7249 	mov.w	r2, #804	; 0x324
 8009b9a:	4948      	ldr	r1, [pc, #288]	; (8009cbc <ip4_frag+0x1cc>)
 8009b9c:	4846      	ldr	r0, [pc, #280]	; (8009cb8 <ip4_frag+0x1c8>)
 8009b9e:	f000 f965 	bl	8009e6c <iprintf>
 8009ba2:	9b02      	ldr	r3, [sp, #8]
 8009ba4:	f8d8 2004 	ldr.w	r2, [r8, #4]
 8009ba8:	4619      	mov	r1, r3
 8009baa:	3114      	adds	r1, #20
 8009bac:	f853 0b04 	ldr.w	r0, [r3], #4
 8009bb0:	428b      	cmp	r3, r1
 8009bb2:	f842 0b04 	str.w	r0, [r2], #4
 8009bb6:	d1f9      	bne.n	8009bac <ip4_frag+0xbc>
 8009bb8:	f8d8 b004 	ldr.w	fp, [r8, #4]
 8009bbc:	f8dd 9010 	ldr.w	r9, [sp, #16]
 8009bc0:	f1b9 0f00 	cmp.w	r9, #0
 8009bc4:	d041      	beq.n	8009c4a <ip4_frag+0x15a>
 8009bc6:	896b      	ldrh	r3, [r5, #10]
 8009bc8:	1bde      	subs	r6, r3, r7
 8009bca:	42bb      	cmp	r3, r7
 8009bcc:	b2b6      	uxth	r6, r6
 8009bce:	d206      	bcs.n	8009bde <ip4_frag+0xee>
 8009bd0:	4b37      	ldr	r3, [pc, #220]	; (8009cb0 <ip4_frag+0x1c0>)
 8009bd2:	f240 322d 	movw	r2, #813	; 0x32d
 8009bd6:	493a      	ldr	r1, [pc, #232]	; (8009cc0 <ip4_frag+0x1d0>)
 8009bd8:	4837      	ldr	r0, [pc, #220]	; (8009cb8 <ip4_frag+0x1c8>)
 8009bda:	f000 f947 	bl	8009e6c <iprintf>
 8009bde:	454e      	cmp	r6, r9
 8009be0:	bf28      	it	cs
 8009be2:	464e      	movcs	r6, r9
 8009be4:	b916      	cbnz	r6, 8009bec <ip4_frag+0xfc>
 8009be6:	682d      	ldr	r5, [r5, #0]
 8009be8:	2700      	movs	r7, #0
 8009bea:	e7e9      	b.n	8009bc0 <ip4_frag+0xd0>
 8009bec:	2005      	movs	r0, #5
 8009bee:	f7f9 fce5 	bl	80035bc <memp_malloc>
 8009bf2:	4603      	mov	r3, r0
 8009bf4:	b928      	cbnz	r0, 8009c02 <ip4_frag+0x112>
 8009bf6:	4640      	mov	r0, r8
 8009bf8:	f7f9 ff32 	bl	8003a60 <pbuf_free>
 8009bfc:	f04f 30ff 	mov.w	r0, #4294967295
 8009c00:	e7b2      	b.n	8009b68 <ip4_frag+0x78>
 8009c02:	9601      	str	r6, [sp, #4]
 8009c04:	4631      	mov	r1, r6
 8009c06:	686a      	ldr	r2, [r5, #4]
 8009c08:	9008      	str	r0, [sp, #32]
 8009c0a:	2000      	movs	r0, #0
 8009c0c:	443a      	add	r2, r7
 8009c0e:	9200      	str	r2, [sp, #0]
 8009c10:	2241      	movs	r2, #65	; 0x41
 8009c12:	f7f9 fed3 	bl	80039bc <pbuf_alloced_custom>
 8009c16:	9b08      	ldr	r3, [sp, #32]
 8009c18:	b918      	cbnz	r0, 8009c22 <ip4_frag+0x132>
 8009c1a:	4618      	mov	r0, r3
 8009c1c:	f7ff fd48 	bl	80096b0 <ip_frag_free_pbuf_custom_ref>
 8009c20:	e7e9      	b.n	8009bf6 <ip4_frag+0x106>
 8009c22:	e9cd 0308 	strd	r0, r3, [sp, #32]
 8009c26:	eba9 0906 	sub.w	r9, r9, r6
 8009c2a:	4628      	mov	r0, r5
 8009c2c:	f7fa f85c 	bl	8003ce8 <pbuf_ref>
 8009c30:	9b09      	ldr	r3, [sp, #36]	; 0x24
 8009c32:	4a24      	ldr	r2, [pc, #144]	; (8009cc4 <ip4_frag+0x1d4>)
 8009c34:	fa1f f989 	uxth.w	r9, r9
 8009c38:	9908      	ldr	r1, [sp, #32]
 8009c3a:	4640      	mov	r0, r8
 8009c3c:	615d      	str	r5, [r3, #20]
 8009c3e:	611a      	str	r2, [r3, #16]
 8009c40:	f7fa f866 	bl	8003d10 <pbuf_cat>
 8009c44:	f1b9 0f00 	cmp.w	r9, #0
 8009c48:	d1cd      	bne.n	8009be6 <ip4_frag+0xf6>
 8009c4a:	9b03      	ldr	r3, [sp, #12]
 8009c4c:	4437      	add	r7, r6
 8009c4e:	f3c3 000c 	ubfx	r0, r3, #0, #13
 8009c52:	f8ba 3028 	ldrh.w	r3, [sl, #40]	; 0x28
 8009c56:	b2bf      	uxth	r7, r7
 8009c58:	3b13      	subs	r3, #19
 8009c5a:	42a3      	cmp	r3, r4
 8009c5c:	dd01      	ble.n	8009c62 <ip4_frag+0x172>
 8009c5e:	9b07      	ldr	r3, [sp, #28]
 8009c60:	b10b      	cbz	r3, 8009c66 <ip4_frag+0x176>
 8009c62:	f440 5000 	orr.w	r0, r0, #8192	; 0x2000
 8009c66:	f7f9 fa1f 	bl	80030a8 <lwip_htons>
 8009c6a:	9b04      	ldr	r3, [sp, #16]
 8009c6c:	f8ab 0006 	strh.w	r0, [fp, #6]
 8009c70:	f103 0014 	add.w	r0, r3, #20
 8009c74:	b280      	uxth	r0, r0
 8009c76:	f7f9 fa17 	bl	80030a8 <lwip_htons>
 8009c7a:	2300      	movs	r3, #0
 8009c7c:	ee18 2a10 	vmov	r2, s16
 8009c80:	4641      	mov	r1, r8
 8009c82:	f8ab 0002 	strh.w	r0, [fp, #2]
 8009c86:	4650      	mov	r0, sl
 8009c88:	f88b 300a 	strb.w	r3, [fp, #10]
 8009c8c:	f88b 300b 	strb.w	r3, [fp, #11]
 8009c90:	f8da 3014 	ldr.w	r3, [sl, #20]
 8009c94:	4798      	blx	r3
 8009c96:	4640      	mov	r0, r8
 8009c98:	f7f9 fee2 	bl	8003a60 <pbuf_free>
 8009c9c:	9b04      	ldr	r3, [sp, #16]
 8009c9e:	9a05      	ldr	r2, [sp, #20]
 8009ca0:	1ae4      	subs	r4, r4, r3
 8009ca2:	9b03      	ldr	r3, [sp, #12]
 8009ca4:	4413      	add	r3, r2
 8009ca6:	b2a4      	uxth	r4, r4
 8009ca8:	b29b      	uxth	r3, r3
 8009caa:	9303      	str	r3, [sp, #12]
 8009cac:	e75a      	b.n	8009b64 <ip4_frag+0x74>
 8009cae:	bf00      	nop
 8009cb0:	0800cc60 	.word	0x0800cc60
 8009cb4:	0800cdda 	.word	0x0800cdda
 8009cb8:	0800af68 	.word	0x0800af68
 8009cbc:	0800cdf5 	.word	0x0800cdf5
 8009cc0:	0800ce15 	.word	0x0800ce15
 8009cc4:	080096dd 	.word	0x080096dd

08009cc8 <ethernet_input>:
 8009cc8:	8943      	ldrh	r3, [r0, #10]
 8009cca:	2b0e      	cmp	r3, #14
 8009ccc:	b570      	push	{r4, r5, r6, lr}
 8009cce:	4604      	mov	r4, r0
 8009cd0:	460d      	mov	r5, r1
 8009cd2:	d91a      	bls.n	8009d0a <ethernet_input+0x42>
 8009cd4:	7bc3      	ldrb	r3, [r0, #15]
 8009cd6:	b91b      	cbnz	r3, 8009ce0 <ethernet_input+0x18>
 8009cd8:	f891 3034 	ldrb.w	r3, [r1, #52]	; 0x34
 8009cdc:	3301      	adds	r3, #1
 8009cde:	73c3      	strb	r3, [r0, #15]
 8009ce0:	6860      	ldr	r0, [r4, #4]
 8009ce2:	7803      	ldrb	r3, [r0, #0]
 8009ce4:	8986      	ldrh	r6, [r0, #12]
 8009ce6:	07d9      	lsls	r1, r3, #31
 8009ce8:	d50a      	bpl.n	8009d00 <ethernet_input+0x38>
 8009cea:	2b01      	cmp	r3, #1
 8009cec:	d111      	bne.n	8009d12 <ethernet_input+0x4a>
 8009cee:	7843      	ldrb	r3, [r0, #1]
 8009cf0:	b933      	cbnz	r3, 8009d00 <ethernet_input+0x38>
 8009cf2:	7883      	ldrb	r3, [r0, #2]
 8009cf4:	2b5e      	cmp	r3, #94	; 0x5e
 8009cf6:	d103      	bne.n	8009d00 <ethernet_input+0x38>
 8009cf8:	7b63      	ldrb	r3, [r4, #13]
 8009cfa:	f043 0310 	orr.w	r3, r3, #16
 8009cfe:	7363      	strb	r3, [r4, #13]
 8009d00:	2e08      	cmp	r6, #8
 8009d02:	d010      	beq.n	8009d26 <ethernet_input+0x5e>
 8009d04:	f5b6 6fc1 	cmp.w	r6, #1544	; 0x608
 8009d08:	d01d      	beq.n	8009d46 <ethernet_input+0x7e>
 8009d0a:	4620      	mov	r0, r4
 8009d0c:	f7f9 fea8 	bl	8003a60 <pbuf_free>
 8009d10:	e017      	b.n	8009d42 <ethernet_input+0x7a>
 8009d12:	2206      	movs	r2, #6
 8009d14:	4913      	ldr	r1, [pc, #76]	; (8009d64 <ethernet_input+0x9c>)
 8009d16:	f000 f883 	bl	8009e20 <memcmp>
 8009d1a:	2800      	cmp	r0, #0
 8009d1c:	d1f0      	bne.n	8009d00 <ethernet_input+0x38>
 8009d1e:	7b63      	ldrb	r3, [r4, #13]
 8009d20:	f043 0308 	orr.w	r3, r3, #8
 8009d24:	e7eb      	b.n	8009cfe <ethernet_input+0x36>
 8009d26:	f895 3031 	ldrb.w	r3, [r5, #49]	; 0x31
 8009d2a:	071a      	lsls	r2, r3, #28
 8009d2c:	d5ed      	bpl.n	8009d0a <ethernet_input+0x42>
 8009d2e:	210e      	movs	r1, #14
 8009d30:	4620      	mov	r0, r4
 8009d32:	f7f9 fe61 	bl	80039f8 <pbuf_remove_header>
 8009d36:	2800      	cmp	r0, #0
 8009d38:	d1e7      	bne.n	8009d0a <ethernet_input+0x42>
 8009d3a:	4629      	mov	r1, r5
 8009d3c:	4620      	mov	r0, r4
 8009d3e:	f7ff fa79 	bl	8009234 <ip4_input>
 8009d42:	2000      	movs	r0, #0
 8009d44:	bd70      	pop	{r4, r5, r6, pc}
 8009d46:	f895 3031 	ldrb.w	r3, [r5, #49]	; 0x31
 8009d4a:	071b      	lsls	r3, r3, #28
 8009d4c:	d5dd      	bpl.n	8009d0a <ethernet_input+0x42>
 8009d4e:	210e      	movs	r1, #14
 8009d50:	4620      	mov	r0, r4
 8009d52:	f7f9 fe51 	bl	80039f8 <pbuf_remove_header>
 8009d56:	2800      	cmp	r0, #0
 8009d58:	d1d7      	bne.n	8009d0a <ethernet_input+0x42>
 8009d5a:	4629      	mov	r1, r5
 8009d5c:	4620      	mov	r0, r4
 8009d5e:	f7fe febd 	bl	8008adc <etharp_input>
 8009d62:	e7ee      	b.n	8009d42 <ethernet_input+0x7a>
 8009d64:	0800ce8a 	.word	0x0800ce8a

08009d68 <ethernet_output>:
 8009d68:	e92d 41f0 	stmdb	sp!, {r4, r5, r6, r7, r8, lr}
 8009d6c:	460d      	mov	r5, r1
 8009d6e:	4604      	mov	r4, r0
 8009d70:	f8bd 0018 	ldrh.w	r0, [sp, #24]
 8009d74:	4616      	mov	r6, r2
 8009d76:	461f      	mov	r7, r3
 8009d78:	f7f9 f996 	bl	80030a8 <lwip_htons>
 8009d7c:	210e      	movs	r1, #14
 8009d7e:	4680      	mov	r8, r0
 8009d80:	4628      	mov	r0, r5
 8009d82:	f7f9 fe35 	bl	80039f0 <pbuf_add_header>
 8009d86:	b9e0      	cbnz	r0, 8009dc2 <ethernet_output+0x5a>
 8009d88:	6869      	ldr	r1, [r5, #4]
 8009d8a:	f8a1 800c 	strh.w	r8, [r1, #12]
 8009d8e:	683b      	ldr	r3, [r7, #0]
 8009d90:	600b      	str	r3, [r1, #0]
 8009d92:	88bb      	ldrh	r3, [r7, #4]
 8009d94:	808b      	strh	r3, [r1, #4]
 8009d96:	6833      	ldr	r3, [r6, #0]
 8009d98:	f8c1 3006 	str.w	r3, [r1, #6]
 8009d9c:	88b3      	ldrh	r3, [r6, #4]
 8009d9e:	814b      	strh	r3, [r1, #10]
 8009da0:	f894 3030 	ldrb.w	r3, [r4, #48]	; 0x30
 8009da4:	2b06      	cmp	r3, #6
 8009da6:	d006      	beq.n	8009db6 <ethernet_output+0x4e>
 8009da8:	4b08      	ldr	r3, [pc, #32]	; (8009dcc <ethernet_output+0x64>)
 8009daa:	f44f 7299 	mov.w	r2, #306	; 0x132
 8009dae:	4908      	ldr	r1, [pc, #32]	; (8009dd0 <ethernet_output+0x68>)
 8009db0:	4808      	ldr	r0, [pc, #32]	; (8009dd4 <ethernet_output+0x6c>)
 8009db2:	f000 f85b 	bl	8009e6c <iprintf>
 8009db6:	69a3      	ldr	r3, [r4, #24]
 8009db8:	4629      	mov	r1, r5
 8009dba:	4620      	mov	r0, r4
 8009dbc:	e8bd 41f0 	ldmia.w	sp!, {r4, r5, r6, r7, r8, lr}
 8009dc0:	4718      	bx	r3
 8009dc2:	f06f 0001 	mvn.w	r0, #1
 8009dc6:	e8bd 81f0 	ldmia.w	sp!, {r4, r5, r6, r7, r8, pc}
 8009dca:	bf00      	nop
 8009dcc:	0800ce24 	.word	0x0800ce24
 8009dd0:	0800ce59 	.word	0x0800ce59
 8009dd4:	0800af68 	.word	0x0800af68

08009dd8 <__libc_init_array>:
 8009dd8:	b570      	push	{r4, r5, r6, lr}
 8009dda:	4d0d      	ldr	r5, [pc, #52]	; (8009e10 <__libc_init_array+0x38>)
 8009ddc:	4c0d      	ldr	r4, [pc, #52]	; (8009e14 <__libc_init_array+0x3c>)
 8009dde:	1b64      	subs	r4, r4, r5
 8009de0:	10a4      	asrs	r4, r4, #2
 8009de2:	2600      	movs	r6, #0
 8009de4:	42a6      	cmp	r6, r4
 8009de6:	d109      	bne.n	8009dfc <__libc_init_array+0x24>
 8009de8:	4d0b      	ldr	r5, [pc, #44]	; (8009e18 <__libc_init_array+0x40>)
 8009dea:	4c0c      	ldr	r4, [pc, #48]	; (8009e1c <__libc_init_array+0x44>)
 8009dec:	f001 f88e 	bl	800af0c <_init>
 8009df0:	1b64      	subs	r4, r4, r5
 8009df2:	10a4      	asrs	r4, r4, #2
 8009df4:	2600      	movs	r6, #0
 8009df6:	42a6      	cmp	r6, r4
 8009df8:	d105      	bne.n	8009e06 <__libc_init_array+0x2e>
 8009dfa:	bd70      	pop	{r4, r5, r6, pc}
 8009dfc:	f855 3b04 	ldr.w	r3, [r5], #4
 8009e00:	4798      	blx	r3
 8009e02:	3601      	adds	r6, #1
 8009e04:	e7ee      	b.n	8009de4 <__libc_init_array+0xc>
 8009e06:	f855 3b04 	ldr.w	r3, [r5], #4
 8009e0a:	4798      	blx	r3
 8009e0c:	3601      	adds	r6, #1
 8009e0e:	e7f2      	b.n	8009df6 <__libc_init_array+0x1e>
 8009e10:	0800cfe8 	.word	0x0800cfe8
 8009e14:	0800cfe8 	.word	0x0800cfe8
 8009e18:	0800cfe8 	.word	0x0800cfe8
 8009e1c:	0800cfec 	.word	0x0800cfec

08009e20 <memcmp>:
 8009e20:	b510      	push	{r4, lr}
 8009e22:	3901      	subs	r1, #1
 8009e24:	4402      	add	r2, r0
 8009e26:	4290      	cmp	r0, r2
 8009e28:	d101      	bne.n	8009e2e <memcmp+0xe>
 8009e2a:	2000      	movs	r0, #0
 8009e2c:	e005      	b.n	8009e3a <memcmp+0x1a>
 8009e2e:	7803      	ldrb	r3, [r0, #0]
 8009e30:	f811 4f01 	ldrb.w	r4, [r1, #1]!
 8009e34:	42a3      	cmp	r3, r4
 8009e36:	d001      	beq.n	8009e3c <memcmp+0x1c>
 8009e38:	1b18      	subs	r0, r3, r4
 8009e3a:	bd10      	pop	{r4, pc}
 8009e3c:	3001      	adds	r0, #1
 8009e3e:	e7f2      	b.n	8009e26 <memcmp+0x6>

08009e40 <memcpy>:
 8009e40:	440a      	add	r2, r1
 8009e42:	4291      	cmp	r1, r2
 8009e44:	f100 33ff 	add.w	r3, r0, #4294967295
 8009e48:	d100      	bne.n	8009e4c <memcpy+0xc>
 8009e4a:	4770      	bx	lr
 8009e4c:	b510      	push	{r4, lr}
 8009e4e:	f811 4b01 	ldrb.w	r4, [r1], #1
 8009e52:	f803 4f01 	strb.w	r4, [r3, #1]!
 8009e56:	4291      	cmp	r1, r2
 8009e58:	d1f9      	bne.n	8009e4e <memcpy+0xe>
 8009e5a:	bd10      	pop	{r4, pc}

08009e5c <memset>:
 8009e5c:	4402      	add	r2, r0
 8009e5e:	4603      	mov	r3, r0
 8009e60:	4293      	cmp	r3, r2
 8009e62:	d100      	bne.n	8009e66 <memset+0xa>
 8009e64:	4770      	bx	lr
 8009e66:	f803 1b01 	strb.w	r1, [r3], #1
 8009e6a:	e7f9      	b.n	8009e60 <memset+0x4>

08009e6c <iprintf>:
 8009e6c:	b40f      	push	{r0, r1, r2, r3}
 8009e6e:	4b0a      	ldr	r3, [pc, #40]	; (8009e98 <iprintf+0x2c>)
 8009e70:	b513      	push	{r0, r1, r4, lr}
 8009e72:	681c      	ldr	r4, [r3, #0]
 8009e74:	b124      	cbz	r4, 8009e80 <iprintf+0x14>
 8009e76:	69a3      	ldr	r3, [r4, #24]
 8009e78:	b913      	cbnz	r3, 8009e80 <iprintf+0x14>
 8009e7a:	4620      	mov	r0, r4
 8009e7c:	f000 f8c2 	bl	800a004 <__sinit>
 8009e80:	ab05      	add	r3, sp, #20
 8009e82:	9a04      	ldr	r2, [sp, #16]
 8009e84:	68a1      	ldr	r1, [r4, #8]
 8009e86:	9301      	str	r3, [sp, #4]
 8009e88:	4620      	mov	r0, r4
 8009e8a:	f000 fa7f 	bl	800a38c <_vfiprintf_r>
 8009e8e:	b002      	add	sp, #8
 8009e90:	e8bd 4010 	ldmia.w	sp!, {r4, lr}
 8009e94:	b004      	add	sp, #16
 8009e96:	4770      	bx	lr
 8009e98:	20000014 	.word	0x20000014

08009e9c <rand>:
 8009e9c:	4b16      	ldr	r3, [pc, #88]	; (8009ef8 <rand+0x5c>)
 8009e9e:	b510      	push	{r4, lr}
 8009ea0:	681c      	ldr	r4, [r3, #0]
 8009ea2:	6ba3      	ldr	r3, [r4, #56]	; 0x38
 8009ea4:	b9b3      	cbnz	r3, 8009ed4 <rand+0x38>
 8009ea6:	2018      	movs	r0, #24
 8009ea8:	f000 f95e 	bl	800a168 <malloc>
 8009eac:	63a0      	str	r0, [r4, #56]	; 0x38
 8009eae:	b928      	cbnz	r0, 8009ebc <rand+0x20>
 8009eb0:	4602      	mov	r2, r0
 8009eb2:	4b12      	ldr	r3, [pc, #72]	; (8009efc <rand+0x60>)
 8009eb4:	4812      	ldr	r0, [pc, #72]	; (8009f00 <rand+0x64>)
 8009eb6:	214e      	movs	r1, #78	; 0x4e
 8009eb8:	f000 f82e 	bl	8009f18 <__assert_func>
 8009ebc:	4a11      	ldr	r2, [pc, #68]	; (8009f04 <rand+0x68>)
 8009ebe:	4b12      	ldr	r3, [pc, #72]	; (8009f08 <rand+0x6c>)
 8009ec0:	e9c0 2300 	strd	r2, r3, [r0]
 8009ec4:	4b11      	ldr	r3, [pc, #68]	; (8009f0c <rand+0x70>)
 8009ec6:	6083      	str	r3, [r0, #8]
 8009ec8:	230b      	movs	r3, #11
 8009eca:	8183      	strh	r3, [r0, #12]
 8009ecc:	2201      	movs	r2, #1
 8009ece:	2300      	movs	r3, #0
 8009ed0:	e9c0 2304 	strd	r2, r3, [r0, #16]
 8009ed4:	6ba4      	ldr	r4, [r4, #56]	; 0x38
 8009ed6:	4a0e      	ldr	r2, [pc, #56]	; (8009f10 <rand+0x74>)
 8009ed8:	6920      	ldr	r0, [r4, #16]
 8009eda:	6963      	ldr	r3, [r4, #20]
 8009edc:	490d      	ldr	r1, [pc, #52]	; (8009f14 <rand+0x78>)
 8009ede:	4342      	muls	r2, r0
 8009ee0:	fb01 2203 	mla	r2, r1, r3, r2
 8009ee4:	fba0 0101 	umull	r0, r1, r0, r1
 8009ee8:	1c43      	adds	r3, r0, #1
 8009eea:	eb42 0001 	adc.w	r0, r2, r1
 8009eee:	e9c4 3004 	strd	r3, r0, [r4, #16]
 8009ef2:	f020 4000 	bic.w	r0, r0, #2147483648	; 0x80000000
 8009ef6:	bd10      	pop	{r4, pc}
 8009ef8:	20000014 	.word	0x20000014
 8009efc:	0800ce9c 	.word	0x0800ce9c
 8009f00:	0800ceb3 	.word	0x0800ceb3
 8009f04:	abcd330e 	.word	0xabcd330e
 8009f08:	e66d1234 	.word	0xe66d1234
 8009f0c:	0005deec 	.word	0x0005deec
 8009f10:	5851f42d 	.word	0x5851f42d
 8009f14:	4c957f2d 	.word	0x4c957f2d

08009f18 <__assert_func>:
 8009f18:	b51f      	push	{r0, r1, r2, r3, r4, lr}
 8009f1a:	4614      	mov	r4, r2
 8009f1c:	461a      	mov	r2, r3
 8009f1e:	4b09      	ldr	r3, [pc, #36]	; (8009f44 <__assert_func+0x2c>)
 8009f20:	681b      	ldr	r3, [r3, #0]
 8009f22:	4605      	mov	r5, r0
 8009f24:	68d8      	ldr	r0, [r3, #12]
 8009f26:	b14c      	cbz	r4, 8009f3c <__assert_func+0x24>
 8009f28:	4b07      	ldr	r3, [pc, #28]	; (8009f48 <__assert_func+0x30>)
 8009f2a:	9100      	str	r1, [sp, #0]
 8009f2c:	e9cd 3401 	strd	r3, r4, [sp, #4]
 8009f30:	4906      	ldr	r1, [pc, #24]	; (8009f4c <__assert_func+0x34>)
 8009f32:	462b      	mov	r3, r5
 8009f34:	f000 f8e4 	bl	800a100 <fiprintf>
 8009f38:	f000 fe12 	bl	800ab60 <abort>
 8009f3c:	4b04      	ldr	r3, [pc, #16]	; (8009f50 <__assert_func+0x38>)
 8009f3e:	461c      	mov	r4, r3
 8009f40:	e7f3      	b.n	8009f2a <__assert_func+0x12>
 8009f42:	bf00      	nop
 8009f44:	20000014 	.word	0x20000014
 8009f48:	0800cf0e 	.word	0x0800cf0e
 8009f4c:	0800cf1b 	.word	0x0800cf1b
 8009f50:	0800b97e 	.word	0x0800b97e

08009f54 <std>:
 8009f54:	2300      	movs	r3, #0
 8009f56:	b510      	push	{r4, lr}
 8009f58:	4604      	mov	r4, r0
 8009f5a:	e9c0 3300 	strd	r3, r3, [r0]
 8009f5e:	e9c0 3304 	strd	r3, r3, [r0, #16]
 8009f62:	6083      	str	r3, [r0, #8]
 8009f64:	8181      	strh	r1, [r0, #12]
 8009f66:	6643      	str	r3, [r0, #100]	; 0x64
 8009f68:	81c2      	strh	r2, [r0, #14]
 8009f6a:	6183      	str	r3, [r0, #24]
 8009f6c:	4619      	mov	r1, r3
 8009f6e:	2208      	movs	r2, #8
 8009f70:	305c      	adds	r0, #92	; 0x5c
 8009f72:	f7ff ff73 	bl	8009e5c <memset>
 8009f76:	4b05      	ldr	r3, [pc, #20]	; (8009f8c <std+0x38>)
 8009f78:	6263      	str	r3, [r4, #36]	; 0x24
 8009f7a:	4b05      	ldr	r3, [pc, #20]	; (8009f90 <std+0x3c>)
 8009f7c:	62a3      	str	r3, [r4, #40]	; 0x28
 8009f7e:	4b05      	ldr	r3, [pc, #20]	; (8009f94 <std+0x40>)
 8009f80:	62e3      	str	r3, [r4, #44]	; 0x2c
 8009f82:	4b05      	ldr	r3, [pc, #20]	; (8009f98 <std+0x44>)
 8009f84:	6224      	str	r4, [r4, #32]
 8009f86:	6323      	str	r3, [r4, #48]	; 0x30
 8009f88:	bd10      	pop	{r4, pc}
 8009f8a:	bf00      	nop
 8009f8c:	0800a935 	.word	0x0800a935
 8009f90:	0800a957 	.word	0x0800a957
 8009f94:	0800a98f 	.word	0x0800a98f
 8009f98:	0800a9b3 	.word	0x0800a9b3

08009f9c <_cleanup_r>:
 8009f9c:	4901      	ldr	r1, [pc, #4]	; (8009fa4 <_cleanup_r+0x8>)
 8009f9e:	f000 b8c1 	b.w	800a124 <_fwalk_reent>
 8009fa2:	bf00      	nop
 8009fa4:	0800ac9d 	.word	0x0800ac9d

08009fa8 <__sfmoreglue>:
 8009fa8:	b570      	push	{r4, r5, r6, lr}
 8009faa:	2268      	movs	r2, #104	; 0x68
 8009fac:	1e4d      	subs	r5, r1, #1
 8009fae:	4355      	muls	r5, r2
 8009fb0:	460e      	mov	r6, r1
 8009fb2:	f105 0174 	add.w	r1, r5, #116	; 0x74
 8009fb6:	f000 f94b 	bl	800a250 <_malloc_r>
 8009fba:	4604      	mov	r4, r0
 8009fbc:	b140      	cbz	r0, 8009fd0 <__sfmoreglue+0x28>
 8009fbe:	2100      	movs	r1, #0
 8009fc0:	e9c0 1600 	strd	r1, r6, [r0]
 8009fc4:	300c      	adds	r0, #12
 8009fc6:	60a0      	str	r0, [r4, #8]
 8009fc8:	f105 0268 	add.w	r2, r5, #104	; 0x68
 8009fcc:	f7ff ff46 	bl	8009e5c <memset>
 8009fd0:	4620      	mov	r0, r4
 8009fd2:	bd70      	pop	{r4, r5, r6, pc}

08009fd4 <__sfp_lock_acquire>:
 8009fd4:	4801      	ldr	r0, [pc, #4]	; (8009fdc <__sfp_lock_acquire+0x8>)
 8009fd6:	f000 b8c5 	b.w	800a164 <__retarget_lock_acquire_recursive>
 8009fda:	bf00      	nop
 8009fdc:	20005e99 	.word	0x20005e99

08009fe0 <__sfp_lock_release>:
 8009fe0:	4801      	ldr	r0, [pc, #4]	; (8009fe8 <__sfp_lock_release+0x8>)
 8009fe2:	f000 b8c0 	b.w	800a166 <__retarget_lock_release_recursive>
 8009fe6:	bf00      	nop
 8009fe8:	20005e99 	.word	0x20005e99

08009fec <__sinit_lock_acquire>:
 8009fec:	4801      	ldr	r0, [pc, #4]	; (8009ff4 <__sinit_lock_acquire+0x8>)
 8009fee:	f000 b8b9 	b.w	800a164 <__retarget_lock_acquire_recursive>
 8009ff2:	bf00      	nop
 8009ff4:	20005e9a 	.word	0x20005e9a

08009ff8 <__sinit_lock_release>:
 8009ff8:	4801      	ldr	r0, [pc, #4]	; (800a000 <__sinit_lock_release+0x8>)
 8009ffa:	f000 b8b4 	b.w	800a166 <__retarget_lock_release_recursive>
 8009ffe:	bf00      	nop
 800a000:	20005e9a 	.word	0x20005e9a

0800a004 <__sinit>:
 800a004:	b510      	push	{r4, lr}
 800a006:	4604      	mov	r4, r0
 800a008:	f7ff fff0 	bl	8009fec <__sinit_lock_acquire>
 800a00c:	69a3      	ldr	r3, [r4, #24]
 800a00e:	b11b      	cbz	r3, 800a018 <__sinit+0x14>
 800a010:	e8bd 4010 	ldmia.w	sp!, {r4, lr}
 800a014:	f7ff bff0 	b.w	8009ff8 <__sinit_lock_release>
 800a018:	e9c4 3312 	strd	r3, r3, [r4, #72]	; 0x48
 800a01c:	6523      	str	r3, [r4, #80]	; 0x50
 800a01e:	4b13      	ldr	r3, [pc, #76]	; (800a06c <__sinit+0x68>)
 800a020:	4a13      	ldr	r2, [pc, #76]	; (800a070 <__sinit+0x6c>)
 800a022:	681b      	ldr	r3, [r3, #0]
 800a024:	62a2      	str	r2, [r4, #40]	; 0x28
 800a026:	42a3      	cmp	r3, r4
 800a028:	bf04      	itt	eq
 800a02a:	2301      	moveq	r3, #1
 800a02c:	61a3      	streq	r3, [r4, #24]
 800a02e:	4620      	mov	r0, r4
 800a030:	f000 f820 	bl	800a074 <__sfp>
 800a034:	6060      	str	r0, [r4, #4]
 800a036:	4620      	mov	r0, r4
 800a038:	f000 f81c 	bl	800a074 <__sfp>
 800a03c:	60a0      	str	r0, [r4, #8]
 800a03e:	4620      	mov	r0, r4
 800a040:	f000 f818 	bl	800a074 <__sfp>
 800a044:	2200      	movs	r2, #0
 800a046:	60e0      	str	r0, [r4, #12]
 800a048:	2104      	movs	r1, #4
 800a04a:	6860      	ldr	r0, [r4, #4]
 800a04c:	f7ff ff82 	bl	8009f54 <std>
 800a050:	68a0      	ldr	r0, [r4, #8]
 800a052:	2201      	movs	r2, #1
 800a054:	2109      	movs	r1, #9
 800a056:	f7ff ff7d 	bl	8009f54 <std>
 800a05a:	68e0      	ldr	r0, [r4, #12]
 800a05c:	2202      	movs	r2, #2
 800a05e:	2112      	movs	r1, #18
 800a060:	f7ff ff78 	bl	8009f54 <std>
 800a064:	2301      	movs	r3, #1
 800a066:	61a3      	str	r3, [r4, #24]
 800a068:	e7d2      	b.n	800a010 <__sinit+0xc>
 800a06a:	bf00      	nop
 800a06c:	0800ce98 	.word	0x0800ce98
 800a070:	08009f9d 	.word	0x08009f9d

0800a074 <__sfp>:
 800a074:	b5f8      	push	{r3, r4, r5, r6, r7, lr}
 800a076:	4607      	mov	r7, r0
 800a078:	f7ff ffac 	bl	8009fd4 <__sfp_lock_acquire>
 800a07c:	4b1e      	ldr	r3, [pc, #120]	; (800a0f8 <__sfp+0x84>)
 800a07e:	681e      	ldr	r6, [r3, #0]
 800a080:	69b3      	ldr	r3, [r6, #24]
 800a082:	b913      	cbnz	r3, 800a08a <__sfp+0x16>
 800a084:	4630      	mov	r0, r6
 800a086:	f7ff ffbd 	bl	800a004 <__sinit>
 800a08a:	3648      	adds	r6, #72	; 0x48
 800a08c:	e9d6 3401 	ldrd	r3, r4, [r6, #4]
 800a090:	3b01      	subs	r3, #1
 800a092:	d503      	bpl.n	800a09c <__sfp+0x28>
 800a094:	6833      	ldr	r3, [r6, #0]
 800a096:	b30b      	cbz	r3, 800a0dc <__sfp+0x68>
 800a098:	6836      	ldr	r6, [r6, #0]
 800a09a:	e7f7      	b.n	800a08c <__sfp+0x18>
 800a09c:	f9b4 500c 	ldrsh.w	r5, [r4, #12]
 800a0a0:	b9d5      	cbnz	r5, 800a0d8 <__sfp+0x64>
 800a0a2:	4b16      	ldr	r3, [pc, #88]	; (800a0fc <__sfp+0x88>)
 800a0a4:	60e3      	str	r3, [r4, #12]
 800a0a6:	f104 0058 	add.w	r0, r4, #88	; 0x58
 800a0aa:	6665      	str	r5, [r4, #100]	; 0x64
 800a0ac:	f000 f859 	bl	800a162 <__retarget_lock_init_recursive>
 800a0b0:	f7ff ff96 	bl	8009fe0 <__sfp_lock_release>
 800a0b4:	e9c4 5501 	strd	r5, r5, [r4, #4]
 800a0b8:	e9c4 5504 	strd	r5, r5, [r4, #16]
 800a0bc:	6025      	str	r5, [r4, #0]
 800a0be:	61a5      	str	r5, [r4, #24]
 800a0c0:	2208      	movs	r2, #8
 800a0c2:	4629      	mov	r1, r5
 800a0c4:	f104 005c 	add.w	r0, r4, #92	; 0x5c
 800a0c8:	f7ff fec8 	bl	8009e5c <memset>
 800a0cc:	e9c4 550d 	strd	r5, r5, [r4, #52]	; 0x34
 800a0d0:	e9c4 5512 	strd	r5, r5, [r4, #72]	; 0x48
 800a0d4:	4620      	mov	r0, r4
 800a0d6:	bdf8      	pop	{r3, r4, r5, r6, r7, pc}
 800a0d8:	3468      	adds	r4, #104	; 0x68
 800a0da:	e7d9      	b.n	800a090 <__sfp+0x1c>
 800a0dc:	2104      	movs	r1, #4
 800a0de:	4638      	mov	r0, r7
 800a0e0:	f7ff ff62 	bl	8009fa8 <__sfmoreglue>
 800a0e4:	4604      	mov	r4, r0
 800a0e6:	6030      	str	r0, [r6, #0]
 800a0e8:	2800      	cmp	r0, #0
 800a0ea:	d1d5      	bne.n	800a098 <__sfp+0x24>
 800a0ec:	f7ff ff78 	bl	8009fe0 <__sfp_lock_release>
 800a0f0:	230c      	movs	r3, #12
 800a0f2:	603b      	str	r3, [r7, #0]
 800a0f4:	e7ee      	b.n	800a0d4 <__sfp+0x60>
 800a0f6:	bf00      	nop
 800a0f8:	0800ce98 	.word	0x0800ce98
 800a0fc:	ffff0001 	.word	0xffff0001

0800a100 <fiprintf>:
 800a100:	b40e      	push	{r1, r2, r3}
 800a102:	b503      	push	{r0, r1, lr}
 800a104:	4601      	mov	r1, r0
 800a106:	ab03      	add	r3, sp, #12
 800a108:	4805      	ldr	r0, [pc, #20]	; (800a120 <fiprintf+0x20>)
 800a10a:	f853 2b04 	ldr.w	r2, [r3], #4
 800a10e:	6800      	ldr	r0, [r0, #0]
 800a110:	9301      	str	r3, [sp, #4]
 800a112:	f000 f93b 	bl	800a38c <_vfiprintf_r>
 800a116:	b002      	add	sp, #8
 800a118:	f85d eb04 	ldr.w	lr, [sp], #4
 800a11c:	b003      	add	sp, #12
 800a11e:	4770      	bx	lr
 800a120:	20000014 	.word	0x20000014

0800a124 <_fwalk_reent>:
 800a124:	e92d 43f8 	stmdb	sp!, {r3, r4, r5, r6, r7, r8, r9, lr}
 800a128:	4606      	mov	r6, r0
 800a12a:	4688      	mov	r8, r1
 800a12c:	f100 0448 	add.w	r4, r0, #72	; 0x48
 800a130:	2700      	movs	r7, #0
 800a132:	e9d4 9501 	ldrd	r9, r5, [r4, #4]
 800a136:	f1b9 0901 	subs.w	r9, r9, #1
 800a13a:	d505      	bpl.n	800a148 <_fwalk_reent+0x24>
 800a13c:	6824      	ldr	r4, [r4, #0]
 800a13e:	2c00      	cmp	r4, #0
 800a140:	d1f7      	bne.n	800a132 <_fwalk_reent+0xe>
 800a142:	4638      	mov	r0, r7
 800a144:	e8bd 83f8 	ldmia.w	sp!, {r3, r4, r5, r6, r7, r8, r9, pc}
 800a148:	89ab      	ldrh	r3, [r5, #12]
 800a14a:	2b01      	cmp	r3, #1
 800a14c:	d907      	bls.n	800a15e <_fwalk_reent+0x3a>
 800a14e:	f9b5 300e 	ldrsh.w	r3, [r5, #14]
 800a152:	3301      	adds	r3, #1
 800a154:	d003      	beq.n	800a15e <_fwalk_reent+0x3a>
 800a156:	4629      	mov	r1, r5
 800a158:	4630      	mov	r0, r6
 800a15a:	47c0      	blx	r8
 800a15c:	4307      	orrs	r7, r0
 800a15e:	3568      	adds	r5, #104	; 0x68
 800a160:	e7e9      	b.n	800a136 <_fwalk_reent+0x12>

0800a162 <__retarget_lock_init_recursive>:
 800a162:	4770      	bx	lr

0800a164 <__retarget_lock_acquire_recursive>:
 800a164:	4770      	bx	lr

0800a166 <__retarget_lock_release_recursive>:
 800a166:	4770      	bx	lr

0800a168 <malloc>:
 800a168:	4b02      	ldr	r3, [pc, #8]	; (800a174 <malloc+0xc>)
 800a16a:	4601      	mov	r1, r0
 800a16c:	6818      	ldr	r0, [r3, #0]
 800a16e:	f000 b86f 	b.w	800a250 <_malloc_r>
 800a172:	bf00      	nop
 800a174:	20000014 	.word	0x20000014

0800a178 <_free_r>:
 800a178:	b537      	push	{r0, r1, r2, r4, r5, lr}
 800a17a:	2900      	cmp	r1, #0
 800a17c:	d044      	beq.n	800a208 <_free_r+0x90>
 800a17e:	f851 3c04 	ldr.w	r3, [r1, #-4]
 800a182:	9001      	str	r0, [sp, #4]
 800a184:	2b00      	cmp	r3, #0
 800a186:	f1a1 0404 	sub.w	r4, r1, #4
 800a18a:	bfb8      	it	lt
 800a18c:	18e4      	addlt	r4, r4, r3
 800a18e:	f000 fe39 	bl	800ae04 <__malloc_lock>
 800a192:	4a1e      	ldr	r2, [pc, #120]	; (800a20c <_free_r+0x94>)
 800a194:	9801      	ldr	r0, [sp, #4]
 800a196:	6813      	ldr	r3, [r2, #0]
 800a198:	b933      	cbnz	r3, 800a1a8 <_free_r+0x30>
 800a19a:	6063      	str	r3, [r4, #4]
 800a19c:	6014      	str	r4, [r2, #0]
 800a19e:	b003      	add	sp, #12
 800a1a0:	e8bd 4030 	ldmia.w	sp!, {r4, r5, lr}
 800a1a4:	f000 be34 	b.w	800ae10 <__malloc_unlock>
 800a1a8:	42a3      	cmp	r3, r4
 800a1aa:	d908      	bls.n	800a1be <_free_r+0x46>
 800a1ac:	6825      	ldr	r5, [r4, #0]
 800a1ae:	1961      	adds	r1, r4, r5
 800a1b0:	428b      	cmp	r3, r1
 800a1b2:	bf01      	itttt	eq
 800a1b4:	6819      	ldreq	r1, [r3, #0]
 800a1b6:	685b      	ldreq	r3, [r3, #4]
 800a1b8:	1949      	addeq	r1, r1, r5
 800a1ba:	6021      	streq	r1, [r4, #0]
 800a1bc:	e7ed      	b.n	800a19a <_free_r+0x22>
 800a1be:	461a      	mov	r2, r3
 800a1c0:	685b      	ldr	r3, [r3, #4]
 800a1c2:	b10b      	cbz	r3, 800a1c8 <_free_r+0x50>
 800a1c4:	42a3      	cmp	r3, r4
 800a1c6:	d9fa      	bls.n	800a1be <_free_r+0x46>
 800a1c8:	6811      	ldr	r1, [r2, #0]
 800a1ca:	1855      	adds	r5, r2, r1
 800a1cc:	42a5      	cmp	r5, r4
 800a1ce:	d10b      	bne.n	800a1e8 <_free_r+0x70>
 800a1d0:	6824      	ldr	r4, [r4, #0]
 800a1d2:	4421      	add	r1, r4
 800a1d4:	1854      	adds	r4, r2, r1
 800a1d6:	42a3      	cmp	r3, r4
 800a1d8:	6011      	str	r1, [r2, #0]
 800a1da:	d1e0      	bne.n	800a19e <_free_r+0x26>
 800a1dc:	681c      	ldr	r4, [r3, #0]
 800a1de:	685b      	ldr	r3, [r3, #4]
 800a1e0:	6053      	str	r3, [r2, #4]
 800a1e2:	4421      	add	r1, r4
 800a1e4:	6011      	str	r1, [r2, #0]
 800a1e6:	e7da      	b.n	800a19e <_free_r+0x26>
 800a1e8:	d902      	bls.n	800a1f0 <_free_r+0x78>
 800a1ea:	230c      	movs	r3, #12
 800a1ec:	6003      	str	r3, [r0, #0]
 800a1ee:	e7d6      	b.n	800a19e <_free_r+0x26>
 800a1f0:	6825      	ldr	r5, [r4, #0]
 800a1f2:	1961      	adds	r1, r4, r5
 800a1f4:	428b      	cmp	r3, r1
 800a1f6:	bf04      	itt	eq
 800a1f8:	6819      	ldreq	r1, [r3, #0]
 800a1fa:	685b      	ldreq	r3, [r3, #4]
 800a1fc:	6063      	str	r3, [r4, #4]
 800a1fe:	bf04      	itt	eq
 800a200:	1949      	addeq	r1, r1, r5
 800a202:	6021      	streq	r1, [r4, #0]
 800a204:	6054      	str	r4, [r2, #4]
 800a206:	e7ca      	b.n	800a19e <_free_r+0x26>
 800a208:	b003      	add	sp, #12
 800a20a:	bd30      	pop	{r4, r5, pc}
 800a20c:	20005e9c 	.word	0x20005e9c

0800a210 <sbrk_aligned>:
 800a210:	b570      	push	{r4, r5, r6, lr}
 800a212:	4e0e      	ldr	r6, [pc, #56]	; (800a24c <sbrk_aligned+0x3c>)
 800a214:	460c      	mov	r4, r1
 800a216:	6831      	ldr	r1, [r6, #0]
 800a218:	4605      	mov	r5, r0
 800a21a:	b911      	cbnz	r1, 800a222 <sbrk_aligned+0x12>
 800a21c:	f000 fb7a 	bl	800a914 <_sbrk_r>
 800a220:	6030      	str	r0, [r6, #0]
 800a222:	4621      	mov	r1, r4
 800a224:	4628      	mov	r0, r5
 800a226:	f000 fb75 	bl	800a914 <_sbrk_r>
 800a22a:	1c43      	adds	r3, r0, #1
 800a22c:	d00a      	beq.n	800a244 <sbrk_aligned+0x34>
 800a22e:	1cc4      	adds	r4, r0, #3
 800a230:	f024 0403 	bic.w	r4, r4, #3
 800a234:	42a0      	cmp	r0, r4
 800a236:	d007      	beq.n	800a248 <sbrk_aligned+0x38>
 800a238:	1a21      	subs	r1, r4, r0
 800a23a:	4628      	mov	r0, r5
 800a23c:	f000 fb6a 	bl	800a914 <_sbrk_r>
 800a240:	3001      	adds	r0, #1
 800a242:	d101      	bne.n	800a248 <sbrk_aligned+0x38>
 800a244:	f04f 34ff 	mov.w	r4, #4294967295
 800a248:	4620      	mov	r0, r4
 800a24a:	bd70      	pop	{r4, r5, r6, pc}
 800a24c:	20005ea0 	.word	0x20005ea0

0800a250 <_malloc_r>:
 800a250:	e92d 41f0 	stmdb	sp!, {r4, r5, r6, r7, r8, lr}
 800a254:	1ccd      	adds	r5, r1, #3
 800a256:	f025 0503 	bic.w	r5, r5, #3
 800a25a:	3508      	adds	r5, #8
 800a25c:	2d0c      	cmp	r5, #12
 800a25e:	bf38      	it	cc
 800a260:	250c      	movcc	r5, #12
 800a262:	2d00      	cmp	r5, #0
 800a264:	4607      	mov	r7, r0
 800a266:	db01      	blt.n	800a26c <_malloc_r+0x1c>
 800a268:	42a9      	cmp	r1, r5
 800a26a:	d905      	bls.n	800a278 <_malloc_r+0x28>
 800a26c:	230c      	movs	r3, #12
 800a26e:	603b      	str	r3, [r7, #0]
 800a270:	2600      	movs	r6, #0
 800a272:	4630      	mov	r0, r6
 800a274:	e8bd 81f0 	ldmia.w	sp!, {r4, r5, r6, r7, r8, pc}
 800a278:	4e2e      	ldr	r6, [pc, #184]	; (800a334 <_malloc_r+0xe4>)
 800a27a:	f000 fdc3 	bl	800ae04 <__malloc_lock>
 800a27e:	6833      	ldr	r3, [r6, #0]
 800a280:	461c      	mov	r4, r3
 800a282:	bb34      	cbnz	r4, 800a2d2 <_malloc_r+0x82>
 800a284:	4629      	mov	r1, r5
 800a286:	4638      	mov	r0, r7
 800a288:	f7ff ffc2 	bl	800a210 <sbrk_aligned>
 800a28c:	1c43      	adds	r3, r0, #1
 800a28e:	4604      	mov	r4, r0
 800a290:	d14d      	bne.n	800a32e <_malloc_r+0xde>
 800a292:	6834      	ldr	r4, [r6, #0]
 800a294:	4626      	mov	r6, r4
 800a296:	2e00      	cmp	r6, #0
 800a298:	d140      	bne.n	800a31c <_malloc_r+0xcc>
 800a29a:	6823      	ldr	r3, [r4, #0]
 800a29c:	4631      	mov	r1, r6
 800a29e:	4638      	mov	r0, r7
 800a2a0:	eb04 0803 	add.w	r8, r4, r3
 800a2a4:	f000 fb36 	bl	800a914 <_sbrk_r>
 800a2a8:	4580      	cmp	r8, r0
 800a2aa:	d13a      	bne.n	800a322 <_malloc_r+0xd2>
 800a2ac:	6821      	ldr	r1, [r4, #0]
 800a2ae:	3503      	adds	r5, #3
 800a2b0:	1a6d      	subs	r5, r5, r1
 800a2b2:	f025 0503 	bic.w	r5, r5, #3
 800a2b6:	3508      	adds	r5, #8
 800a2b8:	2d0c      	cmp	r5, #12
 800a2ba:	bf38      	it	cc
 800a2bc:	250c      	movcc	r5, #12
 800a2be:	4629      	mov	r1, r5
 800a2c0:	4638      	mov	r0, r7
 800a2c2:	f7ff ffa5 	bl	800a210 <sbrk_aligned>
 800a2c6:	3001      	adds	r0, #1
 800a2c8:	d02b      	beq.n	800a322 <_malloc_r+0xd2>
 800a2ca:	6823      	ldr	r3, [r4, #0]
 800a2cc:	442b      	add	r3, r5
 800a2ce:	6023      	str	r3, [r4, #0]
 800a2d0:	e00e      	b.n	800a2f0 <_malloc_r+0xa0>
 800a2d2:	6822      	ldr	r2, [r4, #0]
 800a2d4:	1b52      	subs	r2, r2, r5
 800a2d6:	d41e      	bmi.n	800a316 <_malloc_r+0xc6>
 800a2d8:	2a0b      	cmp	r2, #11
 800a2da:	d916      	bls.n	800a30a <_malloc_r+0xba>
 800a2dc:	1961      	adds	r1, r4, r5
 800a2de:	42a3      	cmp	r3, r4
 800a2e0:	6025      	str	r5, [r4, #0]
 800a2e2:	bf18      	it	ne
 800a2e4:	6059      	strne	r1, [r3, #4]
 800a2e6:	6863      	ldr	r3, [r4, #4]
 800a2e8:	bf08      	it	eq
 800a2ea:	6031      	streq	r1, [r6, #0]
 800a2ec:	5162      	str	r2, [r4, r5]
 800a2ee:	604b      	str	r3, [r1, #4]
 800a2f0:	4638      	mov	r0, r7
 800a2f2:	f104 060b 	add.w	r6, r4, #11
 800a2f6:	f000 fd8b 	bl	800ae10 <__malloc_unlock>
 800a2fa:	f026 0607 	bic.w	r6, r6, #7
 800a2fe:	1d23      	adds	r3, r4, #4
 800a300:	1af2      	subs	r2, r6, r3
 800a302:	d0b6      	beq.n	800a272 <_malloc_r+0x22>
 800a304:	1b9b      	subs	r3, r3, r6
 800a306:	50a3      	str	r3, [r4, r2]
 800a308:	e7b3      	b.n	800a272 <_malloc_r+0x22>
 800a30a:	6862      	ldr	r2, [r4, #4]
 800a30c:	42a3      	cmp	r3, r4
 800a30e:	bf0c      	ite	eq
 800a310:	6032      	streq	r2, [r6, #0]
 800a312:	605a      	strne	r2, [r3, #4]
 800a314:	e7ec      	b.n	800a2f0 <_malloc_r+0xa0>
 800a316:	4623      	mov	r3, r4
 800a318:	6864      	ldr	r4, [r4, #4]
 800a31a:	e7b2      	b.n	800a282 <_malloc_r+0x32>
 800a31c:	4634      	mov	r4, r6
 800a31e:	6876      	ldr	r6, [r6, #4]
 800a320:	e7b9      	b.n	800a296 <_malloc_r+0x46>
 800a322:	230c      	movs	r3, #12
 800a324:	603b      	str	r3, [r7, #0]
 800a326:	4638      	mov	r0, r7
 800a328:	f000 fd72 	bl	800ae10 <__malloc_unlock>
 800a32c:	e7a1      	b.n	800a272 <_malloc_r+0x22>
 800a32e:	6025      	str	r5, [r4, #0]
 800a330:	e7de      	b.n	800a2f0 <_malloc_r+0xa0>
 800a332:	bf00      	nop
 800a334:	20005e9c 	.word	0x20005e9c

0800a338 <__sfputc_r>:
 800a338:	6893      	ldr	r3, [r2, #8]
 800a33a:	3b01      	subs	r3, #1
 800a33c:	2b00      	cmp	r3, #0
 800a33e:	b410      	push	{r4}
 800a340:	6093      	str	r3, [r2, #8]
 800a342:	da08      	bge.n	800a356 <__sfputc_r+0x1e>
 800a344:	6994      	ldr	r4, [r2, #24]
 800a346:	42a3      	cmp	r3, r4
 800a348:	db01      	blt.n	800a34e <__sfputc_r+0x16>
 800a34a:	290a      	cmp	r1, #10
 800a34c:	d103      	bne.n	800a356 <__sfputc_r+0x1e>
 800a34e:	f85d 4b04 	ldr.w	r4, [sp], #4
 800a352:	f000 bb33 	b.w	800a9bc <__swbuf_r>
 800a356:	6813      	ldr	r3, [r2, #0]
 800a358:	1c58      	adds	r0, r3, #1
 800a35a:	6010      	str	r0, [r2, #0]
 800a35c:	7019      	strb	r1, [r3, #0]
 800a35e:	4608      	mov	r0, r1
 800a360:	f85d 4b04 	ldr.w	r4, [sp], #4
 800a364:	4770      	bx	lr

0800a366 <__sfputs_r>:
 800a366:	b5f8      	push	{r3, r4, r5, r6, r7, lr}
 800a368:	4606      	mov	r6, r0
 800a36a:	460f      	mov	r7, r1
 800a36c:	4614      	mov	r4, r2
 800a36e:	18d5      	adds	r5, r2, r3
 800a370:	42ac      	cmp	r4, r5
 800a372:	d101      	bne.n	800a378 <__sfputs_r+0x12>
 800a374:	2000      	movs	r0, #0
 800a376:	e007      	b.n	800a388 <__sfputs_r+0x22>
 800a378:	f814 1b01 	ldrb.w	r1, [r4], #1
 800a37c:	463a      	mov	r2, r7
 800a37e:	4630      	mov	r0, r6
 800a380:	f7ff ffda 	bl	800a338 <__sfputc_r>
 800a384:	1c43      	adds	r3, r0, #1
 800a386:	d1f3      	bne.n	800a370 <__sfputs_r+0xa>
 800a388:	bdf8      	pop	{r3, r4, r5, r6, r7, pc}
	...

0800a38c <_vfiprintf_r>:
 800a38c:	e92d 4ff0 	stmdb	sp!, {r4, r5, r6, r7, r8, r9, sl, fp, lr}
 800a390:	460d      	mov	r5, r1
 800a392:	b09d      	sub	sp, #116	; 0x74
 800a394:	4614      	mov	r4, r2
 800a396:	4698      	mov	r8, r3
 800a398:	4606      	mov	r6, r0
 800a39a:	b118      	cbz	r0, 800a3a4 <_vfiprintf_r+0x18>
 800a39c:	6983      	ldr	r3, [r0, #24]
 800a39e:	b90b      	cbnz	r3, 800a3a4 <_vfiprintf_r+0x18>
 800a3a0:	f7ff fe30 	bl	800a004 <__sinit>
 800a3a4:	4b89      	ldr	r3, [pc, #548]	; (800a5cc <_vfiprintf_r+0x240>)
 800a3a6:	429d      	cmp	r5, r3
 800a3a8:	d11b      	bne.n	800a3e2 <_vfiprintf_r+0x56>
 800a3aa:	6875      	ldr	r5, [r6, #4]
 800a3ac:	6e6b      	ldr	r3, [r5, #100]	; 0x64
 800a3ae:	07d9      	lsls	r1, r3, #31
 800a3b0:	d405      	bmi.n	800a3be <_vfiprintf_r+0x32>
 800a3b2:	89ab      	ldrh	r3, [r5, #12]
 800a3b4:	059a      	lsls	r2, r3, #22
 800a3b6:	d402      	bmi.n	800a3be <_vfiprintf_r+0x32>
 800a3b8:	6da8      	ldr	r0, [r5, #88]	; 0x58
 800a3ba:	f7ff fed3 	bl	800a164 <__retarget_lock_acquire_recursive>
 800a3be:	89ab      	ldrh	r3, [r5, #12]
 800a3c0:	071b      	lsls	r3, r3, #28
 800a3c2:	d501      	bpl.n	800a3c8 <_vfiprintf_r+0x3c>
 800a3c4:	692b      	ldr	r3, [r5, #16]
 800a3c6:	b9eb      	cbnz	r3, 800a404 <_vfiprintf_r+0x78>
 800a3c8:	4629      	mov	r1, r5
 800a3ca:	4630      	mov	r0, r6
 800a3cc:	f000 fb5a 	bl	800aa84 <__swsetup_r>
 800a3d0:	b1c0      	cbz	r0, 800a404 <_vfiprintf_r+0x78>
 800a3d2:	6e6b      	ldr	r3, [r5, #100]	; 0x64
 800a3d4:	07dc      	lsls	r4, r3, #31
 800a3d6:	d50e      	bpl.n	800a3f6 <_vfiprintf_r+0x6a>
 800a3d8:	f04f 30ff 	mov.w	r0, #4294967295
 800a3dc:	b01d      	add	sp, #116	; 0x74
 800a3de:	e8bd 8ff0 	ldmia.w	sp!, {r4, r5, r6, r7, r8, r9, sl, fp, pc}
 800a3e2:	4b7b      	ldr	r3, [pc, #492]	; (800a5d0 <_vfiprintf_r+0x244>)
 800a3e4:	429d      	cmp	r5, r3
 800a3e6:	d101      	bne.n	800a3ec <_vfiprintf_r+0x60>
 800a3e8:	68b5      	ldr	r5, [r6, #8]
 800a3ea:	e7df      	b.n	800a3ac <_vfiprintf_r+0x20>
 800a3ec:	4b79      	ldr	r3, [pc, #484]	; (800a5d4 <_vfiprintf_r+0x248>)
 800a3ee:	429d      	cmp	r5, r3
 800a3f0:	bf08      	it	eq
 800a3f2:	68f5      	ldreq	r5, [r6, #12]
 800a3f4:	e7da      	b.n	800a3ac <_vfiprintf_r+0x20>
 800a3f6:	89ab      	ldrh	r3, [r5, #12]
 800a3f8:	0598      	lsls	r0, r3, #22
 800a3fa:	d4ed      	bmi.n	800a3d8 <_vfiprintf_r+0x4c>
 800a3fc:	6da8      	ldr	r0, [r5, #88]	; 0x58
 800a3fe:	f7ff feb2 	bl	800a166 <__retarget_lock_release_recursive>
 800a402:	e7e9      	b.n	800a3d8 <_vfiprintf_r+0x4c>
 800a404:	2300      	movs	r3, #0
 800a406:	9309      	str	r3, [sp, #36]	; 0x24
 800a408:	2320      	movs	r3, #32
 800a40a:	f88d 3029 	strb.w	r3, [sp, #41]	; 0x29
 800a40e:	f8cd 800c 	str.w	r8, [sp, #12]
 800a412:	2330      	movs	r3, #48	; 0x30
 800a414:	f8df 81c0 	ldr.w	r8, [pc, #448]	; 800a5d8 <_vfiprintf_r+0x24c>
 800a418:	f88d 302a 	strb.w	r3, [sp, #42]	; 0x2a
 800a41c:	f04f 0901 	mov.w	r9, #1
 800a420:	4623      	mov	r3, r4
 800a422:	469a      	mov	sl, r3
 800a424:	f813 2b01 	ldrb.w	r2, [r3], #1
 800a428:	b10a      	cbz	r2, 800a42e <_vfiprintf_r+0xa2>
 800a42a:	2a25      	cmp	r2, #37	; 0x25
 800a42c:	d1f9      	bne.n	800a422 <_vfiprintf_r+0x96>
 800a42e:	ebba 0b04 	subs.w	fp, sl, r4
 800a432:	d00b      	beq.n	800a44c <_vfiprintf_r+0xc0>
 800a434:	465b      	mov	r3, fp
 800a436:	4622      	mov	r2, r4
 800a438:	4629      	mov	r1, r5
 800a43a:	4630      	mov	r0, r6
 800a43c:	f7ff ff93 	bl	800a366 <__sfputs_r>
 800a440:	3001      	adds	r0, #1
 800a442:	f000 80aa 	beq.w	800a59a <_vfiprintf_r+0x20e>
 800a446:	9a09      	ldr	r2, [sp, #36]	; 0x24
 800a448:	445a      	add	r2, fp
 800a44a:	9209      	str	r2, [sp, #36]	; 0x24
 800a44c:	f89a 3000 	ldrb.w	r3, [sl]
 800a450:	2b00      	cmp	r3, #0
 800a452:	f000 80a2 	beq.w	800a59a <_vfiprintf_r+0x20e>
 800a456:	2300      	movs	r3, #0
 800a458:	f04f 32ff 	mov.w	r2, #4294967295
 800a45c:	e9cd 2305 	strd	r2, r3, [sp, #20]
 800a460:	f10a 0a01 	add.w	sl, sl, #1
 800a464:	9304      	str	r3, [sp, #16]
 800a466:	9307      	str	r3, [sp, #28]
 800a468:	f88d 3053 	strb.w	r3, [sp, #83]	; 0x53
 800a46c:	931a      	str	r3, [sp, #104]	; 0x68
 800a46e:	4654      	mov	r4, sl
 800a470:	2205      	movs	r2, #5
 800a472:	f814 1b01 	ldrb.w	r1, [r4], #1
 800a476:	4858      	ldr	r0, [pc, #352]	; (800a5d8 <_vfiprintf_r+0x24c>)
 800a478:	f7f5 fee2 	bl	8000240 <memchr>
 800a47c:	9a04      	ldr	r2, [sp, #16]
 800a47e:	b9d8      	cbnz	r0, 800a4b8 <_vfiprintf_r+0x12c>
 800a480:	06d1      	lsls	r1, r2, #27
 800a482:	bf44      	itt	mi
 800a484:	2320      	movmi	r3, #32
 800a486:	f88d 3053 	strbmi.w	r3, [sp, #83]	; 0x53
 800a48a:	0713      	lsls	r3, r2, #28
 800a48c:	bf44      	itt	mi
 800a48e:	232b      	movmi	r3, #43	; 0x2b
 800a490:	f88d 3053 	strbmi.w	r3, [sp, #83]	; 0x53
 800a494:	f89a 3000 	ldrb.w	r3, [sl]
 800a498:	2b2a      	cmp	r3, #42	; 0x2a
 800a49a:	d015      	beq.n	800a4c8 <_vfiprintf_r+0x13c>
 800a49c:	9a07      	ldr	r2, [sp, #28]
 800a49e:	4654      	mov	r4, sl
 800a4a0:	2000      	movs	r0, #0
 800a4a2:	f04f 0c0a 	mov.w	ip, #10
 800a4a6:	4621      	mov	r1, r4
 800a4a8:	f811 3b01 	ldrb.w	r3, [r1], #1
 800a4ac:	3b30      	subs	r3, #48	; 0x30
 800a4ae:	2b09      	cmp	r3, #9
 800a4b0:	d94e      	bls.n	800a550 <_vfiprintf_r+0x1c4>
 800a4b2:	b1b0      	cbz	r0, 800a4e2 <_vfiprintf_r+0x156>
 800a4b4:	9207      	str	r2, [sp, #28]
 800a4b6:	e014      	b.n	800a4e2 <_vfiprintf_r+0x156>
 800a4b8:	eba0 0308 	sub.w	r3, r0, r8
 800a4bc:	fa09 f303 	lsl.w	r3, r9, r3
 800a4c0:	4313      	orrs	r3, r2
 800a4c2:	9304      	str	r3, [sp, #16]
 800a4c4:	46a2      	mov	sl, r4
 800a4c6:	e7d2      	b.n	800a46e <_vfiprintf_r+0xe2>
 800a4c8:	9b03      	ldr	r3, [sp, #12]
 800a4ca:	1d19      	adds	r1, r3, #4
 800a4cc:	681b      	ldr	r3, [r3, #0]
 800a4ce:	9103      	str	r1, [sp, #12]
 800a4d0:	2b00      	cmp	r3, #0
 800a4d2:	bfbb      	ittet	lt
 800a4d4:	425b      	neglt	r3, r3
 800a4d6:	f042 0202 	orrlt.w	r2, r2, #2
 800a4da:	9307      	strge	r3, [sp, #28]
 800a4dc:	9307      	strlt	r3, [sp, #28]
 800a4de:	bfb8      	it	lt
 800a4e0:	9204      	strlt	r2, [sp, #16]
 800a4e2:	7823      	ldrb	r3, [r4, #0]
 800a4e4:	2b2e      	cmp	r3, #46	; 0x2e
 800a4e6:	d10c      	bne.n	800a502 <_vfiprintf_r+0x176>
 800a4e8:	7863      	ldrb	r3, [r4, #1]
 800a4ea:	2b2a      	cmp	r3, #42	; 0x2a
 800a4ec:	d135      	bne.n	800a55a <_vfiprintf_r+0x1ce>
 800a4ee:	9b03      	ldr	r3, [sp, #12]
 800a4f0:	1d1a      	adds	r2, r3, #4
 800a4f2:	681b      	ldr	r3, [r3, #0]
 800a4f4:	9203      	str	r2, [sp, #12]
 800a4f6:	2b00      	cmp	r3, #0
 800a4f8:	bfb8      	it	lt
 800a4fa:	f04f 33ff 	movlt.w	r3, #4294967295
 800a4fe:	3402      	adds	r4, #2
 800a500:	9305      	str	r3, [sp, #20]
 800a502:	f8df a0e4 	ldr.w	sl, [pc, #228]	; 800a5e8 <_vfiprintf_r+0x25c>
 800a506:	7821      	ldrb	r1, [r4, #0]
 800a508:	2203      	movs	r2, #3
 800a50a:	4650      	mov	r0, sl
 800a50c:	f7f5 fe98 	bl	8000240 <memchr>
 800a510:	b140      	cbz	r0, 800a524 <_vfiprintf_r+0x198>
 800a512:	2340      	movs	r3, #64	; 0x40
 800a514:	eba0 000a 	sub.w	r0, r0, sl
 800a518:	fa03 f000 	lsl.w	r0, r3, r0
 800a51c:	9b04      	ldr	r3, [sp, #16]
 800a51e:	4303      	orrs	r3, r0
 800a520:	3401      	adds	r4, #1
 800a522:	9304      	str	r3, [sp, #16]
 800a524:	f814 1b01 	ldrb.w	r1, [r4], #1
 800a528:	482c      	ldr	r0, [pc, #176]	; (800a5dc <_vfiprintf_r+0x250>)
 800a52a:	f88d 1028 	strb.w	r1, [sp, #40]	; 0x28
 800a52e:	2206      	movs	r2, #6
 800a530:	f7f5 fe86 	bl	8000240 <memchr>
 800a534:	2800      	cmp	r0, #0
 800a536:	d03f      	beq.n	800a5b8 <_vfiprintf_r+0x22c>
 800a538:	4b29      	ldr	r3, [pc, #164]	; (800a5e0 <_vfiprintf_r+0x254>)
 800a53a:	bb1b      	cbnz	r3, 800a584 <_vfiprintf_r+0x1f8>
 800a53c:	9b03      	ldr	r3, [sp, #12]
 800a53e:	3307      	adds	r3, #7
 800a540:	f023 0307 	bic.w	r3, r3, #7
 800a544:	3308      	adds	r3, #8
 800a546:	9303      	str	r3, [sp, #12]
 800a548:	9b09      	ldr	r3, [sp, #36]	; 0x24
 800a54a:	443b      	add	r3, r7
 800a54c:	9309      	str	r3, [sp, #36]	; 0x24
 800a54e:	e767      	b.n	800a420 <_vfiprintf_r+0x94>
 800a550:	fb0c 3202 	mla	r2, ip, r2, r3
 800a554:	460c      	mov	r4, r1
 800a556:	2001      	movs	r0, #1
 800a558:	e7a5      	b.n	800a4a6 <_vfiprintf_r+0x11a>
 800a55a:	2300      	movs	r3, #0
 800a55c:	3401      	adds	r4, #1
 800a55e:	9305      	str	r3, [sp, #20]
 800a560:	4619      	mov	r1, r3
 800a562:	f04f 0c0a 	mov.w	ip, #10
 800a566:	4620      	mov	r0, r4
 800a568:	f810 2b01 	ldrb.w	r2, [r0], #1
 800a56c:	3a30      	subs	r2, #48	; 0x30
 800a56e:	2a09      	cmp	r2, #9
 800a570:	d903      	bls.n	800a57a <_vfiprintf_r+0x1ee>
 800a572:	2b00      	cmp	r3, #0
 800a574:	d0c5      	beq.n	800a502 <_vfiprintf_r+0x176>
 800a576:	9105      	str	r1, [sp, #20]
 800a578:	e7c3      	b.n	800a502 <_vfiprintf_r+0x176>
 800a57a:	fb0c 2101 	mla	r1, ip, r1, r2
 800a57e:	4604      	mov	r4, r0
 800a580:	2301      	movs	r3, #1
 800a582:	e7f0      	b.n	800a566 <_vfiprintf_r+0x1da>
 800a584:	ab03      	add	r3, sp, #12
 800a586:	9300      	str	r3, [sp, #0]
 800a588:	462a      	mov	r2, r5
 800a58a:	4b16      	ldr	r3, [pc, #88]	; (800a5e4 <_vfiprintf_r+0x258>)
 800a58c:	a904      	add	r1, sp, #16
 800a58e:	4630      	mov	r0, r6
 800a590:	f3af 8000 	nop.w
 800a594:	4607      	mov	r7, r0
 800a596:	1c78      	adds	r0, r7, #1
 800a598:	d1d6      	bne.n	800a548 <_vfiprintf_r+0x1bc>
 800a59a:	6e6b      	ldr	r3, [r5, #100]	; 0x64
 800a59c:	07d9      	lsls	r1, r3, #31
 800a59e:	d405      	bmi.n	800a5ac <_vfiprintf_r+0x220>
 800a5a0:	89ab      	ldrh	r3, [r5, #12]
 800a5a2:	059a      	lsls	r2, r3, #22
 800a5a4:	d402      	bmi.n	800a5ac <_vfiprintf_r+0x220>
 800a5a6:	6da8      	ldr	r0, [r5, #88]	; 0x58
 800a5a8:	f7ff fddd 	bl	800a166 <__retarget_lock_release_recursive>
 800a5ac:	89ab      	ldrh	r3, [r5, #12]
 800a5ae:	065b      	lsls	r3, r3, #25
 800a5b0:	f53f af12 	bmi.w	800a3d8 <_vfiprintf_r+0x4c>
 800a5b4:	9809      	ldr	r0, [sp, #36]	; 0x24
 800a5b6:	e711      	b.n	800a3dc <_vfiprintf_r+0x50>
 800a5b8:	ab03      	add	r3, sp, #12
 800a5ba:	9300      	str	r3, [sp, #0]
 800a5bc:	462a      	mov	r2, r5
 800a5be:	4b09      	ldr	r3, [pc, #36]	; (800a5e4 <_vfiprintf_r+0x258>)
 800a5c0:	a904      	add	r1, sp, #16
 800a5c2:	4630      	mov	r0, r6
 800a5c4:	f000 f880 	bl	800a6c8 <_printf_i>
 800a5c8:	e7e4      	b.n	800a594 <_vfiprintf_r+0x208>
 800a5ca:	bf00      	nop
 800a5cc:	0800cf6c 	.word	0x0800cf6c
 800a5d0:	0800cf8c 	.word	0x0800cf8c
 800a5d4:	0800cf4c 	.word	0x0800cf4c
 800a5d8:	0800cfac 	.word	0x0800cfac
 800a5dc:	0800cfb6 	.word	0x0800cfb6
 800a5e0:	00000000 	.word	0x00000000
 800a5e4:	0800a367 	.word	0x0800a367
 800a5e8:	0800cfb2 	.word	0x0800cfb2

0800a5ec <_printf_common>:
 800a5ec:	e92d 47f0 	stmdb	sp!, {r4, r5, r6, r7, r8, r9, sl, lr}
 800a5f0:	4616      	mov	r6, r2
 800a5f2:	4699      	mov	r9, r3
 800a5f4:	688a      	ldr	r2, [r1, #8]
 800a5f6:	690b      	ldr	r3, [r1, #16]
 800a5f8:	f8dd 8020 	ldr.w	r8, [sp, #32]
 800a5fc:	4293      	cmp	r3, r2
 800a5fe:	bfb8      	it	lt
 800a600:	4613      	movlt	r3, r2
 800a602:	6033      	str	r3, [r6, #0]
 800a604:	f891 2043 	ldrb.w	r2, [r1, #67]	; 0x43
 800a608:	4607      	mov	r7, r0
 800a60a:	460c      	mov	r4, r1
 800a60c:	b10a      	cbz	r2, 800a612 <_printf_common+0x26>
 800a60e:	3301      	adds	r3, #1
 800a610:	6033      	str	r3, [r6, #0]
 800a612:	6823      	ldr	r3, [r4, #0]
 800a614:	0699      	lsls	r1, r3, #26
 800a616:	bf42      	ittt	mi
 800a618:	6833      	ldrmi	r3, [r6, #0]
 800a61a:	3302      	addmi	r3, #2
 800a61c:	6033      	strmi	r3, [r6, #0]
 800a61e:	6825      	ldr	r5, [r4, #0]
 800a620:	f015 0506 	ands.w	r5, r5, #6
 800a624:	d106      	bne.n	800a634 <_printf_common+0x48>
 800a626:	f104 0a19 	add.w	sl, r4, #25
 800a62a:	68e3      	ldr	r3, [r4, #12]
 800a62c:	6832      	ldr	r2, [r6, #0]
 800a62e:	1a9b      	subs	r3, r3, r2
 800a630:	42ab      	cmp	r3, r5
 800a632:	dc26      	bgt.n	800a682 <_printf_common+0x96>
 800a634:	f894 2043 	ldrb.w	r2, [r4, #67]	; 0x43
 800a638:	1e13      	subs	r3, r2, #0
 800a63a:	6822      	ldr	r2, [r4, #0]
 800a63c:	bf18      	it	ne
 800a63e:	2301      	movne	r3, #1
 800a640:	0692      	lsls	r2, r2, #26
 800a642:	d42b      	bmi.n	800a69c <_printf_common+0xb0>
 800a644:	f104 0243 	add.w	r2, r4, #67	; 0x43
 800a648:	4649      	mov	r1, r9
 800a64a:	4638      	mov	r0, r7
 800a64c:	47c0      	blx	r8
 800a64e:	3001      	adds	r0, #1
 800a650:	d01e      	beq.n	800a690 <_printf_common+0xa4>
 800a652:	6823      	ldr	r3, [r4, #0]
 800a654:	68e5      	ldr	r5, [r4, #12]
 800a656:	6832      	ldr	r2, [r6, #0]
 800a658:	f003 0306 	and.w	r3, r3, #6
 800a65c:	2b04      	cmp	r3, #4
 800a65e:	bf08      	it	eq
 800a660:	1aad      	subeq	r5, r5, r2
 800a662:	68a3      	ldr	r3, [r4, #8]
 800a664:	6922      	ldr	r2, [r4, #16]
 800a666:	bf0c      	ite	eq
 800a668:	ea25 75e5 	biceq.w	r5, r5, r5, asr #31
 800a66c:	2500      	movne	r5, #0
 800a66e:	4293      	cmp	r3, r2
 800a670:	bfc4      	itt	gt
 800a672:	1a9b      	subgt	r3, r3, r2
 800a674:	18ed      	addgt	r5, r5, r3
 800a676:	2600      	movs	r6, #0
 800a678:	341a      	adds	r4, #26
 800a67a:	42b5      	cmp	r5, r6
 800a67c:	d11a      	bne.n	800a6b4 <_printf_common+0xc8>
 800a67e:	2000      	movs	r0, #0
 800a680:	e008      	b.n	800a694 <_printf_common+0xa8>
 800a682:	2301      	movs	r3, #1
 800a684:	4652      	mov	r2, sl
 800a686:	4649      	mov	r1, r9
 800a688:	4638      	mov	r0, r7
 800a68a:	47c0      	blx	r8
 800a68c:	3001      	adds	r0, #1
 800a68e:	d103      	bne.n	800a698 <_printf_common+0xac>
 800a690:	f04f 30ff 	mov.w	r0, #4294967295
 800a694:	e8bd 87f0 	ldmia.w	sp!, {r4, r5, r6, r7, r8, r9, sl, pc}
 800a698:	3501      	adds	r5, #1
 800a69a:	e7c6      	b.n	800a62a <_printf_common+0x3e>
 800a69c:	18e1      	adds	r1, r4, r3
 800a69e:	1c5a      	adds	r2, r3, #1
 800a6a0:	2030      	movs	r0, #48	; 0x30
 800a6a2:	f881 0043 	strb.w	r0, [r1, #67]	; 0x43
 800a6a6:	4422      	add	r2, r4
 800a6a8:	f894 1045 	ldrb.w	r1, [r4, #69]	; 0x45
 800a6ac:	f882 1043 	strb.w	r1, [r2, #67]	; 0x43
 800a6b0:	3302      	adds	r3, #2
 800a6b2:	e7c7      	b.n	800a644 <_printf_common+0x58>
 800a6b4:	2301      	movs	r3, #1
 800a6b6:	4622      	mov	r2, r4
 800a6b8:	4649      	mov	r1, r9
 800a6ba:	4638      	mov	r0, r7
 800a6bc:	47c0      	blx	r8
 800a6be:	3001      	adds	r0, #1
 800a6c0:	d0e6      	beq.n	800a690 <_printf_common+0xa4>
 800a6c2:	3601      	adds	r6, #1
 800a6c4:	e7d9      	b.n	800a67a <_printf_common+0x8e>
	...

0800a6c8 <_printf_i>:
 800a6c8:	e92d 47ff 	stmdb	sp!, {r0, r1, r2, r3, r4, r5, r6, r7, r8, r9, sl, lr}
 800a6cc:	7e0f      	ldrb	r7, [r1, #24]
 800a6ce:	9d0c      	ldr	r5, [sp, #48]	; 0x30
 800a6d0:	2f78      	cmp	r7, #120	; 0x78
 800a6d2:	4691      	mov	r9, r2
 800a6d4:	4680      	mov	r8, r0
 800a6d6:	460c      	mov	r4, r1
 800a6d8:	469a      	mov	sl, r3
 800a6da:	f101 0243 	add.w	r2, r1, #67	; 0x43
 800a6de:	d807      	bhi.n	800a6f0 <_printf_i+0x28>
 800a6e0:	2f62      	cmp	r7, #98	; 0x62
 800a6e2:	d80a      	bhi.n	800a6fa <_printf_i+0x32>
 800a6e4:	2f00      	cmp	r7, #0
 800a6e6:	f000 80d8 	beq.w	800a89a <_printf_i+0x1d2>
 800a6ea:	2f58      	cmp	r7, #88	; 0x58
 800a6ec:	f000 80a3 	beq.w	800a836 <_printf_i+0x16e>
 800a6f0:	f104 0542 	add.w	r5, r4, #66	; 0x42
 800a6f4:	f884 7042 	strb.w	r7, [r4, #66]	; 0x42
 800a6f8:	e03a      	b.n	800a770 <_printf_i+0xa8>
 800a6fa:	f1a7 0363 	sub.w	r3, r7, #99	; 0x63
 800a6fe:	2b15      	cmp	r3, #21
 800a700:	d8f6      	bhi.n	800a6f0 <_printf_i+0x28>
 800a702:	a101      	add	r1, pc, #4	; (adr r1, 800a708 <_printf_i+0x40>)
 800a704:	f851 f023 	ldr.w	pc, [r1, r3, lsl #2]
 800a708:	0800a761 	.word	0x0800a761
 800a70c:	0800a775 	.word	0x0800a775
 800a710:	0800a6f1 	.word	0x0800a6f1
 800a714:	0800a6f1 	.word	0x0800a6f1
 800a718:	0800a6f1 	.word	0x0800a6f1
 800a71c:	0800a6f1 	.word	0x0800a6f1
 800a720:	0800a775 	.word	0x0800a775
 800a724:	0800a6f1 	.word	0x0800a6f1
 800a728:	0800a6f1 	.word	0x0800a6f1
 800a72c:	0800a6f1 	.word	0x0800a6f1
 800a730:	0800a6f1 	.word	0x0800a6f1
 800a734:	0800a881 	.word	0x0800a881
 800a738:	0800a7a5 	.word	0x0800a7a5
 800a73c:	0800a863 	.word	0x0800a863
 800a740:	0800a6f1 	.word	0x0800a6f1
 800a744:	0800a6f1 	.word	0x0800a6f1
 800a748:	0800a8a3 	.word	0x0800a8a3
 800a74c:	0800a6f1 	.word	0x0800a6f1
 800a750:	0800a7a5 	.word	0x0800a7a5
 800a754:	0800a6f1 	.word	0x0800a6f1
 800a758:	0800a6f1 	.word	0x0800a6f1
 800a75c:	0800a86b 	.word	0x0800a86b
 800a760:	682b      	ldr	r3, [r5, #0]
 800a762:	1d1a      	adds	r2, r3, #4
 800a764:	681b      	ldr	r3, [r3, #0]
 800a766:	602a      	str	r2, [r5, #0]
 800a768:	f104 0542 	add.w	r5, r4, #66	; 0x42
 800a76c:	f884 3042 	strb.w	r3, [r4, #66]	; 0x42
 800a770:	2301      	movs	r3, #1
 800a772:	e0a3      	b.n	800a8bc <_printf_i+0x1f4>
 800a774:	6820      	ldr	r0, [r4, #0]
 800a776:	6829      	ldr	r1, [r5, #0]
 800a778:	0606      	lsls	r6, r0, #24
 800a77a:	f101 0304 	add.w	r3, r1, #4
 800a77e:	d50a      	bpl.n	800a796 <_printf_i+0xce>
 800a780:	680e      	ldr	r6, [r1, #0]
 800a782:	602b      	str	r3, [r5, #0]
 800a784:	2e00      	cmp	r6, #0
 800a786:	da03      	bge.n	800a790 <_printf_i+0xc8>
 800a788:	232d      	movs	r3, #45	; 0x2d
 800a78a:	4276      	negs	r6, r6
 800a78c:	f884 3043 	strb.w	r3, [r4, #67]	; 0x43
 800a790:	485e      	ldr	r0, [pc, #376]	; (800a90c <_printf_i+0x244>)
 800a792:	230a      	movs	r3, #10
 800a794:	e019      	b.n	800a7ca <_printf_i+0x102>
 800a796:	680e      	ldr	r6, [r1, #0]
 800a798:	602b      	str	r3, [r5, #0]
 800a79a:	f010 0f40 	tst.w	r0, #64	; 0x40
 800a79e:	bf18      	it	ne
 800a7a0:	b236      	sxthne	r6, r6
 800a7a2:	e7ef      	b.n	800a784 <_printf_i+0xbc>
 800a7a4:	682b      	ldr	r3, [r5, #0]
 800a7a6:	6820      	ldr	r0, [r4, #0]
 800a7a8:	1d19      	adds	r1, r3, #4
 800a7aa:	6029      	str	r1, [r5, #0]
 800a7ac:	0601      	lsls	r1, r0, #24
 800a7ae:	d501      	bpl.n	800a7b4 <_printf_i+0xec>
 800a7b0:	681e      	ldr	r6, [r3, #0]
 800a7b2:	e002      	b.n	800a7ba <_printf_i+0xf2>
 800a7b4:	0646      	lsls	r6, r0, #25
 800a7b6:	d5fb      	bpl.n	800a7b0 <_printf_i+0xe8>
 800a7b8:	881e      	ldrh	r6, [r3, #0]
 800a7ba:	4854      	ldr	r0, [pc, #336]	; (800a90c <_printf_i+0x244>)
 800a7bc:	2f6f      	cmp	r7, #111	; 0x6f
 800a7be:	bf0c      	ite	eq
 800a7c0:	2308      	moveq	r3, #8
 800a7c2:	230a      	movne	r3, #10
 800a7c4:	2100      	movs	r1, #0
 800a7c6:	f884 1043 	strb.w	r1, [r4, #67]	; 0x43
 800a7ca:	6865      	ldr	r5, [r4, #4]
 800a7cc:	60a5      	str	r5, [r4, #8]
 800a7ce:	2d00      	cmp	r5, #0
 800a7d0:	bfa2      	ittt	ge
 800a7d2:	6821      	ldrge	r1, [r4, #0]
 800a7d4:	f021 0104 	bicge.w	r1, r1, #4
 800a7d8:	6021      	strge	r1, [r4, #0]
 800a7da:	b90e      	cbnz	r6, 800a7e0 <_printf_i+0x118>
 800a7dc:	2d00      	cmp	r5, #0
 800a7de:	d04d      	beq.n	800a87c <_printf_i+0x1b4>
 800a7e0:	4615      	mov	r5, r2
 800a7e2:	fbb6 f1f3 	udiv	r1, r6, r3
 800a7e6:	fb03 6711 	mls	r7, r3, r1, r6
 800a7ea:	5dc7      	ldrb	r7, [r0, r7]
 800a7ec:	f805 7d01 	strb.w	r7, [r5, #-1]!
 800a7f0:	4637      	mov	r7, r6
 800a7f2:	42bb      	cmp	r3, r7
 800a7f4:	460e      	mov	r6, r1
 800a7f6:	d9f4      	bls.n	800a7e2 <_printf_i+0x11a>
 800a7f8:	2b08      	cmp	r3, #8
 800a7fa:	d10b      	bne.n	800a814 <_printf_i+0x14c>
 800a7fc:	6823      	ldr	r3, [r4, #0]
 800a7fe:	07de      	lsls	r6, r3, #31
 800a800:	d508      	bpl.n	800a814 <_printf_i+0x14c>
 800a802:	6923      	ldr	r3, [r4, #16]
 800a804:	6861      	ldr	r1, [r4, #4]
 800a806:	4299      	cmp	r1, r3
 800a808:	bfde      	ittt	le
 800a80a:	2330      	movle	r3, #48	; 0x30
 800a80c:	f805 3c01 	strble.w	r3, [r5, #-1]
 800a810:	f105 35ff 	addle.w	r5, r5, #4294967295
 800a814:	1b52      	subs	r2, r2, r5
 800a816:	6122      	str	r2, [r4, #16]
 800a818:	f8cd a000 	str.w	sl, [sp]
 800a81c:	464b      	mov	r3, r9
 800a81e:	aa03      	add	r2, sp, #12
 800a820:	4621      	mov	r1, r4
 800a822:	4640      	mov	r0, r8
 800a824:	f7ff fee2 	bl	800a5ec <_printf_common>
 800a828:	3001      	adds	r0, #1
 800a82a:	d14c      	bne.n	800a8c6 <_printf_i+0x1fe>
 800a82c:	f04f 30ff 	mov.w	r0, #4294967295
 800a830:	b004      	add	sp, #16
 800a832:	e8bd 87f0 	ldmia.w	sp!, {r4, r5, r6, r7, r8, r9, sl, pc}
 800a836:	4835      	ldr	r0, [pc, #212]	; (800a90c <_printf_i+0x244>)
 800a838:	f881 7045 	strb.w	r7, [r1, #69]	; 0x45
 800a83c:	6829      	ldr	r1, [r5, #0]
 800a83e:	6823      	ldr	r3, [r4, #0]
 800a840:	f851 6b04 	ldr.w	r6, [r1], #4
 800a844:	6029      	str	r1, [r5, #0]
 800a846:	061d      	lsls	r5, r3, #24
 800a848:	d514      	bpl.n	800a874 <_printf_i+0x1ac>
 800a84a:	07df      	lsls	r7, r3, #31
 800a84c:	bf44      	itt	mi
 800a84e:	f043 0320 	orrmi.w	r3, r3, #32
 800a852:	6023      	strmi	r3, [r4, #0]
 800a854:	b91e      	cbnz	r6, 800a85e <_printf_i+0x196>
 800a856:	6823      	ldr	r3, [r4, #0]
 800a858:	f023 0320 	bic.w	r3, r3, #32
 800a85c:	6023      	str	r3, [r4, #0]
 800a85e:	2310      	movs	r3, #16
 800a860:	e7b0      	b.n	800a7c4 <_printf_i+0xfc>
 800a862:	6823      	ldr	r3, [r4, #0]
 800a864:	f043 0320 	orr.w	r3, r3, #32
 800a868:	6023      	str	r3, [r4, #0]
 800a86a:	2378      	movs	r3, #120	; 0x78
 800a86c:	4828      	ldr	r0, [pc, #160]	; (800a910 <_printf_i+0x248>)
 800a86e:	f884 3045 	strb.w	r3, [r4, #69]	; 0x45
 800a872:	e7e3      	b.n	800a83c <_printf_i+0x174>
 800a874:	0659      	lsls	r1, r3, #25
 800a876:	bf48      	it	mi
 800a878:	b2b6      	uxthmi	r6, r6
 800a87a:	e7e6      	b.n	800a84a <_printf_i+0x182>
 800a87c:	4615      	mov	r5, r2
 800a87e:	e7bb      	b.n	800a7f8 <_printf_i+0x130>
 800a880:	682b      	ldr	r3, [r5, #0]
 800a882:	6826      	ldr	r6, [r4, #0]
 800a884:	6961      	ldr	r1, [r4, #20]
 800a886:	1d18      	adds	r0, r3, #4
 800a888:	6028      	str	r0, [r5, #0]
 800a88a:	0635      	lsls	r5, r6, #24
 800a88c:	681b      	ldr	r3, [r3, #0]
 800a88e:	d501      	bpl.n	800a894 <_printf_i+0x1cc>
 800a890:	6019      	str	r1, [r3, #0]
 800a892:	e002      	b.n	800a89a <_printf_i+0x1d2>
 800a894:	0670      	lsls	r0, r6, #25
 800a896:	d5fb      	bpl.n	800a890 <_printf_i+0x1c8>
 800a898:	8019      	strh	r1, [r3, #0]
 800a89a:	2300      	movs	r3, #0
 800a89c:	6123      	str	r3, [r4, #16]
 800a89e:	4615      	mov	r5, r2
 800a8a0:	e7ba      	b.n	800a818 <_printf_i+0x150>
 800a8a2:	682b      	ldr	r3, [r5, #0]
 800a8a4:	1d1a      	adds	r2, r3, #4
 800a8a6:	602a      	str	r2, [r5, #0]
 800a8a8:	681d      	ldr	r5, [r3, #0]
 800a8aa:	6862      	ldr	r2, [r4, #4]
 800a8ac:	2100      	movs	r1, #0
 800a8ae:	4628      	mov	r0, r5
 800a8b0:	f7f5 fcc6 	bl	8000240 <memchr>
 800a8b4:	b108      	cbz	r0, 800a8ba <_printf_i+0x1f2>
 800a8b6:	1b40      	subs	r0, r0, r5
 800a8b8:	6060      	str	r0, [r4, #4]
 800a8ba:	6863      	ldr	r3, [r4, #4]
 800a8bc:	6123      	str	r3, [r4, #16]
 800a8be:	2300      	movs	r3, #0
 800a8c0:	f884 3043 	strb.w	r3, [r4, #67]	; 0x43
 800a8c4:	e7a8      	b.n	800a818 <_printf_i+0x150>
 800a8c6:	6923      	ldr	r3, [r4, #16]
 800a8c8:	462a      	mov	r2, r5
 800a8ca:	4649      	mov	r1, r9
 800a8cc:	4640      	mov	r0, r8
 800a8ce:	47d0      	blx	sl
 800a8d0:	3001      	adds	r0, #1
 800a8d2:	d0ab      	beq.n	800a82c <_printf_i+0x164>
 800a8d4:	6823      	ldr	r3, [r4, #0]
 800a8d6:	079b      	lsls	r3, r3, #30
 800a8d8:	d413      	bmi.n	800a902 <_printf_i+0x23a>
 800a8da:	68e0      	ldr	r0, [r4, #12]
 800a8dc:	9b03      	ldr	r3, [sp, #12]
 800a8de:	4298      	cmp	r0, r3
 800a8e0:	bfb8      	it	lt
 800a8e2:	4618      	movlt	r0, r3
 800a8e4:	e7a4      	b.n	800a830 <_printf_i+0x168>
 800a8e6:	2301      	movs	r3, #1
 800a8e8:	4632      	mov	r2, r6
 800a8ea:	4649      	mov	r1, r9
 800a8ec:	4640      	mov	r0, r8
 800a8ee:	47d0      	blx	sl
 800a8f0:	3001      	adds	r0, #1
 800a8f2:	d09b      	beq.n	800a82c <_printf_i+0x164>
 800a8f4:	3501      	adds	r5, #1
 800a8f6:	68e3      	ldr	r3, [r4, #12]
 800a8f8:	9903      	ldr	r1, [sp, #12]
 800a8fa:	1a5b      	subs	r3, r3, r1
 800a8fc:	42ab      	cmp	r3, r5
 800a8fe:	dcf2      	bgt.n	800a8e6 <_printf_i+0x21e>
 800a900:	e7eb      	b.n	800a8da <_printf_i+0x212>
 800a902:	2500      	movs	r5, #0
 800a904:	f104 0619 	add.w	r6, r4, #25
 800a908:	e7f5      	b.n	800a8f6 <_printf_i+0x22e>
 800a90a:	bf00      	nop
 800a90c:	0800cfbd 	.word	0x0800cfbd
 800a910:	0800cfce 	.word	0x0800cfce

0800a914 <_sbrk_r>:
 800a914:	b538      	push	{r3, r4, r5, lr}
 800a916:	4d06      	ldr	r5, [pc, #24]	; (800a930 <_sbrk_r+0x1c>)
 800a918:	2300      	movs	r3, #0
 800a91a:	4604      	mov	r4, r0
 800a91c:	4608      	mov	r0, r1
 800a91e:	602b      	str	r3, [r5, #0]
 800a920:	f7f6 f8b8 	bl	8000a94 <_sbrk>
 800a924:	1c43      	adds	r3, r0, #1
 800a926:	d102      	bne.n	800a92e <_sbrk_r+0x1a>
 800a928:	682b      	ldr	r3, [r5, #0]
 800a92a:	b103      	cbz	r3, 800a92e <_sbrk_r+0x1a>
 800a92c:	6023      	str	r3, [r4, #0]
 800a92e:	bd38      	pop	{r3, r4, r5, pc}
 800a930:	20005e94 	.word	0x20005e94

0800a934 <__sread>:
 800a934:	b510      	push	{r4, lr}
 800a936:	460c      	mov	r4, r1
 800a938:	f9b1 100e 	ldrsh.w	r1, [r1, #14]
 800a93c:	f000 fa6e 	bl	800ae1c <_read_r>
 800a940:	2800      	cmp	r0, #0
 800a942:	bfab      	itete	ge
 800a944:	6d63      	ldrge	r3, [r4, #84]	; 0x54
 800a946:	89a3      	ldrhlt	r3, [r4, #12]
 800a948:	181b      	addge	r3, r3, r0
 800a94a:	f423 5380 	biclt.w	r3, r3, #4096	; 0x1000
 800a94e:	bfac      	ite	ge
 800a950:	6563      	strge	r3, [r4, #84]	; 0x54
 800a952:	81a3      	strhlt	r3, [r4, #12]
 800a954:	bd10      	pop	{r4, pc}

0800a956 <__swrite>:
 800a956:	e92d 41f0 	stmdb	sp!, {r4, r5, r6, r7, r8, lr}
 800a95a:	461f      	mov	r7, r3
 800a95c:	898b      	ldrh	r3, [r1, #12]
 800a95e:	05db      	lsls	r3, r3, #23
 800a960:	4605      	mov	r5, r0
 800a962:	460c      	mov	r4, r1
 800a964:	4616      	mov	r6, r2
 800a966:	d505      	bpl.n	800a974 <__swrite+0x1e>
 800a968:	f9b1 100e 	ldrsh.w	r1, [r1, #14]
 800a96c:	2302      	movs	r3, #2
 800a96e:	2200      	movs	r2, #0
 800a970:	f000 f9d0 	bl	800ad14 <_lseek_r>
 800a974:	89a3      	ldrh	r3, [r4, #12]
 800a976:	f9b4 100e 	ldrsh.w	r1, [r4, #14]
 800a97a:	f423 5380 	bic.w	r3, r3, #4096	; 0x1000
 800a97e:	81a3      	strh	r3, [r4, #12]
 800a980:	4632      	mov	r2, r6
 800a982:	463b      	mov	r3, r7
 800a984:	4628      	mov	r0, r5
 800a986:	e8bd 41f0 	ldmia.w	sp!, {r4, r5, r6, r7, r8, lr}
 800a98a:	f000 b869 	b.w	800aa60 <_write_r>

0800a98e <__sseek>:
 800a98e:	b510      	push	{r4, lr}
 800a990:	460c      	mov	r4, r1
 800a992:	f9b1 100e 	ldrsh.w	r1, [r1, #14]
 800a996:	f000 f9bd 	bl	800ad14 <_lseek_r>
 800a99a:	1c43      	adds	r3, r0, #1
 800a99c:	89a3      	ldrh	r3, [r4, #12]
 800a99e:	bf15      	itete	ne
 800a9a0:	6560      	strne	r0, [r4, #84]	; 0x54
 800a9a2:	f423 5380 	biceq.w	r3, r3, #4096	; 0x1000
 800a9a6:	f443 5380 	orrne.w	r3, r3, #4096	; 0x1000
 800a9aa:	81a3      	strheq	r3, [r4, #12]
 800a9ac:	bf18      	it	ne
 800a9ae:	81a3      	strhne	r3, [r4, #12]
 800a9b0:	bd10      	pop	{r4, pc}

0800a9b2 <__sclose>:
 800a9b2:	f9b1 100e 	ldrsh.w	r1, [r1, #14]
 800a9b6:	f000 b8db 	b.w	800ab70 <_close_r>
	...

0800a9bc <__swbuf_r>:
 800a9bc:	b5f8      	push	{r3, r4, r5, r6, r7, lr}
 800a9be:	460e      	mov	r6, r1
 800a9c0:	4614      	mov	r4, r2
 800a9c2:	4605      	mov	r5, r0
 800a9c4:	b118      	cbz	r0, 800a9ce <__swbuf_r+0x12>
 800a9c6:	6983      	ldr	r3, [r0, #24]
 800a9c8:	b90b      	cbnz	r3, 800a9ce <__swbuf_r+0x12>
 800a9ca:	f7ff fb1b 	bl	800a004 <__sinit>
 800a9ce:	4b21      	ldr	r3, [pc, #132]	; (800aa54 <__swbuf_r+0x98>)
 800a9d0:	429c      	cmp	r4, r3
 800a9d2:	d12b      	bne.n	800aa2c <__swbuf_r+0x70>
 800a9d4:	686c      	ldr	r4, [r5, #4]
 800a9d6:	69a3      	ldr	r3, [r4, #24]
 800a9d8:	60a3      	str	r3, [r4, #8]
 800a9da:	89a3      	ldrh	r3, [r4, #12]
 800a9dc:	071a      	lsls	r2, r3, #28
 800a9de:	d52f      	bpl.n	800aa40 <__swbuf_r+0x84>
 800a9e0:	6923      	ldr	r3, [r4, #16]
 800a9e2:	b36b      	cbz	r3, 800aa40 <__swbuf_r+0x84>
 800a9e4:	6923      	ldr	r3, [r4, #16]
 800a9e6:	6820      	ldr	r0, [r4, #0]
 800a9e8:	1ac0      	subs	r0, r0, r3
 800a9ea:	6963      	ldr	r3, [r4, #20]
 800a9ec:	b2f6      	uxtb	r6, r6
 800a9ee:	4283      	cmp	r3, r0
 800a9f0:	4637      	mov	r7, r6
 800a9f2:	dc04      	bgt.n	800a9fe <__swbuf_r+0x42>
 800a9f4:	4621      	mov	r1, r4
 800a9f6:	4628      	mov	r0, r5
 800a9f8:	f000 f950 	bl	800ac9c <_fflush_r>
 800a9fc:	bb30      	cbnz	r0, 800aa4c <__swbuf_r+0x90>
 800a9fe:	68a3      	ldr	r3, [r4, #8]
 800aa00:	3b01      	subs	r3, #1
 800aa02:	60a3      	str	r3, [r4, #8]
 800aa04:	6823      	ldr	r3, [r4, #0]
 800aa06:	1c5a      	adds	r2, r3, #1
 800aa08:	6022      	str	r2, [r4, #0]
 800aa0a:	701e      	strb	r6, [r3, #0]
 800aa0c:	6963      	ldr	r3, [r4, #20]
 800aa0e:	3001      	adds	r0, #1
 800aa10:	4283      	cmp	r3, r0
 800aa12:	d004      	beq.n	800aa1e <__swbuf_r+0x62>
 800aa14:	89a3      	ldrh	r3, [r4, #12]
 800aa16:	07db      	lsls	r3, r3, #31
 800aa18:	d506      	bpl.n	800aa28 <__swbuf_r+0x6c>
 800aa1a:	2e0a      	cmp	r6, #10
 800aa1c:	d104      	bne.n	800aa28 <__swbuf_r+0x6c>
 800aa1e:	4621      	mov	r1, r4
 800aa20:	4628      	mov	r0, r5
 800aa22:	f000 f93b 	bl	800ac9c <_fflush_r>
 800aa26:	b988      	cbnz	r0, 800aa4c <__swbuf_r+0x90>
 800aa28:	4638      	mov	r0, r7
 800aa2a:	bdf8      	pop	{r3, r4, r5, r6, r7, pc}
 800aa2c:	4b0a      	ldr	r3, [pc, #40]	; (800aa58 <__swbuf_r+0x9c>)
 800aa2e:	429c      	cmp	r4, r3
 800aa30:	d101      	bne.n	800aa36 <__swbuf_r+0x7a>
 800aa32:	68ac      	ldr	r4, [r5, #8]
 800aa34:	e7cf      	b.n	800a9d6 <__swbuf_r+0x1a>
 800aa36:	4b09      	ldr	r3, [pc, #36]	; (800aa5c <__swbuf_r+0xa0>)
 800aa38:	429c      	cmp	r4, r3
 800aa3a:	bf08      	it	eq
 800aa3c:	68ec      	ldreq	r4, [r5, #12]
 800aa3e:	e7ca      	b.n	800a9d6 <__swbuf_r+0x1a>
 800aa40:	4621      	mov	r1, r4
 800aa42:	4628      	mov	r0, r5
 800aa44:	f000 f81e 	bl	800aa84 <__swsetup_r>
 800aa48:	2800      	cmp	r0, #0
 800aa4a:	d0cb      	beq.n	800a9e4 <__swbuf_r+0x28>
 800aa4c:	f04f 37ff 	mov.w	r7, #4294967295
 800aa50:	e7ea      	b.n	800aa28 <__swbuf_r+0x6c>
 800aa52:	bf00      	nop
 800aa54:	0800cf6c 	.word	0x0800cf6c
 800aa58:	0800cf8c 	.word	0x0800cf8c
 800aa5c:	0800cf4c 	.word	0x0800cf4c

0800aa60 <_write_r>:
 800aa60:	b538      	push	{r3, r4, r5, lr}
 800aa62:	4d07      	ldr	r5, [pc, #28]	; (800aa80 <_write_r+0x20>)
 800aa64:	4604      	mov	r4, r0
 800aa66:	4608      	mov	r0, r1
 800aa68:	4611      	mov	r1, r2
 800aa6a:	2200      	movs	r2, #0
 800aa6c:	602a      	str	r2, [r5, #0]
 800aa6e:	461a      	mov	r2, r3
 800aa70:	f7f5 fff6 	bl	8000a60 <_write>
 800aa74:	1c43      	adds	r3, r0, #1
 800aa76:	d102      	bne.n	800aa7e <_write_r+0x1e>
 800aa78:	682b      	ldr	r3, [r5, #0]
 800aa7a:	b103      	cbz	r3, 800aa7e <_write_r+0x1e>
 800aa7c:	6023      	str	r3, [r4, #0]
 800aa7e:	bd38      	pop	{r3, r4, r5, pc}
 800aa80:	20005e94 	.word	0x20005e94

0800aa84 <__swsetup_r>:
 800aa84:	4b32      	ldr	r3, [pc, #200]	; (800ab50 <__swsetup_r+0xcc>)
 800aa86:	b570      	push	{r4, r5, r6, lr}
 800aa88:	681d      	ldr	r5, [r3, #0]
 800aa8a:	4606      	mov	r6, r0
 800aa8c:	460c      	mov	r4, r1
 800aa8e:	b125      	cbz	r5, 800aa9a <__swsetup_r+0x16>
 800aa90:	69ab      	ldr	r3, [r5, #24]
 800aa92:	b913      	cbnz	r3, 800aa9a <__swsetup_r+0x16>
 800aa94:	4628      	mov	r0, r5
 800aa96:	f7ff fab5 	bl	800a004 <__sinit>
 800aa9a:	4b2e      	ldr	r3, [pc, #184]	; (800ab54 <__swsetup_r+0xd0>)
 800aa9c:	429c      	cmp	r4, r3
 800aa9e:	d10f      	bne.n	800aac0 <__swsetup_r+0x3c>
 800aaa0:	686c      	ldr	r4, [r5, #4]
 800aaa2:	89a3      	ldrh	r3, [r4, #12]
 800aaa4:	f9b4 200c 	ldrsh.w	r2, [r4, #12]
 800aaa8:	0719      	lsls	r1, r3, #28
 800aaaa:	d42c      	bmi.n	800ab06 <__swsetup_r+0x82>
 800aaac:	06dd      	lsls	r5, r3, #27
 800aaae:	d411      	bmi.n	800aad4 <__swsetup_r+0x50>
 800aab0:	2309      	movs	r3, #9
 800aab2:	6033      	str	r3, [r6, #0]
 800aab4:	f042 0340 	orr.w	r3, r2, #64	; 0x40
 800aab8:	81a3      	strh	r3, [r4, #12]
 800aaba:	f04f 30ff 	mov.w	r0, #4294967295
 800aabe:	e03e      	b.n	800ab3e <__swsetup_r+0xba>
 800aac0:	4b25      	ldr	r3, [pc, #148]	; (800ab58 <__swsetup_r+0xd4>)
 800aac2:	429c      	cmp	r4, r3
 800aac4:	d101      	bne.n	800aaca <__swsetup_r+0x46>
 800aac6:	68ac      	ldr	r4, [r5, #8]
 800aac8:	e7eb      	b.n	800aaa2 <__swsetup_r+0x1e>
 800aaca:	4b24      	ldr	r3, [pc, #144]	; (800ab5c <__swsetup_r+0xd8>)
 800aacc:	429c      	cmp	r4, r3
 800aace:	bf08      	it	eq
 800aad0:	68ec      	ldreq	r4, [r5, #12]
 800aad2:	e7e6      	b.n	800aaa2 <__swsetup_r+0x1e>
 800aad4:	0758      	lsls	r0, r3, #29
 800aad6:	d512      	bpl.n	800aafe <__swsetup_r+0x7a>
 800aad8:	6b61      	ldr	r1, [r4, #52]	; 0x34
 800aada:	b141      	cbz	r1, 800aaee <__swsetup_r+0x6a>
 800aadc:	f104 0344 	add.w	r3, r4, #68	; 0x44
 800aae0:	4299      	cmp	r1, r3
 800aae2:	d002      	beq.n	800aaea <__swsetup_r+0x66>
 800aae4:	4630      	mov	r0, r6
 800aae6:	f7ff fb47 	bl	800a178 <_free_r>
 800aaea:	2300      	movs	r3, #0
 800aaec:	6363      	str	r3, [r4, #52]	; 0x34
 800aaee:	89a3      	ldrh	r3, [r4, #12]
 800aaf0:	f023 0324 	bic.w	r3, r3, #36	; 0x24
 800aaf4:	81a3      	strh	r3, [r4, #12]
 800aaf6:	2300      	movs	r3, #0
 800aaf8:	6063      	str	r3, [r4, #4]
 800aafa:	6923      	ldr	r3, [r4, #16]
 800aafc:	6023      	str	r3, [r4, #0]
 800aafe:	89a3      	ldrh	r3, [r4, #12]
 800ab00:	f043 0308 	orr.w	r3, r3, #8
 800ab04:	81a3      	strh	r3, [r4, #12]
 800ab06:	6923      	ldr	r3, [r4, #16]
 800ab08:	b94b      	cbnz	r3, 800ab1e <__swsetup_r+0x9a>
 800ab0a:	89a3      	ldrh	r3, [r4, #12]
 800ab0c:	f403 7320 	and.w	r3, r3, #640	; 0x280
 800ab10:	f5b3 7f00 	cmp.w	r3, #512	; 0x200
 800ab14:	d003      	beq.n	800ab1e <__swsetup_r+0x9a>
 800ab16:	4621      	mov	r1, r4
 800ab18:	4630      	mov	r0, r6
 800ab1a:	f000 f933 	bl	800ad84 <__smakebuf_r>
 800ab1e:	89a0      	ldrh	r0, [r4, #12]
 800ab20:	f9b4 200c 	ldrsh.w	r2, [r4, #12]
 800ab24:	f010 0301 	ands.w	r3, r0, #1
 800ab28:	d00a      	beq.n	800ab40 <__swsetup_r+0xbc>
 800ab2a:	2300      	movs	r3, #0
 800ab2c:	60a3      	str	r3, [r4, #8]
 800ab2e:	6963      	ldr	r3, [r4, #20]
 800ab30:	425b      	negs	r3, r3
 800ab32:	61a3      	str	r3, [r4, #24]
 800ab34:	6923      	ldr	r3, [r4, #16]
 800ab36:	b943      	cbnz	r3, 800ab4a <__swsetup_r+0xc6>
 800ab38:	f010 0080 	ands.w	r0, r0, #128	; 0x80
 800ab3c:	d1ba      	bne.n	800aab4 <__swsetup_r+0x30>
 800ab3e:	bd70      	pop	{r4, r5, r6, pc}
 800ab40:	0781      	lsls	r1, r0, #30
 800ab42:	bf58      	it	pl
 800ab44:	6963      	ldrpl	r3, [r4, #20]
 800ab46:	60a3      	str	r3, [r4, #8]
 800ab48:	e7f4      	b.n	800ab34 <__swsetup_r+0xb0>
 800ab4a:	2000      	movs	r0, #0
 800ab4c:	e7f7      	b.n	800ab3e <__swsetup_r+0xba>
 800ab4e:	bf00      	nop
 800ab50:	20000014 	.word	0x20000014
 800ab54:	0800cf6c 	.word	0x0800cf6c
 800ab58:	0800cf8c 	.word	0x0800cf8c
 800ab5c:	0800cf4c 	.word	0x0800cf4c

0800ab60 <abort>:
 800ab60:	b508      	push	{r3, lr}
 800ab62:	2006      	movs	r0, #6
 800ab64:	f000 f994 	bl	800ae90 <raise>
 800ab68:	2001      	movs	r0, #1
 800ab6a:	f7f5 ff65 	bl	8000a38 <_exit>
	...

0800ab70 <_close_r>:
 800ab70:	b538      	push	{r3, r4, r5, lr}
 800ab72:	4d06      	ldr	r5, [pc, #24]	; (800ab8c <_close_r+0x1c>)
 800ab74:	2300      	movs	r3, #0
 800ab76:	4604      	mov	r4, r0
 800ab78:	4608      	mov	r0, r1
 800ab7a:	602b      	str	r3, [r5, #0]
 800ab7c:	f7f5 ff7e 	bl	8000a7c <_close>
 800ab80:	1c43      	adds	r3, r0, #1
 800ab82:	d102      	bne.n	800ab8a <_close_r+0x1a>
 800ab84:	682b      	ldr	r3, [r5, #0]
 800ab86:	b103      	cbz	r3, 800ab8a <_close_r+0x1a>
 800ab88:	6023      	str	r3, [r4, #0]
 800ab8a:	bd38      	pop	{r3, r4, r5, pc}
 800ab8c:	20005e94 	.word	0x20005e94

0800ab90 <__sflush_r>:
 800ab90:	898a      	ldrh	r2, [r1, #12]
 800ab92:	e92d 41f0 	stmdb	sp!, {r4, r5, r6, r7, r8, lr}
 800ab96:	4605      	mov	r5, r0
 800ab98:	0710      	lsls	r0, r2, #28
 800ab9a:	460c      	mov	r4, r1
 800ab9c:	d458      	bmi.n	800ac50 <__sflush_r+0xc0>
 800ab9e:	684b      	ldr	r3, [r1, #4]
 800aba0:	2b00      	cmp	r3, #0
 800aba2:	dc05      	bgt.n	800abb0 <__sflush_r+0x20>
 800aba4:	6c0b      	ldr	r3, [r1, #64]	; 0x40
 800aba6:	2b00      	cmp	r3, #0
 800aba8:	dc02      	bgt.n	800abb0 <__sflush_r+0x20>
 800abaa:	2000      	movs	r0, #0
 800abac:	e8bd 81f0 	ldmia.w	sp!, {r4, r5, r6, r7, r8, pc}
 800abb0:	6ae6      	ldr	r6, [r4, #44]	; 0x2c
 800abb2:	2e00      	cmp	r6, #0
 800abb4:	d0f9      	beq.n	800abaa <__sflush_r+0x1a>
 800abb6:	2300      	movs	r3, #0
 800abb8:	f412 5280 	ands.w	r2, r2, #4096	; 0x1000
 800abbc:	682f      	ldr	r7, [r5, #0]
 800abbe:	602b      	str	r3, [r5, #0]
 800abc0:	d032      	beq.n	800ac28 <__sflush_r+0x98>
 800abc2:	6d60      	ldr	r0, [r4, #84]	; 0x54
 800abc4:	89a3      	ldrh	r3, [r4, #12]
 800abc6:	075a      	lsls	r2, r3, #29
 800abc8:	d505      	bpl.n	800abd6 <__sflush_r+0x46>
 800abca:	6863      	ldr	r3, [r4, #4]
 800abcc:	1ac0      	subs	r0, r0, r3
 800abce:	6b63      	ldr	r3, [r4, #52]	; 0x34
 800abd0:	b10b      	cbz	r3, 800abd6 <__sflush_r+0x46>
 800abd2:	6c23      	ldr	r3, [r4, #64]	; 0x40
 800abd4:	1ac0      	subs	r0, r0, r3
 800abd6:	2300      	movs	r3, #0
 800abd8:	4602      	mov	r2, r0
 800abda:	6ae6      	ldr	r6, [r4, #44]	; 0x2c
 800abdc:	6a21      	ldr	r1, [r4, #32]
 800abde:	4628      	mov	r0, r5
 800abe0:	47b0      	blx	r6
 800abe2:	1c43      	adds	r3, r0, #1
 800abe4:	89a3      	ldrh	r3, [r4, #12]
 800abe6:	d106      	bne.n	800abf6 <__sflush_r+0x66>
 800abe8:	6829      	ldr	r1, [r5, #0]
 800abea:	291d      	cmp	r1, #29
 800abec:	d82c      	bhi.n	800ac48 <__sflush_r+0xb8>
 800abee:	4a2a      	ldr	r2, [pc, #168]	; (800ac98 <__sflush_r+0x108>)
 800abf0:	40ca      	lsrs	r2, r1
 800abf2:	07d6      	lsls	r6, r2, #31
 800abf4:	d528      	bpl.n	800ac48 <__sflush_r+0xb8>
 800abf6:	2200      	movs	r2, #0
 800abf8:	6062      	str	r2, [r4, #4]
 800abfa:	04d9      	lsls	r1, r3, #19
 800abfc:	6922      	ldr	r2, [r4, #16]
 800abfe:	6022      	str	r2, [r4, #0]
 800ac00:	d504      	bpl.n	800ac0c <__sflush_r+0x7c>
 800ac02:	1c42      	adds	r2, r0, #1
 800ac04:	d101      	bne.n	800ac0a <__sflush_r+0x7a>
 800ac06:	682b      	ldr	r3, [r5, #0]
 800ac08:	b903      	cbnz	r3, 800ac0c <__sflush_r+0x7c>
 800ac0a:	6560      	str	r0, [r4, #84]	; 0x54
 800ac0c:	6b61      	ldr	r1, [r4, #52]	; 0x34
 800ac0e:	602f      	str	r7, [r5, #0]
 800ac10:	2900      	cmp	r1, #0
 800ac12:	d0ca      	beq.n	800abaa <__sflush_r+0x1a>
 800ac14:	f104 0344 	add.w	r3, r4, #68	; 0x44
 800ac18:	4299      	cmp	r1, r3
 800ac1a:	d002      	beq.n	800ac22 <__sflush_r+0x92>
 800ac1c:	4628      	mov	r0, r5
 800ac1e:	f7ff faab 	bl	800a178 <_free_r>
 800ac22:	2000      	movs	r0, #0
 800ac24:	6360      	str	r0, [r4, #52]	; 0x34
 800ac26:	e7c1      	b.n	800abac <__sflush_r+0x1c>
 800ac28:	6a21      	ldr	r1, [r4, #32]
 800ac2a:	2301      	movs	r3, #1
 800ac2c:	4628      	mov	r0, r5
 800ac2e:	47b0      	blx	r6
 800ac30:	1c41      	adds	r1, r0, #1
 800ac32:	d1c7      	bne.n	800abc4 <__sflush_r+0x34>
 800ac34:	682b      	ldr	r3, [r5, #0]
 800ac36:	2b00      	cmp	r3, #0
 800ac38:	d0c4      	beq.n	800abc4 <__sflush_r+0x34>
 800ac3a:	2b1d      	cmp	r3, #29
 800ac3c:	d001      	beq.n	800ac42 <__sflush_r+0xb2>
 800ac3e:	2b16      	cmp	r3, #22
 800ac40:	d101      	bne.n	800ac46 <__sflush_r+0xb6>
 800ac42:	602f      	str	r7, [r5, #0]
 800ac44:	e7b1      	b.n	800abaa <__sflush_r+0x1a>
 800ac46:	89a3      	ldrh	r3, [r4, #12]
 800ac48:	f043 0340 	orr.w	r3, r3, #64	; 0x40
 800ac4c:	81a3      	strh	r3, [r4, #12]
 800ac4e:	e7ad      	b.n	800abac <__sflush_r+0x1c>
 800ac50:	690f      	ldr	r7, [r1, #16]
 800ac52:	2f00      	cmp	r7, #0
 800ac54:	d0a9      	beq.n	800abaa <__sflush_r+0x1a>
 800ac56:	0793      	lsls	r3, r2, #30
 800ac58:	680e      	ldr	r6, [r1, #0]
 800ac5a:	bf08      	it	eq
 800ac5c:	694b      	ldreq	r3, [r1, #20]
 800ac5e:	600f      	str	r7, [r1, #0]
 800ac60:	bf18      	it	ne
 800ac62:	2300      	movne	r3, #0
 800ac64:	eba6 0807 	sub.w	r8, r6, r7
 800ac68:	608b      	str	r3, [r1, #8]
 800ac6a:	f1b8 0f00 	cmp.w	r8, #0
 800ac6e:	dd9c      	ble.n	800abaa <__sflush_r+0x1a>
 800ac70:	6a21      	ldr	r1, [r4, #32]
 800ac72:	6aa6      	ldr	r6, [r4, #40]	; 0x28
 800ac74:	4643      	mov	r3, r8
 800ac76:	463a      	mov	r2, r7
 800ac78:	4628      	mov	r0, r5
 800ac7a:	47b0      	blx	r6
 800ac7c:	2800      	cmp	r0, #0
 800ac7e:	dc06      	bgt.n	800ac8e <__sflush_r+0xfe>
 800ac80:	89a3      	ldrh	r3, [r4, #12]
 800ac82:	f043 0340 	orr.w	r3, r3, #64	; 0x40
 800ac86:	81a3      	strh	r3, [r4, #12]
 800ac88:	f04f 30ff 	mov.w	r0, #4294967295
 800ac8c:	e78e      	b.n	800abac <__sflush_r+0x1c>
 800ac8e:	4407      	add	r7, r0
 800ac90:	eba8 0800 	sub.w	r8, r8, r0
 800ac94:	e7e9      	b.n	800ac6a <__sflush_r+0xda>
 800ac96:	bf00      	nop
 800ac98:	20400001 	.word	0x20400001

0800ac9c <_fflush_r>:
 800ac9c:	b538      	push	{r3, r4, r5, lr}
 800ac9e:	690b      	ldr	r3, [r1, #16]
 800aca0:	4605      	mov	r5, r0
 800aca2:	460c      	mov	r4, r1
 800aca4:	b913      	cbnz	r3, 800acac <_fflush_r+0x10>
 800aca6:	2500      	movs	r5, #0
 800aca8:	4628      	mov	r0, r5
 800acaa:	bd38      	pop	{r3, r4, r5, pc}
 800acac:	b118      	cbz	r0, 800acb6 <_fflush_r+0x1a>
 800acae:	6983      	ldr	r3, [r0, #24]
 800acb0:	b90b      	cbnz	r3, 800acb6 <_fflush_r+0x1a>
 800acb2:	f7ff f9a7 	bl	800a004 <__sinit>
 800acb6:	4b14      	ldr	r3, [pc, #80]	; (800ad08 <_fflush_r+0x6c>)
 800acb8:	429c      	cmp	r4, r3
 800acba:	d11b      	bne.n	800acf4 <_fflush_r+0x58>
 800acbc:	686c      	ldr	r4, [r5, #4]
 800acbe:	f9b4 300c 	ldrsh.w	r3, [r4, #12]
 800acc2:	2b00      	cmp	r3, #0
 800acc4:	d0ef      	beq.n	800aca6 <_fflush_r+0xa>
 800acc6:	6e62      	ldr	r2, [r4, #100]	; 0x64
 800acc8:	07d0      	lsls	r0, r2, #31
 800acca:	d404      	bmi.n	800acd6 <_fflush_r+0x3a>
 800accc:	0599      	lsls	r1, r3, #22
 800acce:	d402      	bmi.n	800acd6 <_fflush_r+0x3a>
 800acd0:	6da0      	ldr	r0, [r4, #88]	; 0x58
 800acd2:	f7ff fa47 	bl	800a164 <__retarget_lock_acquire_recursive>
 800acd6:	4628      	mov	r0, r5
 800acd8:	4621      	mov	r1, r4
 800acda:	f7ff ff59 	bl	800ab90 <__sflush_r>
 800acde:	6e63      	ldr	r3, [r4, #100]	; 0x64
 800ace0:	07da      	lsls	r2, r3, #31
 800ace2:	4605      	mov	r5, r0
 800ace4:	d4e0      	bmi.n	800aca8 <_fflush_r+0xc>
 800ace6:	89a3      	ldrh	r3, [r4, #12]
 800ace8:	059b      	lsls	r3, r3, #22
 800acea:	d4dd      	bmi.n	800aca8 <_fflush_r+0xc>
 800acec:	6da0      	ldr	r0, [r4, #88]	; 0x58
 800acee:	f7ff fa3a 	bl	800a166 <__retarget_lock_release_recursive>
 800acf2:	e7d9      	b.n	800aca8 <_fflush_r+0xc>
 800acf4:	4b05      	ldr	r3, [pc, #20]	; (800ad0c <_fflush_r+0x70>)
 800acf6:	429c      	cmp	r4, r3
 800acf8:	d101      	bne.n	800acfe <_fflush_r+0x62>
 800acfa:	68ac      	ldr	r4, [r5, #8]
 800acfc:	e7df      	b.n	800acbe <_fflush_r+0x22>
 800acfe:	4b04      	ldr	r3, [pc, #16]	; (800ad10 <_fflush_r+0x74>)
 800ad00:	429c      	cmp	r4, r3
 800ad02:	bf08      	it	eq
 800ad04:	68ec      	ldreq	r4, [r5, #12]
 800ad06:	e7da      	b.n	800acbe <_fflush_r+0x22>
 800ad08:	0800cf6c 	.word	0x0800cf6c
 800ad0c:	0800cf8c 	.word	0x0800cf8c
 800ad10:	0800cf4c 	.word	0x0800cf4c

0800ad14 <_lseek_r>:
 800ad14:	b538      	push	{r3, r4, r5, lr}
 800ad16:	4d07      	ldr	r5, [pc, #28]	; (800ad34 <_lseek_r+0x20>)
 800ad18:	4604      	mov	r4, r0
 800ad1a:	4608      	mov	r0, r1
 800ad1c:	4611      	mov	r1, r2
 800ad1e:	2200      	movs	r2, #0
 800ad20:	602a      	str	r2, [r5, #0]
 800ad22:	461a      	mov	r2, r3
 800ad24:	f7f5 feb4 	bl	8000a90 <_lseek>
 800ad28:	1c43      	adds	r3, r0, #1
 800ad2a:	d102      	bne.n	800ad32 <_lseek_r+0x1e>
 800ad2c:	682b      	ldr	r3, [r5, #0]
 800ad2e:	b103      	cbz	r3, 800ad32 <_lseek_r+0x1e>
 800ad30:	6023      	str	r3, [r4, #0]
 800ad32:	bd38      	pop	{r3, r4, r5, pc}
 800ad34:	20005e94 	.word	0x20005e94

0800ad38 <__swhatbuf_r>:
 800ad38:	b570      	push	{r4, r5, r6, lr}
 800ad3a:	460e      	mov	r6, r1
 800ad3c:	f9b1 100e 	ldrsh.w	r1, [r1, #14]
 800ad40:	2900      	cmp	r1, #0
 800ad42:	b096      	sub	sp, #88	; 0x58
 800ad44:	4614      	mov	r4, r2
 800ad46:	461d      	mov	r5, r3
 800ad48:	da08      	bge.n	800ad5c <__swhatbuf_r+0x24>
 800ad4a:	f9b6 300c 	ldrsh.w	r3, [r6, #12]
 800ad4e:	2200      	movs	r2, #0
 800ad50:	602a      	str	r2, [r5, #0]
 800ad52:	061a      	lsls	r2, r3, #24
 800ad54:	d410      	bmi.n	800ad78 <__swhatbuf_r+0x40>
 800ad56:	f44f 6380 	mov.w	r3, #1024	; 0x400
 800ad5a:	e00e      	b.n	800ad7a <__swhatbuf_r+0x42>
 800ad5c:	466a      	mov	r2, sp
 800ad5e:	f000 f8b3 	bl	800aec8 <_fstat_r>
 800ad62:	2800      	cmp	r0, #0
 800ad64:	dbf1      	blt.n	800ad4a <__swhatbuf_r+0x12>
 800ad66:	9a01      	ldr	r2, [sp, #4]
 800ad68:	f402 4270 	and.w	r2, r2, #61440	; 0xf000
 800ad6c:	f5a2 5300 	sub.w	r3, r2, #8192	; 0x2000
 800ad70:	425a      	negs	r2, r3
 800ad72:	415a      	adcs	r2, r3
 800ad74:	602a      	str	r2, [r5, #0]
 800ad76:	e7ee      	b.n	800ad56 <__swhatbuf_r+0x1e>
 800ad78:	2340      	movs	r3, #64	; 0x40
 800ad7a:	2000      	movs	r0, #0
 800ad7c:	6023      	str	r3, [r4, #0]
 800ad7e:	b016      	add	sp, #88	; 0x58
 800ad80:	bd70      	pop	{r4, r5, r6, pc}
	...

0800ad84 <__smakebuf_r>:
 800ad84:	898b      	ldrh	r3, [r1, #12]
 800ad86:	b573      	push	{r0, r1, r4, r5, r6, lr}
 800ad88:	079d      	lsls	r5, r3, #30
 800ad8a:	4606      	mov	r6, r0
 800ad8c:	460c      	mov	r4, r1
 800ad8e:	d507      	bpl.n	800ada0 <__smakebuf_r+0x1c>
 800ad90:	f104 0347 	add.w	r3, r4, #71	; 0x47
 800ad94:	6023      	str	r3, [r4, #0]
 800ad96:	6123      	str	r3, [r4, #16]
 800ad98:	2301      	movs	r3, #1
 800ad9a:	6163      	str	r3, [r4, #20]
 800ad9c:	b002      	add	sp, #8
 800ad9e:	bd70      	pop	{r4, r5, r6, pc}
 800ada0:	ab01      	add	r3, sp, #4
 800ada2:	466a      	mov	r2, sp
 800ada4:	f7ff ffc8 	bl	800ad38 <__swhatbuf_r>
 800ada8:	9900      	ldr	r1, [sp, #0]
 800adaa:	4605      	mov	r5, r0
 800adac:	4630      	mov	r0, r6
 800adae:	f7ff fa4f 	bl	800a250 <_malloc_r>
 800adb2:	b948      	cbnz	r0, 800adc8 <__smakebuf_r+0x44>
 800adb4:	f9b4 300c 	ldrsh.w	r3, [r4, #12]
 800adb8:	059a      	lsls	r2, r3, #22
 800adba:	d4ef      	bmi.n	800ad9c <__smakebuf_r+0x18>
 800adbc:	f023 0303 	bic.w	r3, r3, #3
 800adc0:	f043 0302 	orr.w	r3, r3, #2
 800adc4:	81a3      	strh	r3, [r4, #12]
 800adc6:	e7e3      	b.n	800ad90 <__smakebuf_r+0xc>
 800adc8:	4b0d      	ldr	r3, [pc, #52]	; (800ae00 <__smakebuf_r+0x7c>)
 800adca:	62b3      	str	r3, [r6, #40]	; 0x28
 800adcc:	89a3      	ldrh	r3, [r4, #12]
 800adce:	6020      	str	r0, [r4, #0]
 800add0:	f043 0380 	orr.w	r3, r3, #128	; 0x80
 800add4:	81a3      	strh	r3, [r4, #12]
 800add6:	9b00      	ldr	r3, [sp, #0]
 800add8:	6163      	str	r3, [r4, #20]
 800adda:	9b01      	ldr	r3, [sp, #4]
 800addc:	6120      	str	r0, [r4, #16]
 800adde:	b15b      	cbz	r3, 800adf8 <__smakebuf_r+0x74>
 800ade0:	f9b4 100e 	ldrsh.w	r1, [r4, #14]
 800ade4:	4630      	mov	r0, r6
 800ade6:	f000 f881 	bl	800aeec <_isatty_r>
 800adea:	b128      	cbz	r0, 800adf8 <__smakebuf_r+0x74>
 800adec:	89a3      	ldrh	r3, [r4, #12]
 800adee:	f023 0303 	bic.w	r3, r3, #3
 800adf2:	f043 0301 	orr.w	r3, r3, #1
 800adf6:	81a3      	strh	r3, [r4, #12]
 800adf8:	89a0      	ldrh	r0, [r4, #12]
 800adfa:	4305      	orrs	r5, r0
 800adfc:	81a5      	strh	r5, [r4, #12]
 800adfe:	e7cd      	b.n	800ad9c <__smakebuf_r+0x18>
 800ae00:	08009f9d 	.word	0x08009f9d

0800ae04 <__malloc_lock>:
 800ae04:	4801      	ldr	r0, [pc, #4]	; (800ae0c <__malloc_lock+0x8>)
 800ae06:	f7ff b9ad 	b.w	800a164 <__retarget_lock_acquire_recursive>
 800ae0a:	bf00      	nop
 800ae0c:	20005e98 	.word	0x20005e98

0800ae10 <__malloc_unlock>:
 800ae10:	4801      	ldr	r0, [pc, #4]	; (800ae18 <__malloc_unlock+0x8>)
 800ae12:	f7ff b9a8 	b.w	800a166 <__retarget_lock_release_recursive>
 800ae16:	bf00      	nop
 800ae18:	20005e98 	.word	0x20005e98

0800ae1c <_read_r>:
 800ae1c:	b538      	push	{r3, r4, r5, lr}
 800ae1e:	4d07      	ldr	r5, [pc, #28]	; (800ae3c <_read_r+0x20>)
 800ae20:	4604      	mov	r4, r0
 800ae22:	4608      	mov	r0, r1
 800ae24:	4611      	mov	r1, r2
 800ae26:	2200      	movs	r2, #0
 800ae28:	602a      	str	r2, [r5, #0]
 800ae2a:	461a      	mov	r2, r3
 800ae2c:	f7f5 fe0a 	bl	8000a44 <_read>
 800ae30:	1c43      	adds	r3, r0, #1
 800ae32:	d102      	bne.n	800ae3a <_read_r+0x1e>
 800ae34:	682b      	ldr	r3, [r5, #0]
 800ae36:	b103      	cbz	r3, 800ae3a <_read_r+0x1e>
 800ae38:	6023      	str	r3, [r4, #0]
 800ae3a:	bd38      	pop	{r3, r4, r5, pc}
 800ae3c:	20005e94 	.word	0x20005e94

0800ae40 <_raise_r>:
 800ae40:	291f      	cmp	r1, #31
 800ae42:	b538      	push	{r3, r4, r5, lr}
 800ae44:	4604      	mov	r4, r0
 800ae46:	460d      	mov	r5, r1
 800ae48:	d904      	bls.n	800ae54 <_raise_r+0x14>
 800ae4a:	2316      	movs	r3, #22
 800ae4c:	6003      	str	r3, [r0, #0]
 800ae4e:	f04f 30ff 	mov.w	r0, #4294967295
 800ae52:	bd38      	pop	{r3, r4, r5, pc}
 800ae54:	6c42      	ldr	r2, [r0, #68]	; 0x44
 800ae56:	b112      	cbz	r2, 800ae5e <_raise_r+0x1e>
 800ae58:	f852 3021 	ldr.w	r3, [r2, r1, lsl #2]
 800ae5c:	b94b      	cbnz	r3, 800ae72 <_raise_r+0x32>
 800ae5e:	4620      	mov	r0, r4
 800ae60:	f000 f830 	bl	800aec4 <_getpid_r>
 800ae64:	462a      	mov	r2, r5
 800ae66:	4601      	mov	r1, r0
 800ae68:	4620      	mov	r0, r4
 800ae6a:	e8bd 4038 	ldmia.w	sp!, {r3, r4, r5, lr}
 800ae6e:	f000 b817 	b.w	800aea0 <_kill_r>
 800ae72:	2b01      	cmp	r3, #1
 800ae74:	d00a      	beq.n	800ae8c <_raise_r+0x4c>
 800ae76:	1c59      	adds	r1, r3, #1
 800ae78:	d103      	bne.n	800ae82 <_raise_r+0x42>
 800ae7a:	2316      	movs	r3, #22
 800ae7c:	6003      	str	r3, [r0, #0]
 800ae7e:	2001      	movs	r0, #1
 800ae80:	e7e7      	b.n	800ae52 <_raise_r+0x12>
 800ae82:	2400      	movs	r4, #0
 800ae84:	f842 4025 	str.w	r4, [r2, r5, lsl #2]
 800ae88:	4628      	mov	r0, r5
 800ae8a:	4798      	blx	r3
 800ae8c:	2000      	movs	r0, #0
 800ae8e:	e7e0      	b.n	800ae52 <_raise_r+0x12>

0800ae90 <raise>:
 800ae90:	4b02      	ldr	r3, [pc, #8]	; (800ae9c <raise+0xc>)
 800ae92:	4601      	mov	r1, r0
 800ae94:	6818      	ldr	r0, [r3, #0]
 800ae96:	f7ff bfd3 	b.w	800ae40 <_raise_r>
 800ae9a:	bf00      	nop
 800ae9c:	20000014 	.word	0x20000014

0800aea0 <_kill_r>:
 800aea0:	b538      	push	{r3, r4, r5, lr}
 800aea2:	4d07      	ldr	r5, [pc, #28]	; (800aec0 <_kill_r+0x20>)
 800aea4:	2300      	movs	r3, #0
 800aea6:	4604      	mov	r4, r0
 800aea8:	4608      	mov	r0, r1
 800aeaa:	4611      	mov	r1, r2
 800aeac:	602b      	str	r3, [r5, #0]
 800aeae:	f7f5 fdbb 	bl	8000a28 <_kill>
 800aeb2:	1c43      	adds	r3, r0, #1
 800aeb4:	d102      	bne.n	800aebc <_kill_r+0x1c>
 800aeb6:	682b      	ldr	r3, [r5, #0]
 800aeb8:	b103      	cbz	r3, 800aebc <_kill_r+0x1c>
 800aeba:	6023      	str	r3, [r4, #0]
 800aebc:	bd38      	pop	{r3, r4, r5, pc}
 800aebe:	bf00      	nop
 800aec0:	20005e94 	.word	0x20005e94

0800aec4 <_getpid_r>:
 800aec4:	f7f5 bdae 	b.w	8000a24 <_getpid>

0800aec8 <_fstat_r>:
 800aec8:	b538      	push	{r3, r4, r5, lr}
 800aeca:	4d07      	ldr	r5, [pc, #28]	; (800aee8 <_fstat_r+0x20>)
 800aecc:	2300      	movs	r3, #0
 800aece:	4604      	mov	r4, r0
 800aed0:	4608      	mov	r0, r1
 800aed2:	4611      	mov	r1, r2
 800aed4:	602b      	str	r3, [r5, #0]
 800aed6:	f7f5 fdd4 	bl	8000a82 <_fstat>
 800aeda:	1c43      	adds	r3, r0, #1
 800aedc:	d102      	bne.n	800aee4 <_fstat_r+0x1c>
 800aede:	682b      	ldr	r3, [r5, #0]
 800aee0:	b103      	cbz	r3, 800aee4 <_fstat_r+0x1c>
 800aee2:	6023      	str	r3, [r4, #0]
 800aee4:	bd38      	pop	{r3, r4, r5, pc}
 800aee6:	bf00      	nop
 800aee8:	20005e94 	.word	0x20005e94

0800aeec <_isatty_r>:
 800aeec:	b538      	push	{r3, r4, r5, lr}
 800aeee:	4d06      	ldr	r5, [pc, #24]	; (800af08 <_isatty_r+0x1c>)
 800aef0:	2300      	movs	r3, #0
 800aef2:	4604      	mov	r4, r0
 800aef4:	4608      	mov	r0, r1
 800aef6:	602b      	str	r3, [r5, #0]
 800aef8:	f7f5 fdc8 	bl	8000a8c <_isatty>
 800aefc:	1c43      	adds	r3, r0, #1
 800aefe:	d102      	bne.n	800af06 <_isatty_r+0x1a>
 800af00:	682b      	ldr	r3, [r5, #0]
 800af02:	b103      	cbz	r3, 800af06 <_isatty_r+0x1a>
 800af04:	6023      	str	r3, [r4, #0]
 800af06:	bd38      	pop	{r3, r4, r5, pc}
 800af08:	20005e94 	.word	0x20005e94

0800af0c <_init>:
 800af0c:	b5f8      	push	{r3, r4, r5, r6, r7, lr}
 800af0e:	bf00      	nop
 800af10:	bcf8      	pop	{r3, r4, r5, r6, r7}
 800af12:	bc08      	pop	{r3}
 800af14:	469e      	mov	lr, r3
 800af16:	4770      	bx	lr

0800af18 <_fini>:
 800af18:	b5f8      	push	{r3, r4, r5, r6, r7, lr}
 800af1a:	bf00      	nop
 800af1c:	bcf8      	pop	{r3, r4, r5, r6, r7}
 800af1e:	bc08      	pop	{r3}
 800af20:	469e      	mov	lr, r3
 800af22:	4770      	bx	lr
